
bare_thread5.exe:     file format elf32-sparc

Disassembly of section .text:

40500000 <_trap_table>:
40500000:	88 10 00 00 	mov  %g0, %g4
40500004:	09 10 14 0b 	sethi  %hi(0x40502c00), %g4
40500008:	81 c1 20 3c 	jmp  %g4 + 0x3c	! 40502c3c <_hardreset_mvt>
4050000c:	01 00 00 00 	nop 
40500010:	a1 48 00 00 	rd  %psr, %l0
40500014:	a7 50 00 00 	rd  %wim, %l3
40500018:	10 80 0b 03 	b  40502c24 <_srmmu_fault>
4050001c:	ac 10 20 01 	mov  1, %l6
40500020:	91 d0 20 00 	ta  0
40500024:	01 00 00 00 	nop 
40500028:	01 00 00 00 	nop 
4050002c:	01 00 00 00 	nop 
40500030:	91 d0 20 00 	ta  0
40500034:	01 00 00 00 	nop 
40500038:	01 00 00 00 	nop 
4050003c:	01 00 00 00 	nop 
40500040:	a1 48 00 00 	rd  %psr, %l0
40500044:	29 10 14 0a 	sethi  %hi(0x40502800), %l4
40500048:	81 c5 23 5c 	jmp  %l4 + 0x35c	! 40502b5c <_fpdis>
4050004c:	01 00 00 00 	nop 
40500050:	a1 48 00 00 	rd  %psr, %l0
40500054:	29 10 14 08 	sethi  %hi(0x40502000), %l4
40500058:	81 c5 23 38 	jmp  %l4 + 0x338	! 40502338 <__window_overflow_rettseq>
4050005c:	01 00 00 00 	nop 
40500060:	a1 48 00 00 	rd  %psr, %l0
40500064:	29 10 14 08 	sethi  %hi(0x40502000), %l4
40500068:	81 c5 23 a4 	jmp  %l4 + 0x3a4	! 405023a4 <_window_underflow>
4050006c:	01 00 00 00 	nop 
40500070:	91 d0 20 00 	ta  0
40500074:	01 00 00 00 	nop 
40500078:	01 00 00 00 	nop 
4050007c:	01 00 00 00 	nop 
40500080:	91 d0 20 00 	ta  0
40500084:	01 00 00 00 	nop 
40500088:	01 00 00 00 	nop 
4050008c:	01 00 00 00 	nop 
40500090:	a1 48 00 00 	rd  %psr, %l0
40500094:	a7 50 00 00 	rd  %wim, %l3
40500098:	10 80 0a e3 	b  40502c24 <_srmmu_fault>
4050009c:	ac 10 20 09 	mov  9, %l6
405000a0:	91 d0 20 00 	ta  0
405000a4:	01 00 00 00 	nop 
405000a8:	01 00 00 00 	nop 
405000ac:	01 00 00 00 	nop 
405000b0:	91 d0 20 00 	ta  0
405000b4:	01 00 00 00 	nop 
405000b8:	01 00 00 00 	nop 
405000bc:	01 00 00 00 	nop 
405000c0:	91 d0 20 00 	ta  0
405000c4:	01 00 00 00 	nop 
405000c8:	01 00 00 00 	nop 
405000cc:	01 00 00 00 	nop 
405000d0:	91 d0 20 00 	ta  0
405000d4:	01 00 00 00 	nop 
405000d8:	01 00 00 00 	nop 
405000dc:	01 00 00 00 	nop 
405000e0:	91 d0 20 00 	ta  0
405000e4:	01 00 00 00 	nop 
405000e8:	01 00 00 00 	nop 
405000ec:	01 00 00 00 	nop 
405000f0:	91 d0 20 00 	ta  0
405000f4:	01 00 00 00 	nop 
405000f8:	01 00 00 00 	nop 
405000fc:	01 00 00 00 	nop 
40500100:	91 d0 20 00 	ta  0
40500104:	01 00 00 00 	nop 
40500108:	01 00 00 00 	nop 
4050010c:	01 00 00 00 	nop 
40500110:	ae 10 20 01 	mov  1, %l7	! 1 <_trap_table-0x404fffff>
40500114:	a1 48 00 00 	rd  %psr, %l0
40500118:	10 80 09 47 	b  40502634 <leonbare_irq_entry>
4050011c:	a7 50 00 00 	rd  %wim, %l3
40500120:	ae 10 20 02 	mov  2, %l7
40500124:	a1 48 00 00 	rd  %psr, %l0
40500128:	10 80 09 43 	b  40502634 <leonbare_irq_entry>
4050012c:	a7 50 00 00 	rd  %wim, %l3
40500130:	ae 10 20 03 	mov  3, %l7
40500134:	a1 48 00 00 	rd  %psr, %l0
40500138:	10 80 09 3f 	b  40502634 <leonbare_irq_entry>
4050013c:	a7 50 00 00 	rd  %wim, %l3
40500140:	ae 10 20 04 	mov  4, %l7
40500144:	a1 48 00 00 	rd  %psr, %l0
40500148:	10 80 09 3b 	b  40502634 <leonbare_irq_entry>
4050014c:	a7 50 00 00 	rd  %wim, %l3
40500150:	ae 10 20 05 	mov  5, %l7
40500154:	a1 48 00 00 	rd  %psr, %l0
40500158:	10 80 09 37 	b  40502634 <leonbare_irq_entry>
4050015c:	a7 50 00 00 	rd  %wim, %l3
40500160:	ae 10 20 06 	mov  6, %l7
40500164:	a1 48 00 00 	rd  %psr, %l0
40500168:	10 80 09 33 	b  40502634 <leonbare_irq_entry>
4050016c:	a7 50 00 00 	rd  %wim, %l3
40500170:	ae 10 20 07 	mov  7, %l7
40500174:	a1 48 00 00 	rd  %psr, %l0
40500178:	10 80 09 2f 	b  40502634 <leonbare_irq_entry>
4050017c:	a7 50 00 00 	rd  %wim, %l3
40500180:	ae 10 20 08 	mov  8, %l7
40500184:	a1 48 00 00 	rd  %psr, %l0
40500188:	10 80 09 2b 	b  40502634 <leonbare_irq_entry>
4050018c:	a7 50 00 00 	rd  %wim, %l3
40500190:	ae 10 20 09 	mov  9, %l7
40500194:	a1 48 00 00 	rd  %psr, %l0
40500198:	10 80 09 27 	b  40502634 <leonbare_irq_entry>
4050019c:	a7 50 00 00 	rd  %wim, %l3
405001a0:	ae 10 20 0a 	mov  0xa, %l7
405001a4:	a1 48 00 00 	rd  %psr, %l0
405001a8:	10 80 09 23 	b  40502634 <leonbare_irq_entry>
405001ac:	a7 50 00 00 	rd  %wim, %l3
405001b0:	ae 10 20 0b 	mov  0xb, %l7
405001b4:	a1 48 00 00 	rd  %psr, %l0
405001b8:	10 80 09 1f 	b  40502634 <leonbare_irq_entry>
405001bc:	a7 50 00 00 	rd  %wim, %l3
405001c0:	ae 10 20 0c 	mov  0xc, %l7
405001c4:	a1 48 00 00 	rd  %psr, %l0
405001c8:	10 80 09 1b 	b  40502634 <leonbare_irq_entry>
405001cc:	a7 50 00 00 	rd  %wim, %l3
405001d0:	ae 10 20 0d 	mov  0xd, %l7
405001d4:	a1 48 00 00 	rd  %psr, %l0
405001d8:	10 80 09 17 	b  40502634 <leonbare_irq_entry>
405001dc:	a7 50 00 00 	rd  %wim, %l3
405001e0:	ae 10 20 0e 	mov  0xe, %l7
405001e4:	a1 48 00 00 	rd  %psr, %l0
405001e8:	10 80 09 13 	b  40502634 <leonbare_irq_entry>
405001ec:	a7 50 00 00 	rd  %wim, %l3
405001f0:	ae 10 20 0f 	mov  0xf, %l7
405001f4:	a1 48 00 00 	rd  %psr, %l0
405001f8:	10 80 09 0f 	b  40502634 <leonbare_irq_entry>
405001fc:	a7 50 00 00 	rd  %wim, %l3
40500200:	91 d0 20 00 	ta  0
40500204:	01 00 00 00 	nop 
40500208:	01 00 00 00 	nop 
4050020c:	01 00 00 00 	nop 
40500210:	91 d0 20 00 	ta  0
40500214:	01 00 00 00 	nop 
40500218:	01 00 00 00 	nop 
4050021c:	01 00 00 00 	nop 
40500220:	91 d0 20 00 	ta  0
40500224:	01 00 00 00 	nop 
40500228:	01 00 00 00 	nop 
4050022c:	01 00 00 00 	nop 
40500230:	91 d0 20 00 	ta  0
40500234:	01 00 00 00 	nop 
40500238:	01 00 00 00 	nop 
4050023c:	01 00 00 00 	nop 
40500240:	91 d0 20 00 	ta  0
40500244:	01 00 00 00 	nop 
40500248:	01 00 00 00 	nop 
4050024c:	01 00 00 00 	nop 
40500250:	91 d0 20 00 	ta  0
40500254:	01 00 00 00 	nop 
40500258:	01 00 00 00 	nop 
4050025c:	01 00 00 00 	nop 
40500260:	91 d0 20 00 	ta  0
40500264:	01 00 00 00 	nop 
40500268:	01 00 00 00 	nop 
4050026c:	01 00 00 00 	nop 
40500270:	91 d0 20 00 	ta  0
40500274:	01 00 00 00 	nop 
40500278:	01 00 00 00 	nop 
4050027c:	01 00 00 00 	nop 
40500280:	91 d0 20 00 	ta  0
40500284:	01 00 00 00 	nop 
40500288:	01 00 00 00 	nop 
4050028c:	01 00 00 00 	nop 
40500290:	91 d0 20 00 	ta  0
40500294:	01 00 00 00 	nop 
40500298:	01 00 00 00 	nop 
4050029c:	01 00 00 00 	nop 
405002a0:	91 d0 20 00 	ta  0
405002a4:	01 00 00 00 	nop 
405002a8:	01 00 00 00 	nop 
405002ac:	01 00 00 00 	nop 
405002b0:	91 d0 20 00 	ta  0
405002b4:	01 00 00 00 	nop 
405002b8:	01 00 00 00 	nop 
405002bc:	01 00 00 00 	nop 
405002c0:	91 d0 20 00 	ta  0
405002c4:	01 00 00 00 	nop 
405002c8:	01 00 00 00 	nop 
405002cc:	01 00 00 00 	nop 
405002d0:	91 d0 20 00 	ta  0
405002d4:	01 00 00 00 	nop 
405002d8:	01 00 00 00 	nop 
405002dc:	01 00 00 00 	nop 
405002e0:	91 d0 20 00 	ta  0
405002e4:	01 00 00 00 	nop 
405002e8:	01 00 00 00 	nop 
405002ec:	01 00 00 00 	nop 
405002f0:	91 d0 20 00 	ta  0
405002f4:	01 00 00 00 	nop 
405002f8:	01 00 00 00 	nop 
405002fc:	01 00 00 00 	nop 
40500300:	91 d0 20 00 	ta  0
40500304:	01 00 00 00 	nop 
40500308:	01 00 00 00 	nop 
4050030c:	01 00 00 00 	nop 
40500310:	91 d0 20 00 	ta  0
40500314:	01 00 00 00 	nop 
40500318:	01 00 00 00 	nop 
4050031c:	01 00 00 00 	nop 
40500320:	91 d0 20 00 	ta  0
40500324:	01 00 00 00 	nop 
40500328:	01 00 00 00 	nop 
4050032c:	01 00 00 00 	nop 
40500330:	91 d0 20 00 	ta  0
40500334:	01 00 00 00 	nop 
40500338:	01 00 00 00 	nop 
4050033c:	01 00 00 00 	nop 
40500340:	91 d0 20 00 	ta  0
40500344:	01 00 00 00 	nop 
40500348:	01 00 00 00 	nop 
4050034c:	01 00 00 00 	nop 
40500350:	91 d0 20 00 	ta  0
40500354:	01 00 00 00 	nop 
40500358:	01 00 00 00 	nop 
4050035c:	01 00 00 00 	nop 
40500360:	91 d0 20 00 	ta  0
40500364:	01 00 00 00 	nop 
40500368:	01 00 00 00 	nop 
4050036c:	01 00 00 00 	nop 
40500370:	91 d0 20 00 	ta  0
40500374:	01 00 00 00 	nop 
40500378:	01 00 00 00 	nop 
4050037c:	01 00 00 00 	nop 
40500380:	91 d0 20 00 	ta  0
40500384:	01 00 00 00 	nop 
40500388:	01 00 00 00 	nop 
4050038c:	01 00 00 00 	nop 
40500390:	91 d0 20 00 	ta  0
40500394:	01 00 00 00 	nop 
40500398:	01 00 00 00 	nop 
4050039c:	01 00 00 00 	nop 
405003a0:	91 d0 20 00 	ta  0
405003a4:	01 00 00 00 	nop 
405003a8:	01 00 00 00 	nop 
405003ac:	01 00 00 00 	nop 
405003b0:	91 d0 20 00 	ta  0
405003b4:	01 00 00 00 	nop 
405003b8:	01 00 00 00 	nop 
405003bc:	01 00 00 00 	nop 
405003c0:	91 d0 20 00 	ta  0
405003c4:	01 00 00 00 	nop 
405003c8:	01 00 00 00 	nop 
405003cc:	01 00 00 00 	nop 
405003d0:	91 d0 20 00 	ta  0
405003d4:	01 00 00 00 	nop 
405003d8:	01 00 00 00 	nop 
405003dc:	01 00 00 00 	nop 
405003e0:	91 d0 20 00 	ta  0
405003e4:	01 00 00 00 	nop 
405003e8:	01 00 00 00 	nop 
405003ec:	01 00 00 00 	nop 
405003f0:	91 d0 20 00 	ta  0
405003f4:	01 00 00 00 	nop 
405003f8:	01 00 00 00 	nop 
405003fc:	01 00 00 00 	nop 
40500400:	91 d0 20 00 	ta  0
40500404:	01 00 00 00 	nop 
40500408:	01 00 00 00 	nop 
4050040c:	01 00 00 00 	nop 
40500410:	91 d0 20 00 	ta  0
40500414:	01 00 00 00 	nop 
40500418:	01 00 00 00 	nop 
4050041c:	01 00 00 00 	nop 
40500420:	91 d0 20 00 	ta  0
40500424:	01 00 00 00 	nop 
40500428:	01 00 00 00 	nop 
4050042c:	01 00 00 00 	nop 
40500430:	91 d0 20 00 	ta  0
40500434:	01 00 00 00 	nop 
40500438:	01 00 00 00 	nop 
4050043c:	01 00 00 00 	nop 
40500440:	91 d0 20 00 	ta  0
40500444:	01 00 00 00 	nop 
40500448:	01 00 00 00 	nop 
4050044c:	01 00 00 00 	nop 
40500450:	91 d0 20 00 	ta  0
40500454:	01 00 00 00 	nop 
40500458:	01 00 00 00 	nop 
4050045c:	01 00 00 00 	nop 
40500460:	91 d0 20 00 	ta  0
40500464:	01 00 00 00 	nop 
40500468:	01 00 00 00 	nop 
4050046c:	01 00 00 00 	nop 
40500470:	91 d0 20 00 	ta  0
40500474:	01 00 00 00 	nop 
40500478:	01 00 00 00 	nop 
4050047c:	01 00 00 00 	nop 
40500480:	91 d0 20 00 	ta  0
40500484:	01 00 00 00 	nop 
40500488:	01 00 00 00 	nop 
4050048c:	01 00 00 00 	nop 
40500490:	91 d0 20 00 	ta  0
40500494:	01 00 00 00 	nop 
40500498:	01 00 00 00 	nop 
4050049c:	01 00 00 00 	nop 
405004a0:	91 d0 20 00 	ta  0
405004a4:	01 00 00 00 	nop 
405004a8:	01 00 00 00 	nop 
405004ac:	01 00 00 00 	nop 
405004b0:	91 d0 20 00 	ta  0
405004b4:	01 00 00 00 	nop 
405004b8:	01 00 00 00 	nop 
405004bc:	01 00 00 00 	nop 
405004c0:	91 d0 20 00 	ta  0
405004c4:	01 00 00 00 	nop 
405004c8:	01 00 00 00 	nop 
405004cc:	01 00 00 00 	nop 
405004d0:	91 d0 20 00 	ta  0
405004d4:	01 00 00 00 	nop 
405004d8:	01 00 00 00 	nop 
405004dc:	01 00 00 00 	nop 
405004e0:	91 d0 20 00 	ta  0
405004e4:	01 00 00 00 	nop 
405004e8:	01 00 00 00 	nop 
405004ec:	01 00 00 00 	nop 
405004f0:	91 d0 20 00 	ta  0
405004f4:	01 00 00 00 	nop 
405004f8:	01 00 00 00 	nop 
405004fc:	01 00 00 00 	nop 
40500500:	91 d0 20 00 	ta  0
40500504:	01 00 00 00 	nop 
40500508:	01 00 00 00 	nop 
4050050c:	01 00 00 00 	nop 
40500510:	91 d0 20 00 	ta  0
40500514:	01 00 00 00 	nop 
40500518:	01 00 00 00 	nop 
4050051c:	01 00 00 00 	nop 
40500520:	91 d0 20 00 	ta  0
40500524:	01 00 00 00 	nop 
40500528:	01 00 00 00 	nop 
4050052c:	01 00 00 00 	nop 
40500530:	91 d0 20 00 	ta  0
40500534:	01 00 00 00 	nop 
40500538:	01 00 00 00 	nop 
4050053c:	01 00 00 00 	nop 
40500540:	91 d0 20 00 	ta  0
40500544:	01 00 00 00 	nop 
40500548:	01 00 00 00 	nop 
4050054c:	01 00 00 00 	nop 
40500550:	91 d0 20 00 	ta  0
40500554:	01 00 00 00 	nop 
40500558:	01 00 00 00 	nop 
4050055c:	01 00 00 00 	nop 
40500560:	91 d0 20 00 	ta  0
40500564:	01 00 00 00 	nop 
40500568:	01 00 00 00 	nop 
4050056c:	01 00 00 00 	nop 
40500570:	91 d0 20 00 	ta  0
40500574:	01 00 00 00 	nop 
40500578:	01 00 00 00 	nop 
4050057c:	01 00 00 00 	nop 
40500580:	91 d0 20 00 	ta  0
40500584:	01 00 00 00 	nop 
40500588:	01 00 00 00 	nop 
4050058c:	01 00 00 00 	nop 
40500590:	91 d0 20 00 	ta  0
40500594:	01 00 00 00 	nop 
40500598:	01 00 00 00 	nop 
4050059c:	01 00 00 00 	nop 
405005a0:	91 d0 20 00 	ta  0
405005a4:	01 00 00 00 	nop 
405005a8:	01 00 00 00 	nop 
405005ac:	01 00 00 00 	nop 
405005b0:	91 d0 20 00 	ta  0
405005b4:	01 00 00 00 	nop 
405005b8:	01 00 00 00 	nop 
405005bc:	01 00 00 00 	nop 
405005c0:	91 d0 20 00 	ta  0
405005c4:	01 00 00 00 	nop 
405005c8:	01 00 00 00 	nop 
405005cc:	01 00 00 00 	nop 
405005d0:	91 d0 20 00 	ta  0
405005d4:	01 00 00 00 	nop 
405005d8:	01 00 00 00 	nop 
405005dc:	01 00 00 00 	nop 
405005e0:	91 d0 20 00 	ta  0
405005e4:	01 00 00 00 	nop 
405005e8:	01 00 00 00 	nop 
405005ec:	01 00 00 00 	nop 
405005f0:	91 d0 20 00 	ta  0
405005f4:	01 00 00 00 	nop 
405005f8:	01 00 00 00 	nop 
405005fc:	01 00 00 00 	nop 
40500600:	91 d0 20 00 	ta  0
40500604:	01 00 00 00 	nop 
40500608:	01 00 00 00 	nop 
4050060c:	01 00 00 00 	nop 
40500610:	91 d0 20 00 	ta  0
40500614:	01 00 00 00 	nop 
40500618:	01 00 00 00 	nop 
4050061c:	01 00 00 00 	nop 
40500620:	91 d0 20 00 	ta  0
40500624:	01 00 00 00 	nop 
40500628:	01 00 00 00 	nop 
4050062c:	01 00 00 00 	nop 
40500630:	91 d0 20 00 	ta  0
40500634:	01 00 00 00 	nop 
40500638:	01 00 00 00 	nop 
4050063c:	01 00 00 00 	nop 
40500640:	91 d0 20 00 	ta  0
40500644:	01 00 00 00 	nop 
40500648:	01 00 00 00 	nop 
4050064c:	01 00 00 00 	nop 
40500650:	91 d0 20 00 	ta  0
40500654:	01 00 00 00 	nop 
40500658:	01 00 00 00 	nop 
4050065c:	01 00 00 00 	nop 
40500660:	91 d0 20 00 	ta  0
40500664:	01 00 00 00 	nop 
40500668:	01 00 00 00 	nop 
4050066c:	01 00 00 00 	nop 
40500670:	91 d0 20 00 	ta  0
40500674:	01 00 00 00 	nop 
40500678:	01 00 00 00 	nop 
4050067c:	01 00 00 00 	nop 
40500680:	91 d0 20 00 	ta  0
40500684:	01 00 00 00 	nop 
40500688:	01 00 00 00 	nop 
4050068c:	01 00 00 00 	nop 
40500690:	91 d0 20 00 	ta  0
40500694:	01 00 00 00 	nop 
40500698:	01 00 00 00 	nop 
4050069c:	01 00 00 00 	nop 
405006a0:	91 d0 20 00 	ta  0
405006a4:	01 00 00 00 	nop 
405006a8:	01 00 00 00 	nop 
405006ac:	01 00 00 00 	nop 
405006b0:	91 d0 20 00 	ta  0
405006b4:	01 00 00 00 	nop 
405006b8:	01 00 00 00 	nop 
405006bc:	01 00 00 00 	nop 
405006c0:	91 d0 20 00 	ta  0
405006c4:	01 00 00 00 	nop 
405006c8:	01 00 00 00 	nop 
405006cc:	01 00 00 00 	nop 
405006d0:	91 d0 20 00 	ta  0
405006d4:	01 00 00 00 	nop 
405006d8:	01 00 00 00 	nop 
405006dc:	01 00 00 00 	nop 
405006e0:	91 d0 20 00 	ta  0
405006e4:	01 00 00 00 	nop 
405006e8:	01 00 00 00 	nop 
405006ec:	01 00 00 00 	nop 
405006f0:	91 d0 20 00 	ta  0
405006f4:	01 00 00 00 	nop 
405006f8:	01 00 00 00 	nop 
405006fc:	01 00 00 00 	nop 
40500700:	91 d0 20 00 	ta  0
40500704:	01 00 00 00 	nop 
40500708:	01 00 00 00 	nop 
4050070c:	01 00 00 00 	nop 
40500710:	91 d0 20 00 	ta  0
40500714:	01 00 00 00 	nop 
40500718:	01 00 00 00 	nop 
4050071c:	01 00 00 00 	nop 
40500720:	91 d0 20 00 	ta  0
40500724:	01 00 00 00 	nop 
40500728:	01 00 00 00 	nop 
4050072c:	01 00 00 00 	nop 
40500730:	91 d0 20 00 	ta  0
40500734:	01 00 00 00 	nop 
40500738:	01 00 00 00 	nop 
4050073c:	01 00 00 00 	nop 
40500740:	91 d0 20 00 	ta  0
40500744:	01 00 00 00 	nop 
40500748:	01 00 00 00 	nop 
4050074c:	01 00 00 00 	nop 
40500750:	91 d0 20 00 	ta  0
40500754:	01 00 00 00 	nop 
40500758:	01 00 00 00 	nop 
4050075c:	01 00 00 00 	nop 
40500760:	91 d0 20 00 	ta  0
40500764:	01 00 00 00 	nop 
40500768:	01 00 00 00 	nop 
4050076c:	01 00 00 00 	nop 
40500770:	91 d0 20 00 	ta  0
40500774:	01 00 00 00 	nop 
40500778:	01 00 00 00 	nop 
4050077c:	01 00 00 00 	nop 
40500780:	91 d0 20 00 	ta  0
40500784:	01 00 00 00 	nop 
40500788:	01 00 00 00 	nop 
4050078c:	01 00 00 00 	nop 
40500790:	91 d0 20 00 	ta  0
40500794:	01 00 00 00 	nop 
40500798:	01 00 00 00 	nop 
4050079c:	01 00 00 00 	nop 
405007a0:	91 d0 20 00 	ta  0
405007a4:	01 00 00 00 	nop 
405007a8:	01 00 00 00 	nop 
405007ac:	01 00 00 00 	nop 
405007b0:	91 d0 20 00 	ta  0
405007b4:	01 00 00 00 	nop 
405007b8:	01 00 00 00 	nop 
405007bc:	01 00 00 00 	nop 
405007c0:	91 d0 20 00 	ta  0
405007c4:	01 00 00 00 	nop 
405007c8:	01 00 00 00 	nop 
405007cc:	01 00 00 00 	nop 
405007d0:	91 d0 20 00 	ta  0
405007d4:	01 00 00 00 	nop 
405007d8:	01 00 00 00 	nop 
405007dc:	01 00 00 00 	nop 
405007e0:	91 d0 20 00 	ta  0
405007e4:	01 00 00 00 	nop 
405007e8:	01 00 00 00 	nop 
405007ec:	01 00 00 00 	nop 
405007f0:	91 d0 20 00 	ta  0
405007f4:	01 00 00 00 	nop 
405007f8:	01 00 00 00 	nop 
405007fc:	01 00 00 00 	nop 
40500800:	91 d0 20 00 	ta  0
40500804:	01 00 00 00 	nop 
40500808:	01 00 00 00 	nop 
4050080c:	01 00 00 00 	nop 
40500810:	91 d0 20 00 	ta  0
40500814:	01 00 00 00 	nop 
40500818:	01 00 00 00 	nop 
4050081c:	01 00 00 00 	nop 
40500820:	a1 48 00 00 	rd  %psr, %l0
40500824:	29 10 14 09 	sethi  %hi(0x40502400), %l4
40500828:	81 c5 21 58 	jmp  %l4 + 0x158	! 40502558 <_irqcall>
4050082c:	01 00 00 00 	nop 
40500830:	a1 48 00 00 	rd  %psr, %l0
40500834:	10 80 06 f5 	b  40502408 <_flush_windows>
40500838:	a7 50 00 00 	rd  %wim, %l3
4050083c:	01 00 00 00 	nop 
40500840:	91 d0 20 00 	ta  0
40500844:	01 00 00 00 	nop 
40500848:	01 00 00 00 	nop 
4050084c:	01 00 00 00 	nop 
40500850:	a1 48 00 00 	rd  %psr, %l0
40500854:	29 10 14 09 	sethi  %hi(0x40502400), %l4
40500858:	81 c5 21 3c 	jmp  %l4 + 0x13c	! 4050253c <_irqcall_disableirq>
4050085c:	01 00 00 00 	nop 
40500860:	91 d0 20 00 	ta  0
40500864:	01 00 00 00 	nop 
40500868:	01 00 00 00 	nop 
4050086c:	01 00 00 00 	nop 
40500870:	91 d0 20 00 	ta  0
40500874:	01 00 00 00 	nop 
40500878:	01 00 00 00 	nop 
4050087c:	01 00 00 00 	nop 
40500880:	91 d0 20 00 	ta  0
40500884:	01 00 00 00 	nop 
40500888:	01 00 00 00 	nop 
4050088c:	01 00 00 00 	nop 
40500890:	91 d0 20 00 	ta  0
40500894:	01 00 00 00 	nop 
40500898:	01 00 00 00 	nop 
4050089c:	01 00 00 00 	nop 
405008a0:	91 d0 20 00 	ta  0
405008a4:	01 00 00 00 	nop 
405008a8:	01 00 00 00 	nop 
405008ac:	01 00 00 00 	nop 
405008b0:	91 d0 20 00 	ta  0
405008b4:	01 00 00 00 	nop 
405008b8:	01 00 00 00 	nop 
405008bc:	01 00 00 00 	nop 
405008c0:	91 d0 20 00 	ta  0
405008c4:	01 00 00 00 	nop 
405008c8:	01 00 00 00 	nop 
405008cc:	01 00 00 00 	nop 
405008d0:	91 d0 20 00 	ta  0
405008d4:	01 00 00 00 	nop 
405008d8:	01 00 00 00 	nop 
405008dc:	01 00 00 00 	nop 
405008e0:	91 d0 20 00 	ta  0
405008e4:	01 00 00 00 	nop 
405008e8:	01 00 00 00 	nop 
405008ec:	01 00 00 00 	nop 
405008f0:	91 d0 20 00 	ta  0
405008f4:	01 00 00 00 	nop 
405008f8:	01 00 00 00 	nop 
405008fc:	01 00 00 00 	nop 
40500900:	91 d0 20 00 	ta  0
40500904:	01 00 00 00 	nop 
40500908:	01 00 00 00 	nop 
4050090c:	01 00 00 00 	nop 
40500910:	91 d0 20 00 	ta  0
40500914:	01 00 00 00 	nop 
40500918:	01 00 00 00 	nop 
4050091c:	01 00 00 00 	nop 
40500920:	91 d0 20 00 	ta  0
40500924:	01 00 00 00 	nop 
40500928:	01 00 00 00 	nop 
4050092c:	01 00 00 00 	nop 
40500930:	91 d0 20 00 	ta  0
40500934:	01 00 00 00 	nop 
40500938:	01 00 00 00 	nop 
4050093c:	01 00 00 00 	nop 
40500940:	91 d0 20 00 	ta  0
40500944:	01 00 00 00 	nop 
40500948:	01 00 00 00 	nop 
4050094c:	01 00 00 00 	nop 
40500950:	91 d0 20 00 	ta  0
40500954:	01 00 00 00 	nop 
40500958:	01 00 00 00 	nop 
4050095c:	01 00 00 00 	nop 
40500960:	91 d0 20 00 	ta  0
40500964:	01 00 00 00 	nop 
40500968:	01 00 00 00 	nop 
4050096c:	01 00 00 00 	nop 
40500970:	91 d0 20 00 	ta  0
40500974:	01 00 00 00 	nop 
40500978:	01 00 00 00 	nop 
4050097c:	01 00 00 00 	nop 
40500980:	91 d0 20 00 	ta  0
40500984:	01 00 00 00 	nop 
40500988:	01 00 00 00 	nop 
4050098c:	01 00 00 00 	nop 
40500990:	91 d0 20 00 	ta  0
40500994:	01 00 00 00 	nop 
40500998:	01 00 00 00 	nop 
4050099c:	01 00 00 00 	nop 
405009a0:	91 d0 20 00 	ta  0
405009a4:	01 00 00 00 	nop 
405009a8:	01 00 00 00 	nop 
405009ac:	01 00 00 00 	nop 
405009b0:	91 d0 20 00 	ta  0
405009b4:	01 00 00 00 	nop 
405009b8:	01 00 00 00 	nop 
405009bc:	01 00 00 00 	nop 
405009c0:	91 d0 20 00 	ta  0
405009c4:	01 00 00 00 	nop 
405009c8:	01 00 00 00 	nop 
405009cc:	01 00 00 00 	nop 
405009d0:	91 d0 20 00 	ta  0
405009d4:	01 00 00 00 	nop 
405009d8:	01 00 00 00 	nop 
405009dc:	01 00 00 00 	nop 
405009e0:	91 d0 20 00 	ta  0
405009e4:	01 00 00 00 	nop 
405009e8:	01 00 00 00 	nop 
405009ec:	01 00 00 00 	nop 
405009f0:	91 d0 20 00 	ta  0
405009f4:	01 00 00 00 	nop 
405009f8:	01 00 00 00 	nop 
405009fc:	01 00 00 00 	nop 
40500a00:	91 d0 20 00 	ta  0
40500a04:	01 00 00 00 	nop 
40500a08:	01 00 00 00 	nop 
40500a0c:	01 00 00 00 	nop 
40500a10:	91 d0 20 00 	ta  0
40500a14:	01 00 00 00 	nop 
40500a18:	01 00 00 00 	nop 
40500a1c:	01 00 00 00 	nop 
40500a20:	91 d0 20 00 	ta  0
40500a24:	01 00 00 00 	nop 
40500a28:	01 00 00 00 	nop 
40500a2c:	01 00 00 00 	nop 
40500a30:	91 d0 20 00 	ta  0
40500a34:	01 00 00 00 	nop 
40500a38:	01 00 00 00 	nop 
40500a3c:	01 00 00 00 	nop 
40500a40:	91 d0 20 00 	ta  0
40500a44:	01 00 00 00 	nop 
40500a48:	01 00 00 00 	nop 
40500a4c:	01 00 00 00 	nop 
40500a50:	91 d0 20 00 	ta  0
40500a54:	01 00 00 00 	nop 
40500a58:	01 00 00 00 	nop 
40500a5c:	01 00 00 00 	nop 
40500a60:	91 d0 20 00 	ta  0
40500a64:	01 00 00 00 	nop 
40500a68:	01 00 00 00 	nop 
40500a6c:	01 00 00 00 	nop 
40500a70:	91 d0 20 00 	ta  0
40500a74:	01 00 00 00 	nop 
40500a78:	01 00 00 00 	nop 
40500a7c:	01 00 00 00 	nop 
40500a80:	91 d0 20 00 	ta  0
40500a84:	01 00 00 00 	nop 
40500a88:	01 00 00 00 	nop 
40500a8c:	01 00 00 00 	nop 
40500a90:	91 d0 20 00 	ta  0
40500a94:	01 00 00 00 	nop 
40500a98:	01 00 00 00 	nop 
40500a9c:	01 00 00 00 	nop 
40500aa0:	91 d0 20 00 	ta  0
40500aa4:	01 00 00 00 	nop 
40500aa8:	01 00 00 00 	nop 
40500aac:	01 00 00 00 	nop 
40500ab0:	91 d0 20 00 	ta  0
40500ab4:	01 00 00 00 	nop 
40500ab8:	01 00 00 00 	nop 
40500abc:	01 00 00 00 	nop 
40500ac0:	91 d0 20 00 	ta  0
40500ac4:	01 00 00 00 	nop 
40500ac8:	01 00 00 00 	nop 
40500acc:	01 00 00 00 	nop 
40500ad0:	91 d0 20 00 	ta  0
40500ad4:	01 00 00 00 	nop 
40500ad8:	01 00 00 00 	nop 
40500adc:	01 00 00 00 	nop 
40500ae0:	91 d0 20 00 	ta  0
40500ae4:	01 00 00 00 	nop 
40500ae8:	01 00 00 00 	nop 
40500aec:	01 00 00 00 	nop 
40500af0:	91 d0 20 00 	ta  0
40500af4:	01 00 00 00 	nop 
40500af8:	01 00 00 00 	nop 
40500afc:	01 00 00 00 	nop 
40500b00:	91 d0 20 00 	ta  0
40500b04:	01 00 00 00 	nop 
40500b08:	01 00 00 00 	nop 
40500b0c:	01 00 00 00 	nop 
40500b10:	91 d0 20 00 	ta  0
40500b14:	01 00 00 00 	nop 
40500b18:	01 00 00 00 	nop 
40500b1c:	01 00 00 00 	nop 
40500b20:	91 d0 20 00 	ta  0
40500b24:	01 00 00 00 	nop 
40500b28:	01 00 00 00 	nop 
40500b2c:	01 00 00 00 	nop 
40500b30:	91 d0 20 00 	ta  0
40500b34:	01 00 00 00 	nop 
40500b38:	01 00 00 00 	nop 
40500b3c:	01 00 00 00 	nop 
40500b40:	91 d0 20 00 	ta  0
40500b44:	01 00 00 00 	nop 
40500b48:	01 00 00 00 	nop 
40500b4c:	01 00 00 00 	nop 
40500b50:	91 d0 20 00 	ta  0
40500b54:	01 00 00 00 	nop 
40500b58:	01 00 00 00 	nop 
40500b5c:	01 00 00 00 	nop 
40500b60:	91 d0 20 00 	ta  0
40500b64:	01 00 00 00 	nop 
40500b68:	01 00 00 00 	nop 
40500b6c:	01 00 00 00 	nop 
40500b70:	91 d0 20 00 	ta  0
40500b74:	01 00 00 00 	nop 
40500b78:	01 00 00 00 	nop 
40500b7c:	01 00 00 00 	nop 
40500b80:	91 d0 20 00 	ta  0
40500b84:	01 00 00 00 	nop 
40500b88:	01 00 00 00 	nop 
40500b8c:	01 00 00 00 	nop 
40500b90:	91 d0 20 00 	ta  0
40500b94:	01 00 00 00 	nop 
40500b98:	01 00 00 00 	nop 
40500b9c:	01 00 00 00 	nop 
40500ba0:	91 d0 20 00 	ta  0
40500ba4:	01 00 00 00 	nop 
40500ba8:	01 00 00 00 	nop 
40500bac:	01 00 00 00 	nop 
40500bb0:	91 d0 20 00 	ta  0
40500bb4:	01 00 00 00 	nop 
40500bb8:	01 00 00 00 	nop 
40500bbc:	01 00 00 00 	nop 
40500bc0:	91 d0 20 00 	ta  0
40500bc4:	01 00 00 00 	nop 
40500bc8:	01 00 00 00 	nop 
40500bcc:	01 00 00 00 	nop 
40500bd0:	91 d0 20 00 	ta  0
40500bd4:	01 00 00 00 	nop 
40500bd8:	01 00 00 00 	nop 
40500bdc:	01 00 00 00 	nop 
40500be0:	91 d0 20 00 	ta  0
40500be4:	01 00 00 00 	nop 
40500be8:	01 00 00 00 	nop 
40500bec:	01 00 00 00 	nop 
40500bf0:	91 d0 20 00 	ta  0
40500bf4:	01 00 00 00 	nop 
40500bf8:	01 00 00 00 	nop 
40500bfc:	01 00 00 00 	nop 
40500c00:	91 d0 20 00 	ta  0
40500c04:	01 00 00 00 	nop 
40500c08:	01 00 00 00 	nop 
40500c0c:	01 00 00 00 	nop 
40500c10:	91 d0 20 00 	ta  0
40500c14:	01 00 00 00 	nop 
40500c18:	01 00 00 00 	nop 
40500c1c:	01 00 00 00 	nop 
40500c20:	91 d0 20 00 	ta  0
40500c24:	01 00 00 00 	nop 
40500c28:	01 00 00 00 	nop 
40500c2c:	01 00 00 00 	nop 
40500c30:	91 d0 20 00 	ta  0
40500c34:	01 00 00 00 	nop 
40500c38:	01 00 00 00 	nop 
40500c3c:	01 00 00 00 	nop 
40500c40:	91 d0 20 00 	ta  0
40500c44:	01 00 00 00 	nop 
40500c48:	01 00 00 00 	nop 
40500c4c:	01 00 00 00 	nop 
40500c50:	91 d0 20 00 	ta  0
40500c54:	01 00 00 00 	nop 
40500c58:	01 00 00 00 	nop 
40500c5c:	01 00 00 00 	nop 
40500c60:	91 d0 20 00 	ta  0
40500c64:	01 00 00 00 	nop 
40500c68:	01 00 00 00 	nop 
40500c6c:	01 00 00 00 	nop 
40500c70:	91 d0 20 00 	ta  0
40500c74:	01 00 00 00 	nop 
40500c78:	01 00 00 00 	nop 
40500c7c:	01 00 00 00 	nop 
40500c80:	91 d0 20 00 	ta  0
40500c84:	01 00 00 00 	nop 
40500c88:	01 00 00 00 	nop 
40500c8c:	01 00 00 00 	nop 
40500c90:	91 d0 20 00 	ta  0
40500c94:	01 00 00 00 	nop 
40500c98:	01 00 00 00 	nop 
40500c9c:	01 00 00 00 	nop 
40500ca0:	91 d0 20 00 	ta  0
40500ca4:	01 00 00 00 	nop 
40500ca8:	01 00 00 00 	nop 
40500cac:	01 00 00 00 	nop 
40500cb0:	91 d0 20 00 	ta  0
40500cb4:	01 00 00 00 	nop 
40500cb8:	01 00 00 00 	nop 
40500cbc:	01 00 00 00 	nop 
40500cc0:	91 d0 20 00 	ta  0
40500cc4:	01 00 00 00 	nop 
40500cc8:	01 00 00 00 	nop 
40500ccc:	01 00 00 00 	nop 
40500cd0:	91 d0 20 00 	ta  0
40500cd4:	01 00 00 00 	nop 
40500cd8:	01 00 00 00 	nop 
40500cdc:	01 00 00 00 	nop 
40500ce0:	91 d0 20 00 	ta  0
40500ce4:	01 00 00 00 	nop 
40500ce8:	01 00 00 00 	nop 
40500cec:	01 00 00 00 	nop 
40500cf0:	91 d0 20 00 	ta  0
40500cf4:	01 00 00 00 	nop 
40500cf8:	01 00 00 00 	nop 
40500cfc:	01 00 00 00 	nop 
40500d00:	91 d0 20 00 	ta  0
40500d04:	01 00 00 00 	nop 
40500d08:	01 00 00 00 	nop 
40500d0c:	01 00 00 00 	nop 
40500d10:	91 d0 20 00 	ta  0
40500d14:	01 00 00 00 	nop 
40500d18:	01 00 00 00 	nop 
40500d1c:	01 00 00 00 	nop 
40500d20:	91 d0 20 00 	ta  0
40500d24:	01 00 00 00 	nop 
40500d28:	01 00 00 00 	nop 
40500d2c:	01 00 00 00 	nop 
40500d30:	91 d0 20 00 	ta  0
40500d34:	01 00 00 00 	nop 
40500d38:	01 00 00 00 	nop 
40500d3c:	01 00 00 00 	nop 
40500d40:	91 d0 20 00 	ta  0
40500d44:	01 00 00 00 	nop 
40500d48:	01 00 00 00 	nop 
40500d4c:	01 00 00 00 	nop 
40500d50:	91 d0 20 00 	ta  0
40500d54:	01 00 00 00 	nop 
40500d58:	01 00 00 00 	nop 
40500d5c:	01 00 00 00 	nop 
40500d60:	91 d0 20 00 	ta  0
40500d64:	01 00 00 00 	nop 
40500d68:	01 00 00 00 	nop 
40500d6c:	01 00 00 00 	nop 
40500d70:	91 d0 20 00 	ta  0
40500d74:	01 00 00 00 	nop 
40500d78:	01 00 00 00 	nop 
40500d7c:	01 00 00 00 	nop 
40500d80:	91 d0 20 00 	ta  0
40500d84:	01 00 00 00 	nop 
40500d88:	01 00 00 00 	nop 
40500d8c:	01 00 00 00 	nop 
40500d90:	91 d0 20 00 	ta  0
40500d94:	01 00 00 00 	nop 
40500d98:	01 00 00 00 	nop 
40500d9c:	01 00 00 00 	nop 
40500da0:	91 d0 20 00 	ta  0
40500da4:	01 00 00 00 	nop 
40500da8:	01 00 00 00 	nop 
40500dac:	01 00 00 00 	nop 
40500db0:	91 d0 20 00 	ta  0
40500db4:	01 00 00 00 	nop 
40500db8:	01 00 00 00 	nop 
40500dbc:	01 00 00 00 	nop 
40500dc0:	91 d0 20 00 	ta  0
40500dc4:	01 00 00 00 	nop 
40500dc8:	01 00 00 00 	nop 
40500dcc:	01 00 00 00 	nop 
40500dd0:	91 d0 20 00 	ta  0
40500dd4:	01 00 00 00 	nop 
40500dd8:	01 00 00 00 	nop 
40500ddc:	01 00 00 00 	nop 
40500de0:	91 d0 20 00 	ta  0
40500de4:	01 00 00 00 	nop 
40500de8:	01 00 00 00 	nop 
40500dec:	01 00 00 00 	nop 
40500df0:	91 d0 20 00 	ta  0
40500df4:	01 00 00 00 	nop 
40500df8:	01 00 00 00 	nop 
40500dfc:	01 00 00 00 	nop 
40500e00:	91 d0 20 00 	ta  0
40500e04:	01 00 00 00 	nop 
40500e08:	01 00 00 00 	nop 
40500e0c:	01 00 00 00 	nop 
40500e10:	91 d0 20 00 	ta  0
40500e14:	01 00 00 00 	nop 
40500e18:	01 00 00 00 	nop 
40500e1c:	01 00 00 00 	nop 
40500e20:	91 d0 20 00 	ta  0
40500e24:	01 00 00 00 	nop 
40500e28:	01 00 00 00 	nop 
40500e2c:	01 00 00 00 	nop 
40500e30:	91 d0 20 00 	ta  0
40500e34:	01 00 00 00 	nop 
40500e38:	01 00 00 00 	nop 
40500e3c:	01 00 00 00 	nop 
40500e40:	91 d0 20 00 	ta  0
40500e44:	01 00 00 00 	nop 
40500e48:	01 00 00 00 	nop 
40500e4c:	01 00 00 00 	nop 
40500e50:	91 d0 20 00 	ta  0
40500e54:	01 00 00 00 	nop 
40500e58:	01 00 00 00 	nop 
40500e5c:	01 00 00 00 	nop 
40500e60:	91 d0 20 00 	ta  0
40500e64:	01 00 00 00 	nop 
40500e68:	01 00 00 00 	nop 
40500e6c:	01 00 00 00 	nop 
40500e70:	91 d0 20 00 	ta  0
40500e74:	01 00 00 00 	nop 
40500e78:	01 00 00 00 	nop 
40500e7c:	01 00 00 00 	nop 
40500e80:	91 d0 20 00 	ta  0
40500e84:	01 00 00 00 	nop 
40500e88:	01 00 00 00 	nop 
40500e8c:	01 00 00 00 	nop 
40500e90:	91 d0 20 00 	ta  0
40500e94:	01 00 00 00 	nop 
40500e98:	01 00 00 00 	nop 
40500e9c:	01 00 00 00 	nop 
40500ea0:	91 d0 20 00 	ta  0
40500ea4:	01 00 00 00 	nop 
40500ea8:	01 00 00 00 	nop 
40500eac:	01 00 00 00 	nop 
40500eb0:	91 d0 20 00 	ta  0
40500eb4:	01 00 00 00 	nop 
40500eb8:	01 00 00 00 	nop 
40500ebc:	01 00 00 00 	nop 
40500ec0:	91 d0 20 00 	ta  0
40500ec4:	01 00 00 00 	nop 
40500ec8:	01 00 00 00 	nop 
40500ecc:	01 00 00 00 	nop 
40500ed0:	91 d0 20 00 	ta  0
40500ed4:	01 00 00 00 	nop 
40500ed8:	01 00 00 00 	nop 
40500edc:	01 00 00 00 	nop 
40500ee0:	91 d0 20 00 	ta  0
40500ee4:	01 00 00 00 	nop 
40500ee8:	01 00 00 00 	nop 
40500eec:	01 00 00 00 	nop 
40500ef0:	91 d0 20 00 	ta  0
40500ef4:	01 00 00 00 	nop 
40500ef8:	01 00 00 00 	nop 
40500efc:	01 00 00 00 	nop 
40500f00:	91 d0 20 00 	ta  0
40500f04:	01 00 00 00 	nop 
40500f08:	01 00 00 00 	nop 
40500f0c:	01 00 00 00 	nop 
40500f10:	91 d0 20 00 	ta  0
40500f14:	01 00 00 00 	nop 
40500f18:	01 00 00 00 	nop 
40500f1c:	01 00 00 00 	nop 
40500f20:	91 d0 20 00 	ta  0
40500f24:	01 00 00 00 	nop 
40500f28:	01 00 00 00 	nop 
40500f2c:	01 00 00 00 	nop 
40500f30:	91 d0 20 00 	ta  0
40500f34:	01 00 00 00 	nop 
40500f38:	01 00 00 00 	nop 
40500f3c:	01 00 00 00 	nop 
40500f40:	91 d0 20 00 	ta  0
40500f44:	01 00 00 00 	nop 
40500f48:	01 00 00 00 	nop 
40500f4c:	01 00 00 00 	nop 
40500f50:	91 d0 20 00 	ta  0
40500f54:	01 00 00 00 	nop 
40500f58:	01 00 00 00 	nop 
40500f5c:	01 00 00 00 	nop 
40500f60:	91 d0 20 00 	ta  0
40500f64:	01 00 00 00 	nop 
40500f68:	01 00 00 00 	nop 
40500f6c:	01 00 00 00 	nop 
40500f70:	91 d0 20 00 	ta  0
40500f74:	01 00 00 00 	nop 
40500f78:	01 00 00 00 	nop 
40500f7c:	01 00 00 00 	nop 
40500f80:	91 d0 20 00 	ta  0
40500f84:	01 00 00 00 	nop 
40500f88:	01 00 00 00 	nop 
40500f8c:	01 00 00 00 	nop 
40500f90:	91 d0 20 00 	ta  0
40500f94:	01 00 00 00 	nop 
40500f98:	01 00 00 00 	nop 
40500f9c:	01 00 00 00 	nop 
40500fa0:	91 d0 20 00 	ta  0
40500fa4:	01 00 00 00 	nop 
40500fa8:	01 00 00 00 	nop 
40500fac:	01 00 00 00 	nop 
40500fb0:	91 d0 20 00 	ta  0
40500fb4:	01 00 00 00 	nop 
40500fb8:	01 00 00 00 	nop 
40500fbc:	01 00 00 00 	nop 
40500fc0:	91 d0 20 00 	ta  0
40500fc4:	01 00 00 00 	nop 
40500fc8:	01 00 00 00 	nop 
40500fcc:	01 00 00 00 	nop 
40500fd0:	91 d0 20 00 	ta  0
40500fd4:	01 00 00 00 	nop 
40500fd8:	01 00 00 00 	nop 
40500fdc:	01 00 00 00 	nop 
40500fe0:	91 d0 20 00 	ta  0
40500fe4:	01 00 00 00 	nop 
40500fe8:	01 00 00 00 	nop 
40500fec:	01 00 00 00 	nop 
40500ff0:	91 d0 20 00 	ta  0
40500ff4:	01 00 00 00 	nop 
40500ff8:	01 00 00 00 	nop 
40500ffc:	01 00 00 00 	nop 

40501000 <_start>:
40501000:	9d e3 bf c0 	save  %sp, -64, %sp
40501004:	05 10 14 0e 	sethi  %hi(0x40503800), %g2
40501008:	84 10 a3 b0 	or  %g2, 0x3b0, %g2	! 40503bb0 <__bss_start>
4050100c:	07 10 14 0f 	sethi  %hi(0x40503c00), %g3
40501010:	86 10 e3 38 	or  %g3, 0x338, %g3	! 40503f38 <__end>
40501014:	82 10 00 00 	mov  %g0, %g1
40501018:	86 20 c0 02 	sub  %g3, %g2, %g3

4050101c <zerobss>:
4050101c:	86 a0 e0 08 	subcc  %g3, 8, %g3
40501020:	36 bf ff ff 	bge,a   4050101c <zerobss>
40501024:	c0 38 80 03 	std  %g0, [ %g2 + %g3 ]
40501028:	11 10 14 0f 	sethi  %hi(0x40503c00), %o0
4050102c:	90 12 23 38 	or  %o0, 0x338, %o0	! 40503f38 <__end>
40501030:	c0 22 00 00 	clr  [ %o0 ]
40501034:	40 00 05 7a 	call  4050261c <bdinit2>
40501038:	01 00 00 00 	nop 
4050103c:	40 00 05 7a 	call  40502624 <prelibchook>
40501040:	01 00 00 00 	nop 
40501044:	40 00 07 0c 	call  40502c74 <_call_initcalls>
40501048:	01 00 00 00 	nop 
4050104c:	11 10 14 0c 	sethi  %hi(0x40503000), %o0
40501050:	90 12 21 58 	or  %o0, 0x158, %o0	! 40503158 <_fini>
40501054:	40 00 00 4a 	call  4050117c <_atexit>
40501058:	01 00 00 00 	nop 
4050105c:	40 00 08 38 	call  4050313c <_init>
40501060:	01 00 00 00 	nop 
40501064:	40 00 00 41 	call  40501168 <main>
40501068:	01 00 00 00 	nop 
4050106c:	40 00 06 33 	call  40502938 <_exit>
40501070:	01 00 00 00 	nop 
40501074:	81 c7 e0 08 	ret 
40501078:	81 e8 00 00 	restore 

4050107c <__do_global_dtors_aux>:
4050107c:	9d e3 bf 98 	save  %sp, -104, %sp
40501080:	23 10 14 0e 	sethi  %hi(0x40503800), %l1
40501084:	c2 0c 63 b0 	ldub  [ %l1 + 0x3b0 ], %g1	! 40503bb0 <__bss_start>
40501088:	80 a0 60 00 	cmp  %g1, 0
4050108c:	12 80 00 15 	bne  405010e0 <__do_global_dtors_aux+0x64>
40501090:	21 10 14 0c 	sethi  %hi(0x40503000), %l0
40501094:	10 80 00 05 	b  405010a8 <__do_global_dtors_aux+0x2c>
40501098:	c2 04 21 7c 	ld  [ %l0 + 0x17c ], %g1	! 4050317c <p.0>
4050109c:	9f c3 40 00 	call  %o5
405010a0:	c2 24 21 7c 	st  %g1, [ %l0 + 0x17c ]
405010a4:	c2 04 21 7c 	ld  [ %l0 + 0x17c ], %g1
405010a8:	da 00 40 00 	ld  [ %g1 ], %o5
405010ac:	80 a3 60 00 	cmp  %o5, 0
405010b0:	12 bf ff fb 	bne  4050109c <__do_global_dtors_aux+0x20>
405010b4:	82 00 60 04 	add  %g1, 4, %g1
405010b8:	03 00 00 00 	sethi  %hi(0), %g1
405010bc:	82 10 60 00 	mov  %g1, %g1	! 0 <_trap_table-0x40500000>
405010c0:	80 a0 60 00 	cmp  %g1, 0
405010c4:	02 80 00 06 	be  405010dc <__do_global_dtors_aux+0x60>
405010c8:	82 10 20 01 	mov  1, %g1
405010cc:	11 10 14 0c 	sethi  %hi(0x40503000), %o0
405010d0:	6f eb fb cc 	call  0 <_trap_table-0x40500000>
405010d4:	90 12 21 00 	or  %o0, 0x100, %o0	! 40503100 <__EH_FRAME_BEGIN__>
405010d8:	82 10 20 01 	mov  1, %g1
405010dc:	c2 2c 63 b0 	stb  %g1, [ %l1 + 0x3b0 ]
405010e0:	81 c7 e0 08 	ret 
405010e4:	81 e8 00 00 	restore 

405010e8 <call___do_global_dtors_aux>:
405010e8:	9d e3 bf 98 	save  %sp, -104, %sp
405010ec:	81 c7 e0 08 	ret 
405010f0:	81 e8 00 00 	restore 

405010f4 <frame_dummy>:
405010f4:	9d e3 bf 98 	save  %sp, -104, %sp
405010f8:	03 00 00 00 	sethi  %hi(0), %g1
405010fc:	82 10 60 00 	mov  %g1, %g1	! 0 <_trap_table-0x40500000>
40501100:	11 10 14 0c 	sethi  %hi(0x40503000), %o0
40501104:	13 10 14 0e 	sethi  %hi(0x40503800), %o1
40501108:	80 a0 60 00 	cmp  %g1, 0
4050110c:	90 12 21 00 	or  %o0, 0x100, %o0
40501110:	02 80 00 04 	be  40501120 <frame_dummy+0x2c>
40501114:	92 12 63 b4 	or  %o1, 0x3b4, %o1
40501118:	6f eb fb ba 	call  0 <_trap_table-0x40500000>
4050111c:	01 00 00 00 	nop 
40501120:	1b 10 14 0f 	sethi  %hi(0x40503c00), %o5
40501124:	c2 03 63 38 	ld  [ %o5 + 0x338 ], %g1	! 40503f38 <__end>
40501128:	80 a0 60 00 	cmp  %g1, 0
4050112c:	02 80 00 09 	be  40501150 <frame_dummy+0x5c>
40501130:	b0 13 63 38 	or  %o5, 0x338, %i0
40501134:	03 00 00 00 	sethi  %hi(0), %g1
40501138:	82 10 60 00 	mov  %g1, %g1	! 0 <_trap_table-0x40500000>
4050113c:	80 a0 60 00 	cmp  %g1, 0
40501140:	02 80 00 04 	be  40501150 <frame_dummy+0x5c>
40501144:	01 00 00 00 	nop 
40501148:	6f eb fb ae 	call  0 <_trap_table-0x40500000>
4050114c:	81 e8 00 00 	restore 
40501150:	01 00 00 00 	nop 
40501154:	81 c7 e0 08 	ret 
40501158:	81 e8 00 00 	restore 

4050115c <call_frame_dummy>:
4050115c:	9d e3 bf 98 	save  %sp, -104, %sp
40501160:	81 c7 e0 08 	ret 
40501164:	81 e8 00 00 	restore 

40501168 <main>:
40501168:	9d e3 bf 98 	save  %sp, -104, %sp
4050116c:	82 10 20 00 	clr  %g1
40501170:	b0 10 00 01 	mov  %g1, %i0
40501174:	81 c7 e0 08 	ret 
40501178:	81 e8 00 00 	restore 

4050117c <_atexit>:
4050117c:	92 10 00 08 	mov  %o0, %o1
40501180:	90 10 20 00 	clr  %o0
40501184:	94 10 20 00 	clr  %o2
40501188:	96 10 20 00 	clr  %o3
4050118c:	82 13 c0 00 	mov  %o7, %g1
40501190:	40 00 00 03 	call  4050119c <__register_exitproc>
40501194:	9e 10 40 00 	mov  %g1, %o7
40501198:	01 00 00 00 	nop 

4050119c <__register_exitproc>:
4050119c:	9d e3 bf 98 	save  %sp, -104, %sp
405011a0:	23 10 14 0e 	sethi  %hi(0x40503800), %l1
405011a4:	40 00 06 02 	call  405029ac <___st_pthread_mutex_lock>
405011a8:	90 14 63 cc 	or  %l1, 0x3cc, %o0	! 40503bcc <lock>
405011ac:	03 10 14 0c 	sethi  %hi(0x40503000), %g1
405011b0:	e0 00 61 30 	ld  [ %g1 + 0x130 ], %l0	! 40503130 <___DTOR_END__>
405011b4:	d0 04 21 48 	ld  [ %l0 + 0x148 ], %o0
405011b8:	80 a2 20 00 	cmp  %o0, 0
405011bc:	22 80 00 2d 	be,a   40501270 <__register_exitproc+0xd4>
405011c0:	90 04 21 4c 	add  %l0, 0x14c, %o0
405011c4:	d6 02 20 04 	ld  [ %o0 + 4 ], %o3
405011c8:	80 a2 e0 1f 	cmp  %o3, 0x1f
405011cc:	14 80 00 1d 	bg  40501240 <__register_exitproc+0xa4>
405011d0:	01 00 00 00 	nop 
405011d4:	80 a6 20 00 	cmp  %i0, 0
405011d8:	12 80 00 0b 	bne  40501204 <__register_exitproc+0x68>
405011dc:	94 02 20 88 	add  %o0, 0x88, %o2
405011e0:	83 2a e0 02 	sll  %o3, 2, %g1
405011e4:	9a 02 e0 01 	add  %o3, 1, %o5
405011e8:	82 00 40 08 	add  %g1, %o0, %g1
405011ec:	da 22 20 04 	st  %o5, [ %o0 + 4 ]
405011f0:	f2 20 60 08 	st  %i1, [ %g1 + 8 ]
405011f4:	40 00 06 06 	call  40502a0c <___st_pthread_mutex_unlock>
405011f8:	90 14 63 cc 	or  %l1, 0x3cc, %o0
405011fc:	10 80 00 22 	b  40501284 <__register_exitproc+0xe8>
40501200:	b0 10 20 00 	clr  %i0
40501204:	82 10 20 01 	mov  1, %g1
40501208:	93 28 40 0b 	sll  %g1, %o3, %o1
4050120c:	99 2a e0 02 	sll  %o3, 2, %o4
40501210:	da 02 a1 00 	ld  [ %o2 + 0x100 ], %o5
40501214:	9a 13 40 09 	or  %o5, %o1, %o5
40501218:	82 03 00 0a 	add  %o4, %o2, %g1
4050121c:	f6 20 60 80 	st  %i3, [ %g1 + 0x80 ]
40501220:	f4 22 80 0c 	st  %i2, [ %o2 + %o4 ]
40501224:	80 a6 20 02 	cmp  %i0, 2
40501228:	12 bf ff ee 	bne  405011e0 <__register_exitproc+0x44>
4050122c:	da 22 a1 00 	st  %o5, [ %o2 + 0x100 ]
40501230:	c2 02 a1 04 	ld  [ %o2 + 0x104 ], %g1
40501234:	82 10 40 09 	or  %g1, %o1, %g1
40501238:	10 bf ff ea 	b  405011e0 <__register_exitproc+0x44>
4050123c:	c2 22 a1 04 	st  %g1, [ %o2 + 0x104 ]
40501240:	40 00 00 13 	call  4050128c <malloc>
40501244:	90 10 21 90 	mov  0x190, %o0
40501248:	80 a2 20 00 	cmp  %o0, 0
4050124c:	02 80 00 0b 	be  40501278 <__register_exitproc+0xdc>
40501250:	96 10 20 00 	clr  %o3
40501254:	c2 04 21 48 	ld  [ %l0 + 0x148 ], %g1
40501258:	c2 22 00 00 	st  %g1, [ %o0 ]
4050125c:	d0 24 21 48 	st  %o0, [ %l0 + 0x148 ]
40501260:	c0 22 20 04 	clr  [ %o0 + 4 ]
40501264:	c0 22 21 88 	clr  [ %o0 + 0x188 ]
40501268:	10 bf ff db 	b  405011d4 <__register_exitproc+0x38>
4050126c:	c0 22 21 8c 	clr  [ %o0 + 0x18c ]
40501270:	10 bf ff d5 	b  405011c4 <__register_exitproc+0x28>
40501274:	d0 24 21 48 	st  %o0, [ %l0 + 0x148 ]
40501278:	40 00 05 e5 	call  40502a0c <___st_pthread_mutex_unlock>
4050127c:	90 14 63 cc 	or  %l1, 0x3cc, %o0
40501280:	b0 10 3f ff 	mov  -1, %i0
40501284:	81 c7 e0 08 	ret 
40501288:	81 e8 00 00 	restore 

4050128c <malloc>:
4050128c:	92 10 00 08 	mov  %o0, %o1
40501290:	03 10 14 0d 	sethi  %hi(0x40503400), %g1
40501294:	d0 00 62 d0 	ld  [ %g1 + 0x2d0 ], %o0	! 405036d0 <_impure_ptr>
40501298:	82 13 c0 00 	mov  %o7, %g1
4050129c:	40 00 00 0a 	call  405012c4 <_malloc_r>
405012a0:	9e 10 40 00 	mov  %g1, %o7
405012a4:	01 00 00 00 	nop 

405012a8 <free>:
405012a8:	92 10 00 08 	mov  %o0, %o1
405012ac:	03 10 14 0d 	sethi  %hi(0x40503400), %g1
405012b0:	d0 00 62 d0 	ld  [ %g1 + 0x2d0 ], %o0	! 405036d0 <_impure_ptr>
405012b4:	82 13 c0 00 	mov  %o7, %g1
405012b8:	40 00 02 19 	call  40501b1c <_free_r>
405012bc:	9e 10 40 00 	mov  %g1, %o7
405012c0:	01 00 00 00 	nop 

405012c4 <_malloc_r>:
405012c4:	9d e3 bf 98 	save  %sp, -104, %sp
405012c8:	82 06 60 0b 	add  %i1, 0xb, %g1
405012cc:	80 a0 60 16 	cmp  %g1, 0x16
405012d0:	a6 10 00 18 	mov  %i0, %l3
405012d4:	18 80 00 03 	bgu  405012e0 <_malloc_r+0x1c>
405012d8:	a0 08 7f f8 	and  %g1, -8, %l0
405012dc:	a0 10 20 10 	mov  0x10, %l0
405012e0:	80 a4 00 19 	cmp  %l0, %i1
405012e4:	9a 40 20 00 	addx  %g0, 0, %o5
405012e8:	83 34 20 1f 	srl  %l0, 0x1f, %g1
405012ec:	80 90 40 0d 	orcc  %g1, %o5, %g0
405012f0:	12 80 01 b0 	bne  405019b0 <_malloc_r+0x6ec>
405012f4:	b0 10 20 00 	clr  %i0
405012f8:	40 00 01 b0 	call  405019b8 <__malloc_lock>
405012fc:	90 10 00 13 	mov  %l3, %o0
40501300:	80 a4 21 f7 	cmp  %l0, 0x1f7
40501304:	18 80 00 17 	bgu  40501360 <_malloc_r+0x9c>
40501308:	99 34 20 09 	srl  %l0, 9, %o4
4050130c:	39 10 14 0d 	sethi  %hi(0x40503400), %i4
40501310:	82 17 22 e0 	or  %i4, 0x2e0, %g1	! 405036e0 <__malloc_av_>
40501314:	98 04 00 01 	add  %l0, %g1, %o4
40501318:	f0 03 20 0c 	ld  [ %o4 + 0xc ], %i0
4050131c:	80 a6 00 0c 	cmp  %i0, %o4
40501320:	02 80 00 4e 	be  40501458 <_malloc_r+0x194>
40501324:	9f 34 20 03 	srl  %l0, 3, %o7
40501328:	c2 06 20 04 	ld  [ %i0 + 4 ], %g1
4050132c:	94 08 7f fc 	and  %g1, -4, %o2
40501330:	9a 06 00 0a 	add  %i0, %o2, %o5
40501334:	c2 03 60 04 	ld  [ %o5 + 4 ], %g1
40501338:	82 10 60 01 	or  %g1, 1, %g1
4050133c:	d0 06 20 0c 	ld  [ %i0 + 0xc ], %o0
40501340:	d2 06 20 08 	ld  [ %i0 + 8 ], %o1
40501344:	d2 22 20 08 	st  %o1, [ %o0 + 8 ]
40501348:	c2 23 60 04 	st  %g1, [ %o5 + 4 ]
4050134c:	d0 22 60 0c 	st  %o0, [ %o1 + 0xc ]
40501350:	40 00 01 a0 	call  405019d0 <__malloc_unlock>
40501354:	90 10 00 13 	mov  %l3, %o0
40501358:	10 80 01 96 	b  405019b0 <_malloc_r+0x6ec>
4050135c:	b0 06 20 08 	add  %i0, 8, %i0
40501360:	80 a3 20 00 	cmp  %o4, 0
40501364:	12 80 00 28 	bne  40501404 <_malloc_r+0x140>
40501368:	9f 34 20 03 	srl  %l0, 3, %o7
4050136c:	39 10 14 0d 	sethi  %hi(0x40503400), %i4
40501370:	9b 2b e0 03 	sll  %o7, 3, %o5
40501374:	82 17 22 e0 	or  %i4, 0x2e0, %g1
40501378:	9a 03 40 01 	add  %o5, %g1, %o5
4050137c:	10 80 00 0a 	b  405013a4 <_malloc_r+0xe0>
40501380:	f0 03 60 0c 	ld  [ %o5 + 0xc ], %i0
40501384:	94 08 7f fc 	and  %g1, -4, %o2
40501388:	96 22 80 10 	sub  %o2, %l0, %o3
4050138c:	80 a2 e0 0f 	cmp  %o3, 0xf
40501390:	14 80 01 09 	bg  405017b4 <_malloc_r+0x4f0>
40501394:	80 a2 e0 00 	cmp  %o3, 0
40501398:	36 bf ff e7 	bge,a   40501334 <_malloc_r+0x70>
4050139c:	9a 06 00 0a 	add  %i0, %o2, %o5
405013a0:	f0 06 20 0c 	ld  [ %i0 + 0xc ], %i0
405013a4:	80 a6 00 0d 	cmp  %i0, %o5
405013a8:	32 bf ff f7 	bne,a   40501384 <_malloc_r+0xc0>
405013ac:	c2 06 20 04 	ld  [ %i0 + 4 ], %g1
405013b0:	9e 03 e0 01 	inc  %o7
405013b4:	25 10 14 0d 	sethi  %hi(0x40503400), %l2
405013b8:	98 14 a2 e8 	or  %l2, 0x2e8, %o4	! 405036e8 <__malloc_av_+0x8>
405013bc:	f0 03 20 08 	ld  [ %o4 + 8 ], %i0
405013c0:	80 a6 00 0c 	cmp  %i0, %o4
405013c4:	02 80 00 5d 	be  40501538 <_malloc_r+0x274>
405013c8:	83 3b e0 1f 	sra  %o7, 0x1f, %g1
405013cc:	c2 06 20 04 	ld  [ %i0 + 4 ], %g1
405013d0:	94 08 7f fc 	and  %g1, -4, %o2
405013d4:	96 22 80 10 	sub  %o2, %l0, %o3
405013d8:	80 a2 e0 0f 	cmp  %o3, 0xf
405013dc:	14 80 00 9f 	bg  40501658 <_malloc_r+0x394>
405013e0:	80 a2 e0 00 	cmp  %o3, 0
405013e4:	d8 23 20 0c 	st  %o4, [ %o4 + 0xc ]
405013e8:	06 80 00 23 	bl  40501474 <_malloc_r+0x1b0>
405013ec:	d8 23 20 08 	st  %o4, [ %o4 + 8 ]
405013f0:	9a 06 00 0a 	add  %i0, %o2, %o5
405013f4:	c2 03 60 04 	ld  [ %o5 + 4 ], %g1
405013f8:	82 10 60 01 	or  %g1, 1, %g1
405013fc:	10 bf ff d5 	b  40501350 <_malloc_r+0x8c>
40501400:	c2 23 60 04 	st  %g1, [ %o5 + 4 ]
40501404:	83 34 20 06 	srl  %l0, 6, %g1
40501408:	80 a3 20 04 	cmp  %o4, 4
4050140c:	08 bf ff d8 	bleu  4050136c <_malloc_r+0xa8>
40501410:	9e 00 60 38 	add  %g1, 0x38, %o7
40501414:	80 a3 20 14 	cmp  %o4, 0x14
40501418:	08 bf ff d5 	bleu  4050136c <_malloc_r+0xa8>
4050141c:	9e 03 20 5b 	add  %o4, 0x5b, %o7
40501420:	83 34 20 0c 	srl  %l0, 0xc, %g1
40501424:	80 a3 20 54 	cmp  %o4, 0x54
40501428:	08 bf ff d1 	bleu  4050136c <_malloc_r+0xa8>
4050142c:	9e 00 60 6e 	add  %g1, 0x6e, %o7
40501430:	83 34 20 0f 	srl  %l0, 0xf, %g1
40501434:	80 a3 21 54 	cmp  %o4, 0x154
40501438:	08 bf ff cd 	bleu  4050136c <_malloc_r+0xa8>
4050143c:	9e 00 60 77 	add  %g1, 0x77, %o7
40501440:	83 34 20 12 	srl  %l0, 0x12, %g1
40501444:	80 a3 25 54 	cmp  %o4, 0x554
40501448:	08 bf ff c9 	bleu  4050136c <_malloc_r+0xa8>
4050144c:	9e 00 60 7c 	add  %g1, 0x7c, %o7
40501450:	10 bf ff c7 	b  4050136c <_malloc_r+0xa8>
40501454:	9e 10 20 7e 	mov  0x7e, %o7
40501458:	98 06 20 08 	add  %i0, 8, %o4
4050145c:	f0 03 20 0c 	ld  [ %o4 + 0xc ], %i0
40501460:	80 a6 00 0c 	cmp  %i0, %o4
40501464:	32 bf ff b2 	bne,a   4050132c <_malloc_r+0x68>
40501468:	c2 06 20 04 	ld  [ %i0 + 4 ], %g1
4050146c:	10 bf ff d2 	b  405013b4 <_malloc_r+0xf0>
40501470:	9e 03 e0 02 	add  %o7, 2, %o7
40501474:	80 a2 a1 ff 	cmp  %o2, 0x1ff
40501478:	08 80 00 be 	bleu  40501770 <_malloc_r+0x4ac>
4050147c:	9b 32 a0 03 	srl  %o2, 3, %o5
40501480:	97 32 a0 09 	srl  %o2, 9, %o3
40501484:	80 a2 e0 00 	cmp  %o3, 0
40501488:	22 80 00 17 	be,a   405014e4 <_malloc_r+0x220>
4050148c:	96 17 22 e0 	or  %i4, 0x2e0, %o3
40501490:	83 32 a0 06 	srl  %o2, 6, %g1
40501494:	80 a2 e0 04 	cmp  %o3, 4
40501498:	08 80 00 12 	bleu  405014e0 <_malloc_r+0x21c>
4050149c:	9a 00 60 38 	add  %g1, 0x38, %o5
405014a0:	80 a2 e0 14 	cmp  %o3, 0x14
405014a4:	08 80 00 0f 	bleu  405014e0 <_malloc_r+0x21c>
405014a8:	9a 02 e0 5b 	add  %o3, 0x5b, %o5
405014ac:	83 32 a0 0c 	srl  %o2, 0xc, %g1
405014b0:	80 a2 e0 54 	cmp  %o3, 0x54
405014b4:	08 80 00 0b 	bleu  405014e0 <_malloc_r+0x21c>
405014b8:	9a 00 60 6e 	add  %g1, 0x6e, %o5
405014bc:	83 32 a0 0f 	srl  %o2, 0xf, %g1
405014c0:	80 a2 e1 54 	cmp  %o3, 0x154
405014c4:	08 80 00 07 	bleu  405014e0 <_malloc_r+0x21c>
405014c8:	9a 00 60 77 	add  %g1, 0x77, %o5
405014cc:	83 32 a0 12 	srl  %o2, 0x12, %g1
405014d0:	80 a2 e5 54 	cmp  %o3, 0x554
405014d4:	08 80 00 03 	bleu  405014e0 <_malloc_r+0x21c>
405014d8:	9a 00 60 7c 	add  %g1, 0x7c, %o5
405014dc:	9a 10 20 7e 	mov  0x7e, %o5
405014e0:	96 17 22 e0 	or  %i4, 0x2e0, %o3
405014e4:	83 2b 60 03 	sll  %o5, 3, %g1
405014e8:	90 00 40 0b 	add  %g1, %o3, %o0
405014ec:	d2 02 20 08 	ld  [ %o0 + 8 ], %o1
405014f0:	80 a2 40 08 	cmp  %o1, %o0
405014f4:	22 80 01 0f 	be,a   40501930 <_malloc_r+0x66c>
405014f8:	99 33 60 02 	srl  %o5, 2, %o4
405014fc:	c2 02 60 04 	ld  [ %o1 + 4 ], %g1
40501500:	82 08 7f fc 	and  %g1, -4, %g1
40501504:	80 a0 40 0a 	cmp  %g1, %o2
40501508:	28 80 00 07 	bleu,a   40501524 <_malloc_r+0x260>
4050150c:	d0 02 60 0c 	ld  [ %o1 + 0xc ], %o0
40501510:	d2 02 60 08 	ld  [ %o1 + 8 ], %o1
40501514:	80 a2 40 08 	cmp  %o1, %o0
40501518:	32 bf ff fa 	bne,a   40501500 <_malloc_r+0x23c>
4050151c:	c2 02 60 04 	ld  [ %o1 + 4 ], %g1
40501520:	d0 02 60 0c 	ld  [ %o1 + 0xc ], %o0
40501524:	d0 26 20 0c 	st  %o0, [ %i0 + 0xc ]
40501528:	d2 26 20 08 	st  %o1, [ %i0 + 8 ]
4050152c:	f0 22 60 0c 	st  %i0, [ %o1 + 0xc ]
40501530:	f0 22 20 08 	st  %i0, [ %o0 + 8 ]
40501534:	83 3b e0 1f 	sra  %o7, 0x1f, %g1
40501538:	83 30 60 1e 	srl  %g1, 0x1e, %g1
4050153c:	82 03 c0 01 	add  %o7, %g1, %g1
40501540:	39 10 14 0d 	sethi  %hi(0x40503400), %i4
40501544:	83 38 60 02 	sra  %g1, 2, %g1
40501548:	98 17 22 e0 	or  %i4, 0x2e0, %o4
4050154c:	9a 10 20 01 	mov  1, %o5
40501550:	93 2b 40 01 	sll  %o5, %g1, %o1
40501554:	d8 03 20 04 	ld  [ %o4 + 4 ], %o4
40501558:	80 a2 40 0c 	cmp  %o1, %o4
4050155c:	18 80 00 4b 	bgu  40501688 <_malloc_r+0x3c4>
40501560:	ae 17 22 e0 	or  %i4, 0x2e0, %l7
40501564:	80 8b 00 09 	btst  %o4, %o1
40501568:	12 80 00 0d 	bne  4050159c <_malloc_r+0x2d8>
4050156c:	03 10 14 0d 	sethi  %hi(0x40503400), %g1
40501570:	82 0b ff fc 	and  %o7, -4, %g1
40501574:	92 02 40 09 	add  %o1, %o1, %o1
40501578:	80 8b 00 09 	btst  %o4, %o1
4050157c:	12 80 00 07 	bne  40501598 <_malloc_r+0x2d4>
40501580:	9e 00 60 04 	add  %g1, 4, %o7
40501584:	82 10 00 0c 	mov  %o4, %g1
40501588:	92 02 40 09 	add  %o1, %o1, %o1
4050158c:	80 88 40 09 	btst  %g1, %o1
40501590:	02 bf ff fe 	be  40501588 <_malloc_r+0x2c4>
40501594:	9e 03 e0 04 	add  %o7, 4, %o7
40501598:	03 10 14 0d 	sethi  %hi(0x40503400), %g1
4050159c:	a2 10 62 e0 	or  %g1, 0x2e0, %l1	! 405036e0 <__malloc_av_>
405015a0:	a8 10 00 11 	mov  %l1, %l4
405015a4:	83 2b e0 03 	sll  %o7, 3, %g1
405015a8:	98 00 40 11 	add  %g1, %l1, %o4
405015ac:	90 10 00 0f 	mov  %o7, %o0
405015b0:	9a 10 00 0c 	mov  %o4, %o5
405015b4:	10 80 00 0a 	b  405015dc <_malloc_r+0x318>
405015b8:	f0 03 60 0c 	ld  [ %o5 + 0xc ], %i0
405015bc:	94 08 7f fc 	and  %g1, -4, %o2
405015c0:	96 22 80 10 	sub  %o2, %l0, %o3
405015c4:	80 a2 e0 0f 	cmp  %o3, 0xf
405015c8:	14 80 00 7d 	bg  405017bc <_malloc_r+0x4f8>
405015cc:	80 a2 e0 00 	cmp  %o3, 0
405015d0:	36 80 00 8b 	bge,a   405017fc <_malloc_r+0x538>
405015d4:	9a 06 00 0a 	add  %i0, %o2, %o5
405015d8:	f0 06 20 0c 	ld  [ %i0 + 0xc ], %i0
405015dc:	80 a6 00 0d 	cmp  %i0, %o5
405015e0:	32 bf ff f7 	bne,a   405015bc <_malloc_r+0x2f8>
405015e4:	c2 06 20 04 	ld  [ %i0 + 4 ], %g1
405015e8:	9e 03 e0 01 	inc  %o7
405015ec:	80 8b e0 03 	btst  3, %o7
405015f0:	12 bf ff f1 	bne  405015b4 <_malloc_r+0x2f0>
405015f4:	9a 03 60 08 	add  %o5, 8, %o5
405015f8:	80 8a 20 03 	btst  3, %o0
405015fc:	98 03 3f f8 	add  %o4, -8, %o4
40501600:	02 80 00 d4 	be  40501950 <_malloc_r+0x68c>
40501604:	90 02 3f ff 	add  %o0, -1, %o0
40501608:	c2 03 20 08 	ld  [ %o4 + 8 ], %g1
4050160c:	80 a0 40 0c 	cmp  %g1, %o4
40501610:	02 bf ff fb 	be  405015fc <_malloc_r+0x338>
40501614:	80 8a 20 03 	btst  3, %o0
40501618:	92 02 40 09 	add  %o1, %o1, %o1
4050161c:	c2 05 20 04 	ld  [ %l4 + 4 ], %g1
40501620:	80 a2 40 01 	cmp  %o1, %g1
40501624:	18 80 00 18 	bgu  40501684 <_malloc_r+0x3c0>
40501628:	39 10 14 0d 	sethi  %hi(0x40503400), %i4
4050162c:	80 a2 60 00 	cmp  %o1, 0
40501630:	12 80 00 06 	bne  40501648 <_malloc_r+0x384>
40501634:	80 88 40 09 	btst  %g1, %o1
40501638:	10 80 00 14 	b  40501688 <_malloc_r+0x3c4>
4050163c:	ae 17 22 e0 	or  %i4, 0x2e0, %l7
40501640:	9e 03 e0 04 	add  %o7, 4, %o7
40501644:	80 88 40 09 	btst  %g1, %o1
40501648:	22 bf ff fe 	be,a   40501640 <_malloc_r+0x37c>
4050164c:	92 02 40 09 	add  %o1, %o1, %o1
40501650:	10 bf ff d6 	b  405015a8 <_malloc_r+0x2e4>
40501654:	83 2b e0 03 	sll  %o7, 3, %g1
40501658:	82 14 20 01 	or  %l0, 1, %g1
4050165c:	94 06 00 10 	add  %i0, %l0, %o2
40501660:	c2 26 20 04 	st  %g1, [ %i0 + 4 ]
40501664:	d4 23 20 0c 	st  %o2, [ %o4 + 0xc ]
40501668:	d4 23 20 08 	st  %o2, [ %o4 + 8 ]
4050166c:	82 12 e0 01 	or  %o3, 1, %g1
40501670:	d6 22 80 0b 	st  %o3, [ %o2 + %o3 ]
40501674:	d8 22 a0 08 	st  %o4, [ %o2 + 8 ]
40501678:	c2 22 a0 04 	st  %g1, [ %o2 + 4 ]
4050167c:	10 bf ff 35 	b  40501350 <_malloc_r+0x8c>
40501680:	d8 22 a0 0c 	st  %o4, [ %o2 + 0xc ]
40501684:	ae 17 22 e0 	or  %i4, 0x2e0, %l7
40501688:	f0 05 e0 08 	ld  [ %l7 + 8 ], %i0
4050168c:	c2 06 20 04 	ld  [ %i0 + 4 ], %g1
40501690:	aa 08 7f fc 	and  %g1, -4, %l5
40501694:	80 a5 40 10 	cmp  %l5, %l0
40501698:	9a 40 20 00 	addx  %g0, 0, %o5
4050169c:	96 25 40 10 	sub  %l5, %l0, %o3
405016a0:	80 a2 e0 0f 	cmp  %o3, 0xf
405016a4:	14 80 00 42 	bg  405017ac <_malloc_r+0x4e8>
405016a8:	82 10 20 01 	mov  1, %g1
405016ac:	80 93 40 01 	orcc  %o5, %g1, %g0
405016b0:	02 80 00 27 	be  4050174c <_malloc_r+0x488>
405016b4:	03 10 14 0f 	sethi  %hi(0x40503c00), %g1
405016b8:	da 00 60 70 	ld  [ %g1 + 0x70 ], %o5	! 40503c70 <__malloc_top_pad>
405016bc:	2d 10 14 0d 	sethi  %hi(0x40503400), %l6
405016c0:	9a 04 00 0d 	add  %l0, %o5, %o5
405016c4:	c2 05 a2 d8 	ld  [ %l6 + 0x2d8 ], %g1
405016c8:	a8 10 00 15 	mov  %l5, %l4
405016cc:	80 a0 7f ff 	cmp  %g1, -1
405016d0:	a2 03 60 10 	add  %o5, 0x10, %l1
405016d4:	02 80 00 04 	be  405016e4 <_malloc_r+0x420>
405016d8:	a4 06 00 15 	add  %i0, %l5, %l2
405016dc:	82 04 6f ff 	add  %l1, 0xfff, %g1
405016e0:	a2 08 70 00 	and  %g1, -4096, %l1
405016e4:	90 10 00 13 	mov  %l3, %o0
405016e8:	40 00 00 c0 	call  405019e8 <_sbrk_r>
405016ec:	92 10 00 11 	mov  %l1, %o1
405016f0:	80 a2 3f ff 	cmp  %o0, -1
405016f4:	02 80 00 08 	be  40501714 <_malloc_r+0x450>
405016f8:	b2 10 00 08 	mov  %o0, %i1
405016fc:	80 a2 00 12 	cmp  %o0, %l2
40501700:	1a 80 00 46 	bcc  40501818 <_malloc_r+0x554>
40501704:	3b 10 14 0f 	sethi  %hi(0x40503c00), %i5
40501708:	80 a6 00 17 	cmp  %i0, %l7
4050170c:	22 80 00 44 	be,a   4050181c <_malloc_r+0x558>
40501710:	c2 07 60 40 	ld  [ %i5 + 0x40 ], %g1
40501714:	82 17 22 e0 	or  %i4, 0x2e0, %g1
40501718:	d8 00 60 08 	ld  [ %g1 + 8 ], %o4
4050171c:	da 03 20 04 	ld  [ %o4 + 4 ], %o5
40501720:	9a 0b 7f fc 	and  %o5, -4, %o5
40501724:	80 a3 40 10 	cmp  %o5, %l0
40501728:	98 40 20 00 	addx  %g0, 0, %o4
4050172c:	96 23 40 10 	sub  %o5, %l0, %o3
40501730:	80 a2 e0 0f 	cmp  %o3, 0xf
40501734:	04 80 00 03 	ble  40501740 <_malloc_r+0x47c>
40501738:	82 10 20 01 	mov  1, %g1
4050173c:	82 10 20 00 	clr  %g1
40501740:	80 93 00 01 	orcc  %o4, %g1, %g0
40501744:	12 80 00 98 	bne  405019a4 <_malloc_r+0x6e0>
40501748:	01 00 00 00 	nop 
4050174c:	98 17 22 e0 	or  %i4, 0x2e0, %o4
40501750:	f0 03 20 08 	ld  [ %o4 + 8 ], %i0
40501754:	82 14 20 01 	or  %l0, 1, %g1
40501758:	c2 26 20 04 	st  %g1, [ %i0 + 4 ]
4050175c:	9a 06 00 10 	add  %i0, %l0, %o5
40501760:	82 12 e0 01 	or  %o3, 1, %g1
40501764:	c2 23 60 04 	st  %g1, [ %o5 + 4 ]
40501768:	10 bf fe fa 	b  40501350 <_malloc_r+0x8c>
4050176c:	da 23 20 08 	st  %o5, [ %o4 + 8 ]
40501770:	98 03 3f f8 	add  %o4, -8, %o4
40501774:	83 2b 60 03 	sll  %o5, 3, %g1
40501778:	90 00 40 0c 	add  %g1, %o4, %o0
4050177c:	9b 33 60 02 	srl  %o5, 2, %o5
40501780:	82 10 20 01 	mov  1, %g1
40501784:	83 28 40 0d 	sll  %g1, %o5, %g1
40501788:	d2 02 20 08 	ld  [ %o0 + 8 ], %o1
4050178c:	da 03 20 04 	ld  [ %o4 + 4 ], %o5
40501790:	9a 13 40 01 	or  %o5, %g1, %o5
40501794:	d0 26 20 0c 	st  %o0, [ %i0 + 0xc ]
40501798:	d2 26 20 08 	st  %o1, [ %i0 + 8 ]
4050179c:	f0 22 60 0c 	st  %i0, [ %o1 + 0xc ]
405017a0:	da 23 20 04 	st  %o5, [ %o4 + 4 ]
405017a4:	10 bf ff 64 	b  40501534 <_malloc_r+0x270>
405017a8:	f0 22 20 08 	st  %i0, [ %o0 + 8 ]
405017ac:	10 bf ff c0 	b  405016ac <_malloc_r+0x3e8>
405017b0:	82 10 20 00 	clr  %g1
405017b4:	10 bf fe ff 	b  405013b0 <_malloc_r+0xec>
405017b8:	9e 03 ff ff 	add  %o7, -1, %o7
405017bc:	d0 06 20 0c 	ld  [ %i0 + 0xc ], %o0
405017c0:	d2 06 20 08 	ld  [ %i0 + 8 ], %o1
405017c4:	9a 14 20 01 	or  %l0, 1, %o5
405017c8:	94 06 00 10 	add  %i0, %l0, %o2
405017cc:	82 14 a2 e8 	or  %l2, 0x2e8, %g1
405017d0:	d2 22 20 08 	st  %o1, [ %o0 + 8 ]
405017d4:	d0 22 60 0c 	st  %o0, [ %o1 + 0xc ]
405017d8:	da 26 20 04 	st  %o5, [ %i0 + 4 ]
405017dc:	d4 20 60 0c 	st  %o2, [ %g1 + 0xc ]
405017e0:	d4 20 60 08 	st  %o2, [ %g1 + 8 ]
405017e4:	9a 12 e0 01 	or  %o3, 1, %o5
405017e8:	d6 22 80 0b 	st  %o3, [ %o2 + %o3 ]
405017ec:	c2 22 a0 08 	st  %g1, [ %o2 + 8 ]
405017f0:	da 22 a0 04 	st  %o5, [ %o2 + 4 ]
405017f4:	10 bf fe d7 	b  40501350 <_malloc_r+0x8c>
405017f8:	c2 22 a0 0c 	st  %g1, [ %o2 + 0xc ]
405017fc:	c2 03 60 04 	ld  [ %o5 + 4 ], %g1
40501800:	82 10 60 01 	or  %g1, 1, %g1
40501804:	d0 06 20 0c 	ld  [ %i0 + 0xc ], %o0
40501808:	d2 06 20 08 	ld  [ %i0 + 8 ], %o1
4050180c:	c2 23 60 04 	st  %g1, [ %o5 + 4 ]
40501810:	10 bf fe cf 	b  4050134c <_malloc_r+0x88>
40501814:	d2 22 20 08 	st  %o1, [ %o0 + 8 ]
40501818:	c2 07 60 40 	ld  [ %i5 + 0x40 ], %g1
4050181c:	82 00 40 11 	add  %g1, %l1, %g1
40501820:	80 a6 40 12 	cmp  %i1, %l2
40501824:	02 80 00 4f 	be  40501960 <_malloc_r+0x69c>
40501828:	c2 27 60 40 	st  %g1, [ %i5 + 0x40 ]
4050182c:	c2 05 a2 d8 	ld  [ %l6 + 0x2d8 ], %g1
40501830:	80 a0 7f ff 	cmp  %g1, -1
40501834:	02 80 00 45 	be  40501948 <_malloc_r+0x684>
40501838:	c2 07 60 40 	ld  [ %i5 + 0x40 ], %g1
4050183c:	9a 26 40 12 	sub  %i1, %l2, %o5
40501840:	82 00 40 0d 	add  %g1, %o5, %g1
40501844:	c2 27 60 40 	st  %g1, [ %i5 + 0x40 ]
40501848:	9a 8e 60 07 	andcc  %i1, 7, %o5
4050184c:	02 80 00 05 	be  40501860 <_malloc_r+0x59c>
40501850:	a4 10 20 00 	clr  %l2
40501854:	82 10 20 08 	mov  8, %g1
40501858:	a4 20 40 0d 	sub  %g1, %o5, %l2
4050185c:	b2 06 40 12 	add  %i1, %l2, %i1
40501860:	9a 06 40 11 	add  %i1, %l1, %o5
40501864:	9a 0b 6f ff 	and  %o5, 0xfff, %o5
40501868:	03 00 00 04 	sethi  %hi(0x1000), %g1
4050186c:	82 20 40 0d 	sub  %g1, %o5, %g1
40501870:	a4 04 80 01 	add  %l2, %g1, %l2
40501874:	90 10 00 13 	mov  %l3, %o0
40501878:	40 00 00 5c 	call  405019e8 <_sbrk_r>
4050187c:	92 10 00 12 	mov  %l2, %o1
40501880:	80 a2 3f ff 	cmp  %o0, -1
40501884:	22 80 00 3f 	be,a   40501980 <_malloc_r+0x6bc>
40501888:	a4 10 20 00 	clr  %l2
4050188c:	82 22 00 19 	sub  %o0, %i1, %g1
40501890:	90 00 40 12 	add  %g1, %l2, %o0
40501894:	82 17 22 e0 	or  %i4, 0x2e0, %g1
40501898:	da 07 60 40 	ld  [ %i5 + 0x40 ], %o5
4050189c:	9a 03 40 12 	add  %o5, %l2, %o5
405018a0:	80 a6 00 01 	cmp  %i0, %g1
405018a4:	f2 20 60 08 	st  %i1, [ %g1 + 8 ]
405018a8:	da 27 60 40 	st  %o5, [ %i5 + 0x40 ]
405018ac:	02 80 00 37 	be  40501988 <_malloc_r+0x6c4>
405018b0:	82 12 20 01 	or  %o0, 1, %g1
405018b4:	80 a5 60 0f 	cmp  %l5, 0xf
405018b8:	38 80 00 05 	bgu,a   405018cc <_malloc_r+0x608>
405018bc:	c2 26 60 04 	st  %g1, [ %i1 + 4 ]
405018c0:	82 10 20 01 	mov  1, %g1
405018c4:	10 bf ff 94 	b  40501714 <_malloc_r+0x450>
405018c8:	c2 26 60 04 	st  %g1, [ %i1 + 4 ]
405018cc:	c2 06 20 04 	ld  [ %i0 + 4 ], %g1
405018d0:	9a 05 7f f4 	add  %l5, -12, %o5
405018d4:	a8 0b 7f f8 	and  %o5, -8, %l4
405018d8:	82 08 60 01 	and  %g1, 1, %g1
405018dc:	82 10 40 14 	or  %g1, %l4, %g1
405018e0:	c2 26 20 04 	st  %g1, [ %i0 + 4 ]
405018e4:	9a 06 00 14 	add  %i0, %l4, %o5
405018e8:	82 10 20 05 	mov  5, %g1
405018ec:	c2 23 60 08 	st  %g1, [ %o5 + 8 ]
405018f0:	80 a5 20 0f 	cmp  %l4, 0xf
405018f4:	18 80 00 27 	bgu  40501990 <_malloc_r+0x6cc>
405018f8:	c2 23 60 04 	st  %g1, [ %o5 + 4 ]
405018fc:	19 10 14 0f 	sethi  %hi(0x40503c00), %o4
40501900:	da 07 60 40 	ld  [ %i5 + 0x40 ], %o5
40501904:	c2 03 20 6c 	ld  [ %o4 + 0x6c ], %g1
40501908:	80 a3 40 01 	cmp  %o5, %g1
4050190c:	38 80 00 02 	bgu,a   40501914 <_malloc_r+0x650>
40501910:	da 23 20 6c 	st  %o5, [ %o4 + 0x6c ]
40501914:	19 10 14 0f 	sethi  %hi(0x40503c00), %o4
40501918:	c2 03 20 68 	ld  [ %o4 + 0x68 ], %g1	! 40503c68 <__malloc_max_total_mem>
4050191c:	80 a3 40 01 	cmp  %o5, %g1
40501920:	38 bf ff 7d 	bgu,a   40501714 <_malloc_r+0x450>
40501924:	da 23 20 68 	st  %o5, [ %o4 + 0x68 ]
40501928:	10 bf ff 7c 	b  40501718 <_malloc_r+0x454>
4050192c:	82 17 22 e0 	or  %i4, 0x2e0, %g1
40501930:	9a 10 20 01 	mov  1, %o5
40501934:	c2 02 e0 04 	ld  [ %o3 + 4 ], %g1
40501938:	9b 2b 40 0c 	sll  %o5, %o4, %o5
4050193c:	82 10 40 0d 	or  %g1, %o5, %g1
40501940:	10 bf fe f9 	b  40501524 <_malloc_r+0x260>
40501944:	c2 22 e0 04 	st  %g1, [ %o3 + 4 ]
40501948:	10 bf ff c0 	b  40501848 <_malloc_r+0x584>
4050194c:	f2 25 a2 d8 	st  %i1, [ %l6 + 0x2d8 ]
40501950:	c2 04 60 04 	ld  [ %l1 + 4 ], %g1
40501954:	82 28 40 09 	andn  %g1, %o1, %g1
40501958:	10 bf ff 30 	b  40501618 <_malloc_r+0x354>
4050195c:	c2 24 60 04 	st  %g1, [ %l1 + 4 ]
40501960:	80 8e 6f ff 	btst  0xfff, %i1
40501964:	12 bf ff b3 	bne  40501830 <_malloc_r+0x56c>
40501968:	c2 05 a2 d8 	ld  [ %l6 + 0x2d8 ], %g1
4050196c:	90 04 40 14 	add  %l1, %l4, %o0
40501970:	da 05 e0 08 	ld  [ %l7 + 8 ], %o5
40501974:	82 12 20 01 	or  %o0, 1, %g1
40501978:	10 bf ff e1 	b  405018fc <_malloc_r+0x638>
4050197c:	c2 23 60 04 	st  %g1, [ %o5 + 4 ]
40501980:	10 bf ff c3 	b  4050188c <_malloc_r+0x5c8>
40501984:	90 10 00 19 	mov  %i1, %o0
40501988:	10 bf ff dd 	b  405018fc <_malloc_r+0x638>
4050198c:	c2 26 60 04 	st  %g1, [ %i1 + 4 ]
40501990:	92 06 20 08 	add  %i0, 8, %o1
40501994:	40 00 00 62 	call  40501b1c <_free_r>
40501998:	90 10 00 13 	mov  %l3, %o0
4050199c:	10 bf ff d9 	b  40501900 <_malloc_r+0x63c>
405019a0:	19 10 14 0f 	sethi  %hi(0x40503c00), %o4
405019a4:	40 00 00 0b 	call  405019d0 <__malloc_unlock>
405019a8:	90 10 00 13 	mov  %l3, %o0
405019ac:	b0 10 20 00 	clr  %i0
405019b0:	81 c7 e0 08 	ret 
405019b4:	81 e8 00 00 	restore 

405019b8 <__malloc_lock>:
405019b8:	11 10 14 0e 	sethi  %hi(0x40503800), %o0
405019bc:	90 12 22 e8 	or  %o0, 0x2e8, %o0	! 40503ae8 <__malloc_lock_object>
405019c0:	82 13 c0 00 	mov  %o7, %g1
405019c4:	40 00 03 fa 	call  405029ac <___st_pthread_mutex_lock>
405019c8:	9e 10 40 00 	mov  %g1, %o7
405019cc:	01 00 00 00 	nop 

405019d0 <__malloc_unlock>:
405019d0:	11 10 14 0e 	sethi  %hi(0x40503800), %o0
405019d4:	90 12 22 e8 	or  %o0, 0x2e8, %o0	! 40503ae8 <__malloc_lock_object>
405019d8:	82 13 c0 00 	mov  %o7, %g1
405019dc:	40 00 04 0c 	call  40502a0c <___st_pthread_mutex_unlock>
405019e0:	9e 10 40 00 	mov  %g1, %o7
405019e4:	01 00 00 00 	nop 

405019e8 <_sbrk_r>:
405019e8:	9d e3 bf 98 	save  %sp, -104, %sp
405019ec:	21 10 14 0f 	sethi  %hi(0x40503c00), %l0
405019f0:	c0 24 23 1c 	clr  [ %l0 + 0x31c ]	! 40503f1c <errno>
405019f4:	40 00 02 45 	call  40502308 <sbrk>
405019f8:	90 10 00 19 	mov  %i1, %o0
405019fc:	80 a2 3f ff 	cmp  %o0, -1
40501a00:	12 80 00 06 	bne  40501a18 <_sbrk_r+0x30>
40501a04:	c2 04 23 1c 	ld  [ %l0 + 0x31c ], %g1
40501a08:	80 a0 60 00 	cmp  %g1, 0
40501a0c:	02 80 00 03 	be  40501a18 <_sbrk_r+0x30>
40501a10:	01 00 00 00 	nop 
40501a14:	c2 26 00 00 	st  %g1, [ %i0 ]
40501a18:	81 c7 e0 08 	ret 
40501a1c:	91 e8 00 08 	restore  %g0, %o0, %o0

40501a20 <_malloc_trim_r>:
40501a20:	9d e3 bf 98 	save  %sp, -104, %sp
40501a24:	7f ff ff e5 	call  405019b8 <__malloc_lock>
40501a28:	90 10 00 18 	mov  %i0, %o0
40501a2c:	03 10 14 0d 	sethi  %hi(0x40503400), %g1
40501a30:	a2 10 62 e0 	or  %g1, 0x2e0, %l1	! 405036e0 <__malloc_av_>
40501a34:	da 04 60 08 	ld  [ %l1 + 8 ], %o5
40501a38:	c2 03 60 04 	ld  [ %o5 + 4 ], %g1
40501a3c:	a0 08 7f fc 	and  %g1, -4, %l0
40501a40:	b2 24 00 19 	sub  %l0, %i1, %i1
40501a44:	b2 06 6f ef 	add  %i1, 0xfef, %i1
40501a48:	b2 0e 70 00 	and  %i1, -4096, %i1
40501a4c:	b2 06 70 00 	add  %i1, -4096, %i1
40501a50:	92 10 20 00 	clr  %o1
40501a54:	80 a6 6f ff 	cmp  %i1, 0xfff
40501a58:	04 80 00 0a 	ble  40501a80 <_malloc_trim_r+0x60>
40501a5c:	90 10 00 18 	mov  %i0, %o0
40501a60:	7f ff ff e2 	call  405019e8 <_sbrk_r>
40501a64:	01 00 00 00 	nop 
40501a68:	c2 04 60 08 	ld  [ %l1 + 8 ], %g1
40501a6c:	82 00 40 10 	add  %g1, %l0, %g1
40501a70:	80 a0 40 08 	cmp  %g1, %o0
40501a74:	92 20 00 19 	neg  %i1, %o1
40501a78:	02 80 00 05 	be  40501a8c <_malloc_trim_r+0x6c>
40501a7c:	90 10 00 18 	mov  %i0, %o0
40501a80:	7f ff ff d4 	call  405019d0 <__malloc_unlock>
40501a84:	b0 10 20 00 	clr  %i0
40501a88:	30 80 00 23 	b,a   40501b14 <_malloc_trim_r+0xf4>
40501a8c:	7f ff ff d7 	call  405019e8 <_sbrk_r>
40501a90:	90 10 00 18 	mov  %i0, %o0
40501a94:	82 24 00 19 	sub  %l0, %i1, %g1
40501a98:	80 a2 3f ff 	cmp  %o0, -1
40501a9c:	82 10 60 01 	or  %g1, 1, %g1
40501aa0:	92 10 20 00 	clr  %o1
40501aa4:	19 10 14 0f 	sethi  %hi(0x40503c00), %o4
40501aa8:	02 80 00 0b 	be  40501ad4 <_malloc_trim_r+0xb4>
40501aac:	90 10 00 18 	mov  %i0, %o0
40501ab0:	da 04 60 08 	ld  [ %l1 + 8 ], %o5
40501ab4:	c2 23 60 04 	st  %g1, [ %o5 + 4 ]
40501ab8:	c2 03 20 40 	ld  [ %o4 + 0x40 ], %g1
40501abc:	82 20 40 19 	sub  %g1, %i1, %g1
40501ac0:	90 10 00 18 	mov  %i0, %o0
40501ac4:	7f ff ff c3 	call  405019d0 <__malloc_unlock>
40501ac8:	c2 23 20 40 	st  %g1, [ %o4 + 0x40 ]
40501acc:	10 80 00 12 	b  40501b14 <_malloc_trim_r+0xf4>
40501ad0:	b0 10 20 01 	mov  1, %i0
40501ad4:	7f ff ff c5 	call  405019e8 <_sbrk_r>
40501ad8:	01 00 00 00 	nop 
40501adc:	98 10 00 08 	mov  %o0, %o4
40501ae0:	d6 04 60 08 	ld  [ %l1 + 8 ], %o3
40501ae4:	a0 23 00 0b 	sub  %o4, %o3, %l0
40501ae8:	90 10 00 18 	mov  %i0, %o0
40501aec:	80 a4 20 0f 	cmp  %l0, 0xf
40501af0:	04 bf ff e4 	ble  40501a80 <_malloc_trim_r+0x60>
40501af4:	b2 14 20 01 	or  %l0, 1, %i1
40501af8:	03 10 14 0d 	sethi  %hi(0x40503400), %g1
40501afc:	da 00 62 d8 	ld  [ %g1 + 0x2d8 ], %o5	! 405036d8 <__malloc_sbrk_base>
40501b00:	9a 23 00 0d 	sub  %o4, %o5, %o5
40501b04:	03 10 14 0f 	sethi  %hi(0x40503c00), %g1
40501b08:	da 20 60 40 	st  %o5, [ %g1 + 0x40 ]	! 40503c40 <__malloc_current_mallinfo>
40501b0c:	10 bf ff dd 	b  40501a80 <_malloc_trim_r+0x60>
40501b10:	f2 22 e0 04 	st  %i1, [ %o3 + 4 ]
40501b14:	81 c7 e0 08 	ret 
40501b18:	81 e8 00 00 	restore 

40501b1c <_free_r>:
40501b1c:	9d e3 bf 98 	save  %sp, -104, %sp
40501b20:	80 a6 60 00 	cmp  %i1, 0
40501b24:	02 80 00 9d 	be  40501d98 <_free_r+0x27c>
40501b28:	a4 10 00 18 	mov  %i0, %l2
40501b2c:	7f ff ff a3 	call  405019b8 <__malloc_lock>
40501b30:	90 10 00 18 	mov  %i0, %o0
40501b34:	a0 06 7f f8 	add  %i1, -8, %l0
40501b38:	d6 04 20 04 	ld  [ %l0 + 4 ], %o3
40501b3c:	90 0a ff fe 	and  %o3, -2, %o0
40501b40:	19 10 14 0d 	sethi  %hi(0x40503400), %o4
40501b44:	94 04 00 08 	add  %l0, %o0, %o2
40501b48:	a2 13 22 e0 	or  %o4, 0x2e0, %l1
40501b4c:	da 02 a0 04 	ld  [ %o2 + 4 ], %o5
40501b50:	c2 04 60 08 	ld  [ %l1 + 8 ], %g1
40501b54:	80 a0 40 0a 	cmp  %g1, %o2
40501b58:	02 80 00 44 	be  40501c68 <_free_r+0x14c>
40501b5c:	9e 0b 7f fc 	and  %o5, -4, %o7
40501b60:	80 8a e0 01 	btst  1, %o3
40501b64:	de 22 a0 04 	st  %o7, [ %o2 + 4 ]
40501b68:	12 80 00 0c 	bne  40501b98 <_free_r+0x7c>
40501b6c:	b0 10 20 00 	clr  %i0
40501b70:	f2 06 7f f8 	ld  [ %i1 + -8 ], %i1
40501b74:	a0 24 00 19 	sub  %l0, %i1, %l0
40501b78:	82 04 60 08 	add  %l1, 8, %g1
40501b7c:	da 04 20 08 	ld  [ %l0 + 8 ], %o5
40501b80:	80 a3 40 01 	cmp  %o5, %g1
40501b84:	02 80 00 7d 	be  40501d78 <_free_r+0x25c>
40501b88:	90 02 00 19 	add  %o0, %i1, %o0
40501b8c:	d2 04 20 0c 	ld  [ %l0 + 0xc ], %o1
40501b90:	da 22 60 08 	st  %o5, [ %o1 + 8 ]
40501b94:	d2 23 60 0c 	st  %o1, [ %o5 + 0xc ]
40501b98:	82 02 80 0f 	add  %o2, %o7, %g1
40501b9c:	da 00 60 04 	ld  [ %g1 + 4 ], %o5
40501ba0:	80 8b 60 01 	btst  1, %o5
40501ba4:	12 80 00 0a 	bne  40501bcc <_free_r+0xb0>
40501ba8:	82 12 20 01 	or  %o0, 1, %g1
40501bac:	80 a6 20 00 	cmp  %i0, 0
40501bb0:	02 80 00 22 	be  40501c38 <_free_r+0x11c>
40501bb4:	90 02 00 0f 	add  %o0, %o7, %o0
40501bb8:	da 02 a0 08 	ld  [ %o2 + 8 ], %o5
40501bbc:	d2 02 a0 0c 	ld  [ %o2 + 0xc ], %o1
40501bc0:	da 22 60 08 	st  %o5, [ %o1 + 8 ]
40501bc4:	d2 23 60 0c 	st  %o1, [ %o5 + 0xc ]
40501bc8:	82 12 20 01 	or  %o0, 1, %g1
40501bcc:	c2 24 20 04 	st  %g1, [ %l0 + 4 ]
40501bd0:	80 a6 20 00 	cmp  %i0, 0
40501bd4:	02 80 00 05 	be  40501be8 <_free_r+0xcc>
40501bd8:	d0 24 00 08 	st  %o0, [ %l0 + %o0 ]
40501bdc:	b0 10 00 12 	mov  %l2, %i0
40501be0:	7f ff ff 7c 	call  405019d0 <__malloc_unlock>
40501be4:	81 e8 00 00 	restore 
40501be8:	80 a2 21 ff 	cmp  %o0, 0x1ff
40501bec:	18 80 00 36 	bgu  40501cc4 <_free_r+0x1a8>
40501bf0:	97 32 20 09 	srl  %o0, 9, %o3
40501bf4:	9b 32 20 03 	srl  %o0, 3, %o5
40501bf8:	98 13 22 e0 	or  %o4, 0x2e0, %o4
40501bfc:	83 2b 60 03 	sll  %o5, 3, %g1
40501c00:	92 00 40 0c 	add  %g1, %o4, %o1
40501c04:	9b 33 60 02 	srl  %o5, 2, %o5
40501c08:	82 10 20 01 	mov  1, %g1
40501c0c:	83 28 40 0d 	sll  %g1, %o5, %g1
40501c10:	d6 02 60 08 	ld  [ %o1 + 8 ], %o3
40501c14:	da 03 20 04 	ld  [ %o4 + 4 ], %o5
40501c18:	9a 13 40 01 	or  %o5, %g1, %o5
40501c1c:	d2 24 20 0c 	st  %o1, [ %l0 + 0xc ]
40501c20:	d6 24 20 08 	st  %o3, [ %l0 + 8 ]
40501c24:	e0 22 e0 0c 	st  %l0, [ %o3 + 0xc ]
40501c28:	da 23 20 04 	st  %o5, [ %o4 + 4 ]
40501c2c:	e0 22 60 08 	st  %l0, [ %o1 + 8 ]
40501c30:	10 bf ff ec 	b  40501be0 <_free_r+0xc4>
40501c34:	b0 10 00 12 	mov  %l2, %i0
40501c38:	03 10 14 0d 	sethi  %hi(0x40503400), %g1
40501c3c:	da 02 a0 08 	ld  [ %o2 + 8 ], %o5
40501c40:	82 10 62 e8 	or  %g1, 0x2e8, %g1
40501c44:	80 a3 40 01 	cmp  %o5, %g1
40501c48:	32 bf ff de 	bne,a   40501bc0 <_free_r+0xa4>
40501c4c:	d2 02 a0 0c 	ld  [ %o2 + 0xc ], %o1
40501c50:	e0 23 60 0c 	st  %l0, [ %o5 + 0xc ]
40501c54:	e0 23 60 08 	st  %l0, [ %o5 + 8 ]
40501c58:	da 24 20 08 	st  %o5, [ %l0 + 8 ]
40501c5c:	da 24 20 0c 	st  %o5, [ %l0 + 0xc ]
40501c60:	10 bf ff da 	b  40501bc8 <_free_r+0xac>
40501c64:	b0 10 20 01 	mov  1, %i0
40501c68:	80 8a e0 01 	btst  1, %o3
40501c6c:	12 80 00 09 	bne  40501c90 <_free_r+0x174>
40501c70:	90 02 00 0f 	add  %o0, %o7, %o0
40501c74:	f2 06 7f f8 	ld  [ %i1 + -8 ], %i1
40501c78:	a0 24 00 19 	sub  %l0, %i1, %l0
40501c7c:	d2 04 20 0c 	ld  [ %l0 + 0xc ], %o1
40501c80:	d6 04 20 08 	ld  [ %l0 + 8 ], %o3
40501c84:	d6 22 60 08 	st  %o3, [ %o1 + 8 ]
40501c88:	90 02 00 19 	add  %o0, %i1, %o0
40501c8c:	d2 22 e0 0c 	st  %o1, [ %o3 + 0xc ]
40501c90:	03 10 14 0d 	sethi  %hi(0x40503400), %g1
40501c94:	da 00 62 dc 	ld  [ %g1 + 0x2dc ], %o5	! 405036dc <__malloc_trim_threshold>
40501c98:	98 12 20 01 	or  %o0, 1, %o4
40501c9c:	e0 24 60 08 	st  %l0, [ %l1 + 8 ]
40501ca0:	80 a2 00 0d 	cmp  %o0, %o5
40501ca4:	0a bf ff cf 	bcs  40501be0 <_free_r+0xc4>
40501ca8:	d8 24 20 04 	st  %o4, [ %l0 + 4 ]
40501cac:	03 10 14 0f 	sethi  %hi(0x40503c00), %g1
40501cb0:	d2 00 60 70 	ld  [ %g1 + 0x70 ], %o1	! 40503c70 <__malloc_top_pad>
40501cb4:	7f ff ff 5b 	call  40501a20 <_malloc_trim_r>
40501cb8:	90 10 00 12 	mov  %l2, %o0
40501cbc:	7f ff ff 45 	call  405019d0 <__malloc_unlock>
40501cc0:	81 e8 00 00 	restore 
40501cc4:	80 a2 e0 00 	cmp  %o3, 0
40501cc8:	02 80 00 16 	be  40501d20 <_free_r+0x204>
40501ccc:	9b 32 20 03 	srl  %o0, 3, %o5
40501cd0:	83 32 20 06 	srl  %o0, 6, %g1
40501cd4:	80 a2 e0 04 	cmp  %o3, 4
40501cd8:	08 80 00 12 	bleu  40501d20 <_free_r+0x204>
40501cdc:	9a 00 60 38 	add  %g1, 0x38, %o5
40501ce0:	80 a2 e0 14 	cmp  %o3, 0x14
40501ce4:	08 80 00 0f 	bleu  40501d20 <_free_r+0x204>
40501ce8:	9a 02 e0 5b 	add  %o3, 0x5b, %o5
40501cec:	83 32 20 0c 	srl  %o0, 0xc, %g1
40501cf0:	80 a2 e0 54 	cmp  %o3, 0x54
40501cf4:	08 80 00 0b 	bleu  40501d20 <_free_r+0x204>
40501cf8:	9a 00 60 6e 	add  %g1, 0x6e, %o5
40501cfc:	83 32 20 0f 	srl  %o0, 0xf, %g1
40501d00:	80 a2 e1 54 	cmp  %o3, 0x154
40501d04:	08 80 00 07 	bleu  40501d20 <_free_r+0x204>
40501d08:	9a 00 60 77 	add  %g1, 0x77, %o5
40501d0c:	83 32 20 12 	srl  %o0, 0x12, %g1
40501d10:	80 a2 e5 54 	cmp  %o3, 0x554
40501d14:	08 80 00 03 	bleu  40501d20 <_free_r+0x204>
40501d18:	9a 00 60 7c 	add  %g1, 0x7c, %o5
40501d1c:	9a 10 20 7e 	mov  0x7e, %o5
40501d20:	94 13 22 e0 	or  %o4, 0x2e0, %o2
40501d24:	83 2b 60 03 	sll  %o5, 3, %g1
40501d28:	92 00 40 0a 	add  %g1, %o2, %o1
40501d2c:	d6 02 60 08 	ld  [ %o1 + 8 ], %o3
40501d30:	80 a2 c0 09 	cmp  %o3, %o1
40501d34:	02 80 00 13 	be  40501d80 <_free_r+0x264>
40501d38:	99 33 60 02 	srl  %o5, 2, %o4
40501d3c:	c2 02 e0 04 	ld  [ %o3 + 4 ], %g1
40501d40:	82 08 7f fc 	and  %g1, -4, %g1
40501d44:	80 a0 40 08 	cmp  %g1, %o0
40501d48:	28 80 00 07 	bleu,a   40501d64 <_free_r+0x248>
40501d4c:	d2 02 e0 0c 	ld  [ %o3 + 0xc ], %o1
40501d50:	d6 02 e0 08 	ld  [ %o3 + 8 ], %o3
40501d54:	80 a2 c0 09 	cmp  %o3, %o1
40501d58:	32 bf ff fa 	bne,a   40501d40 <_free_r+0x224>
40501d5c:	c2 02 e0 04 	ld  [ %o3 + 4 ], %g1
40501d60:	d2 02 e0 0c 	ld  [ %o3 + 0xc ], %o1
40501d64:	d2 24 20 0c 	st  %o1, [ %l0 + 0xc ]
40501d68:	d6 24 20 08 	st  %o3, [ %l0 + 8 ]
40501d6c:	e0 22 e0 0c 	st  %l0, [ %o3 + 0xc ]
40501d70:	10 bf ff b0 	b  40501c30 <_free_r+0x114>
40501d74:	e0 22 60 08 	st  %l0, [ %o1 + 8 ]
40501d78:	10 bf ff 88 	b  40501b98 <_free_r+0x7c>
40501d7c:	b0 10 20 01 	mov  1, %i0
40501d80:	9a 10 20 01 	mov  1, %o5
40501d84:	c2 02 a0 04 	ld  [ %o2 + 4 ], %g1
40501d88:	9b 2b 40 0c 	sll  %o5, %o4, %o5
40501d8c:	82 10 40 0d 	or  %g1, %o5, %g1
40501d90:	10 bf ff f5 	b  40501d64 <_free_r+0x248>
40501d94:	c2 22 a0 04 	st  %g1, [ %o2 + 4 ]
40501d98:	81 c7 e0 08 	ret 
40501d9c:	81 e8 00 00 	restore 

40501da0 <cleanup_glue>:
40501da0:	9d e3 bf 98 	save  %sp, -104, %sp
40501da4:	d2 06 40 00 	ld  [ %i1 ], %o1
40501da8:	80 a2 60 00 	cmp  %o1, 0
40501dac:	12 80 00 04 	bne  40501dbc <cleanup_glue+0x1c>
40501db0:	90 10 00 18 	mov  %i0, %o0
40501db4:	7f ff ff 5a 	call  40501b1c <_free_r>
40501db8:	81 e8 00 00 	restore 
40501dbc:	7f ff ff f9 	call  40501da0 <cleanup_glue>
40501dc0:	01 00 00 00 	nop 
40501dc4:	7f ff ff 56 	call  40501b1c <_free_r>
40501dc8:	81 e8 00 00 	restore 
40501dcc:	01 00 00 00 	nop 

40501dd0 <_reclaim_reent>:
40501dd0:	9d e3 bf 98 	save  %sp, -104, %sp
40501dd4:	03 10 14 0d 	sethi  %hi(0x40503400), %g1
40501dd8:	da 00 62 d0 	ld  [ %g1 + 0x2d0 ], %o5	! 405036d0 <_impure_ptr>
40501ddc:	80 a6 00 0d 	cmp  %i0, %o5
40501de0:	02 80 00 3f 	be  40501edc <_reclaim_reent+0x10c>
40501de4:	01 00 00 00 	nop 
40501de8:	d2 06 20 4c 	ld  [ %i0 + 0x4c ], %o1
40501dec:	80 a2 60 00 	cmp  %o1, 0
40501df0:	12 80 00 20 	bne  40501e70 <_reclaim_reent+0xa0>
40501df4:	a0 10 20 00 	clr  %l0
40501df8:	d2 06 21 48 	ld  [ %i0 + 0x148 ], %o1
40501dfc:	80 a2 60 00 	cmp  %o1, 0
40501e00:	22 80 00 0f 	be,a   40501e3c <_reclaim_reent+0x6c>
40501e04:	d2 06 20 54 	ld  [ %i0 + 0x54 ], %o1
40501e08:	a0 06 21 4c 	add  %i0, 0x14c, %l0
40501e0c:	80 a2 40 10 	cmp  %o1, %l0
40501e10:	22 80 00 0b 	be,a   40501e3c <_reclaim_reent+0x6c>
40501e14:	d2 06 20 54 	ld  [ %i0 + 0x54 ], %o1
40501e18:	10 80 00 05 	b  40501e2c <_reclaim_reent+0x5c>
40501e1c:	b2 10 00 09 	mov  %o1, %i1
40501e20:	f2 06 40 00 	ld  [ %i1 ], %i1
40501e24:	7f ff ff 3e 	call  40501b1c <_free_r>
40501e28:	90 10 00 18 	mov  %i0, %o0
40501e2c:	80 a4 00 19 	cmp  %l0, %i1
40501e30:	12 bf ff fc 	bne  40501e20 <_reclaim_reent+0x50>
40501e34:	92 10 00 19 	mov  %i1, %o1
40501e38:	d2 06 20 54 	ld  [ %i0 + 0x54 ], %o1
40501e3c:	80 a2 60 00 	cmp  %o1, 0
40501e40:	12 80 00 1f 	bne  40501ebc <_reclaim_reent+0xec>
40501e44:	01 00 00 00 	nop 
40501e48:	c2 06 20 38 	ld  [ %i0 + 0x38 ], %g1
40501e4c:	80 a0 60 00 	cmp  %g1, 0
40501e50:	02 80 00 23 	be  40501edc <_reclaim_reent+0x10c>
40501e54:	01 00 00 00 	nop 
40501e58:	10 80 00 11 	b  40501e9c <_reclaim_reent+0xcc>
40501e5c:	c2 06 20 3c 	ld  [ %i0 + 0x3c ], %g1
40501e60:	80 a4 20 0e 	cmp  %l0, 0xe
40501e64:	34 80 00 1a 	bg,a   40501ecc <_reclaim_reent+0xfc>
40501e68:	90 10 00 18 	mov  %i0, %o0
40501e6c:	d2 06 20 4c 	ld  [ %i0 + 0x4c ], %o1
40501e70:	83 2c 20 02 	sll  %l0, 2, %g1
40501e74:	10 80 00 05 	b  40501e88 <_reclaim_reent+0xb8>
40501e78:	f2 02 40 01 	ld  [ %o1 + %g1 ], %i1
40501e7c:	f2 06 40 00 	ld  [ %i1 ], %i1
40501e80:	7f ff ff 27 	call  40501b1c <_free_r>
40501e84:	90 10 00 18 	mov  %i0, %o0
40501e88:	80 a6 60 00 	cmp  %i1, 0
40501e8c:	12 bf ff fc 	bne  40501e7c <_reclaim_reent+0xac>
40501e90:	92 10 00 19 	mov  %i1, %o1
40501e94:	10 bf ff f3 	b  40501e60 <_reclaim_reent+0x90>
40501e98:	a0 04 20 01 	inc  %l0
40501e9c:	9f c0 40 00 	call  %g1
40501ea0:	90 10 00 18 	mov  %i0, %o0
40501ea4:	f2 06 22 e0 	ld  [ %i0 + 0x2e0 ], %i1
40501ea8:	80 a6 60 00 	cmp  %i1, 0
40501eac:	02 80 00 0c 	be  40501edc <_reclaim_reent+0x10c>
40501eb0:	01 00 00 00 	nop 
40501eb4:	7f ff ff bb 	call  40501da0 <cleanup_glue>
40501eb8:	81 e8 00 00 	restore 
40501ebc:	7f ff ff 18 	call  40501b1c <_free_r>
40501ec0:	90 10 00 18 	mov  %i0, %o0
40501ec4:	10 bf ff e2 	b  40501e4c <_reclaim_reent+0x7c>
40501ec8:	c2 06 20 38 	ld  [ %i0 + 0x38 ], %g1
40501ecc:	7f ff ff 14 	call  40501b1c <_free_r>
40501ed0:	d2 06 20 4c 	ld  [ %i0 + 0x4c ], %o1
40501ed4:	10 bf ff ca 	b  40501dfc <_reclaim_reent+0x2c>
40501ed8:	d2 06 21 48 	ld  [ %i0 + 0x148 ], %o1
40501edc:	81 c7 e0 08 	ret 
40501ee0:	81 e8 00 00 	restore 

40501ee4 <_wrapup_reent>:
40501ee4:	9d e3 bf 98 	save  %sp, -104, %sp
40501ee8:	80 a6 20 00 	cmp  %i0, 0
40501eec:	02 80 00 1d 	be  40501f60 <_wrapup_reent+0x7c>
40501ef0:	03 10 14 0d 	sethi  %hi(0x40503400), %g1
40501ef4:	e4 06 21 48 	ld  [ %i0 + 0x148 ], %l2
40501ef8:	80 a4 a0 00 	cmp  %l2, 0
40501efc:	22 80 00 13 	be,a   40501f48 <_wrapup_reent+0x64>
40501f00:	c2 06 20 3c 	ld  [ %i0 + 0x3c ], %g1
40501f04:	e2 04 a0 04 	ld  [ %l2 + 4 ], %l1
40501f08:	a2 84 7f ff 	addcc  %l1, -1, %l1
40501f0c:	0c 80 00 0a 	bneg  40501f34 <_wrapup_reent+0x50>
40501f10:	83 2c 60 02 	sll  %l1, 2, %g1
40501f14:	82 00 40 12 	add  %g1, %l2, %g1
40501f18:	a0 00 60 08 	add  %g1, 8, %l0
40501f1c:	c2 04 00 00 	ld  [ %l0 ], %g1
40501f20:	9f c0 40 00 	call  %g1
40501f24:	a0 04 3f fc 	add  %l0, -4, %l0
40501f28:	a2 84 7f ff 	addcc  %l1, -1, %l1
40501f2c:	3c bf ff fd 	bpos,a   40501f20 <_wrapup_reent+0x3c>
40501f30:	c2 04 00 00 	ld  [ %l0 ], %g1
40501f34:	e4 04 80 00 	ld  [ %l2 ], %l2
40501f38:	80 a4 a0 00 	cmp  %l2, 0
40501f3c:	32 bf ff f3 	bne,a   40501f08 <_wrapup_reent+0x24>
40501f40:	e2 04 a0 04 	ld  [ %l2 + 4 ], %l1
40501f44:	c2 06 20 3c 	ld  [ %i0 + 0x3c ], %g1
40501f48:	80 a0 60 00 	cmp  %g1, 0
40501f4c:	02 80 00 07 	be  40501f68 <_wrapup_reent+0x84>
40501f50:	01 00 00 00 	nop 
40501f54:	9f c0 40 00 	call  %g1
40501f58:	90 10 00 18 	mov  %i0, %o0
40501f5c:	30 80 00 03 	b,a   40501f68 <_wrapup_reent+0x84>
40501f60:	10 bf ff e5 	b  40501ef4 <_wrapup_reent+0x10>
40501f64:	f0 00 62 d0 	ld  [ %g1 + 0x2d0 ], %i0
40501f68:	81 c7 e0 08 	ret 
40501f6c:	81 e8 00 00 	restore 

40501f70 <.umul>:
40501f70:	98 12 00 09 	or  %o0, %o1, %o4
40501f74:	81 82 00 00 	mov  %o0, %y
40501f78:	9a ab 2f ff 	andncc  %o4, 0xfff, %o5
40501f7c:	02 80 00 25 	be  40502010 <mul_shortway>
40501f80:	98 88 00 00 	andcc  %g0, %g0, %o4
40501f84:	99 23 00 09 	mulscc  %o4, %o1, %o4
40501f88:	99 23 00 09 	mulscc  %o4, %o1, %o4
40501f8c:	99 23 00 09 	mulscc  %o4, %o1, %o4
40501f90:	99 23 00 09 	mulscc  %o4, %o1, %o4
40501f94:	99 23 00 09 	mulscc  %o4, %o1, %o4
40501f98:	99 23 00 09 	mulscc  %o4, %o1, %o4
40501f9c:	99 23 00 09 	mulscc  %o4, %o1, %o4
40501fa0:	99 23 00 09 	mulscc  %o4, %o1, %o4
40501fa4:	99 23 00 09 	mulscc  %o4, %o1, %o4
40501fa8:	99 23 00 09 	mulscc  %o4, %o1, %o4
40501fac:	99 23 00 09 	mulscc  %o4, %o1, %o4
40501fb0:	99 23 00 09 	mulscc  %o4, %o1, %o4
40501fb4:	99 23 00 09 	mulscc  %o4, %o1, %o4
40501fb8:	99 23 00 09 	mulscc  %o4, %o1, %o4
40501fbc:	99 23 00 09 	mulscc  %o4, %o1, %o4
40501fc0:	99 23 00 09 	mulscc  %o4, %o1, %o4
40501fc4:	99 23 00 09 	mulscc  %o4, %o1, %o4
40501fc8:	99 23 00 09 	mulscc  %o4, %o1, %o4
40501fcc:	99 23 00 09 	mulscc  %o4, %o1, %o4
40501fd0:	99 23 00 09 	mulscc  %o4, %o1, %o4
40501fd4:	99 23 00 09 	mulscc  %o4, %o1, %o4
40501fd8:	99 23 00 09 	mulscc  %o4, %o1, %o4
40501fdc:	99 23 00 09 	mulscc  %o4, %o1, %o4
40501fe0:	99 23 00 09 	mulscc  %o4, %o1, %o4
40501fe4:	99 23 00 09 	mulscc  %o4, %o1, %o4
40501fe8:	99 23 00 09 	mulscc  %o4, %o1, %o4
40501fec:	99 23 00 09 	mulscc  %o4, %o1, %o4
40501ff0:	99 23 00 09 	mulscc  %o4, %o1, %o4
40501ff4:	99 23 00 09 	mulscc  %o4, %o1, %o4
40501ff8:	99 23 00 09 	mulscc  %o4, %o1, %o4
40501ffc:	99 23 00 09 	mulscc  %o4, %o1, %o4
40502000:	99 23 00 09 	mulscc  %o4, %o1, %o4
40502004:	99 23 00 00 	mulscc  %o4, %g0, %o4
40502008:	81 c3 e0 08 	retl 
4050200c:	91 40 00 00 	rd  %y, %o0

40502010 <mul_shortway>:
40502010:	99 23 00 09 	mulscc  %o4, %o1, %o4
40502014:	99 23 00 09 	mulscc  %o4, %o1, %o4
40502018:	99 23 00 09 	mulscc  %o4, %o1, %o4
4050201c:	99 23 00 09 	mulscc  %o4, %o1, %o4
40502020:	99 23 00 09 	mulscc  %o4, %o1, %o4
40502024:	99 23 00 09 	mulscc  %o4, %o1, %o4
40502028:	99 23 00 09 	mulscc  %o4, %o1, %o4
4050202c:	99 23 00 09 	mulscc  %o4, %o1, %o4
40502030:	99 23 00 09 	mulscc  %o4, %o1, %o4
40502034:	99 23 00 09 	mulscc  %o4, %o1, %o4
40502038:	99 23 00 09 	mulscc  %o4, %o1, %o4
4050203c:	99 23 00 09 	mulscc  %o4, %o1, %o4
40502040:	99 23 00 00 	mulscc  %o4, %g0, %o4
40502044:	9b 40 00 00 	rd  %y, %o5
40502048:	99 2b 20 0c 	sll  %o4, 0xc, %o4
4050204c:	9b 33 60 14 	srl  %o5, 0x14, %o5
40502050:	81 c3 e0 08 	retl 
40502054:	90 13 40 0c 	or  %o5, %o4, %o0

40502058 <.udiv>:
40502058:	10 80 00 0b 	b  40502084 <ready_to_divide>
4050205c:	86 10 20 00 	clr  %g3

40502060 <.div>:
40502060:	80 92 40 08 	orcc  %o1, %o0, %g0
40502064:	16 80 00 08 	bge  40502084 <ready_to_divide>
40502068:	86 1a 40 08 	xor  %o1, %o0, %g3
4050206c:	80 92 40 00 	tst  %o1
40502070:	16 80 00 04 	bge  40502080 <.div+0x20>
40502074:	80 92 00 00 	tst  %o0
40502078:	16 80 00 03 	bge  40502084 <ready_to_divide>
4050207c:	92 20 00 09 	neg  %o1
40502080:	90 20 00 08 	neg  %o0

40502084 <ready_to_divide>:
40502084:	9a 92 40 00 	orcc  %o1, %g0, %o5
40502088:	12 80 00 05 	bne  4050209c <ready_to_divide+0x18>
4050208c:	96 10 00 08 	mov  %o0, %o3
40502090:	91 d0 20 02 	ta  2
40502094:	81 c3 e0 08 	retl 
40502098:	90 10 00 00 	mov  %g0, %o0
4050209c:	80 a2 c0 0d 	cmp  %o3, %o5
405020a0:	0a 80 00 95 	bcs  405022f4 <got_result>
405020a4:	94 10 00 00 	mov  %g0, %o2
405020a8:	03 02 00 00 	sethi  %hi(0x8000000), %g1
405020ac:	80 a2 c0 01 	cmp  %o3, %g1
405020b0:	0a 80 00 28 	bcs  40502150 <not_really_big>
405020b4:	98 10 00 00 	mov  %g0, %o4
405020b8:	80 a3 40 01 	cmp  %o5, %g1
405020bc:	1a 80 00 0d 	bcc  405020f0 <not_too_big>
405020c0:	84 10 20 01 	mov  1, %g2
405020c4:	9b 2b 60 04 	sll  %o5, 4, %o5
405020c8:	10 bf ff fc 	b  405020b8 <ready_to_divide+0x34>
405020cc:	98 03 20 01 	inc  %o4
405020d0:	9a 83 40 0d 	addcc  %o5, %o5, %o5
405020d4:	1a 80 00 07 	bcc  405020f0 <not_too_big>
405020d8:	84 00 a0 01 	inc  %g2
405020dc:	83 28 60 04 	sll  %g1, 4, %g1
405020e0:	9b 33 60 01 	srl  %o5, 1, %o5
405020e4:	9a 03 40 01 	add  %o5, %g1, %o5
405020e8:	10 80 00 07 	b  40502104 <do_single_div>
405020ec:	84 20 a0 01 	dec  %g2

405020f0 <not_too_big>:
405020f0:	80 a3 40 0b 	cmp  %o5, %o3
405020f4:	0a bf ff f7 	bcs  405020d0 <ready_to_divide+0x4c>
405020f8:	01 00 00 00 	nop 
405020fc:	02 80 00 02 	be  40502104 <do_single_div>
40502100:	01 00 00 00 	nop 

40502104 <do_single_div>:
40502104:	84 a0 a0 01 	deccc  %g2
40502108:	06 80 00 76 	bl  405022e0 <end_regular_divide>
4050210c:	01 00 00 00 	nop 
40502110:	96 22 c0 0d 	sub  %o3, %o5, %o3
40502114:	94 10 20 01 	mov  1, %o2
40502118:	10 80 00 0a 	b  40502140 <end_single_divloop>
4050211c:	01 00 00 00 	nop 

40502120 <single_divloop>:
40502120:	95 2a a0 01 	sll  %o2, 1, %o2
40502124:	06 80 00 05 	bl  40502138 <single_divloop+0x18>
40502128:	9b 33 60 01 	srl  %o5, 1, %o5
4050212c:	96 22 c0 0d 	sub  %o3, %o5, %o3
40502130:	10 80 00 04 	b  40502140 <end_single_divloop>
40502134:	94 02 a0 01 	inc  %o2
40502138:	96 02 c0 0d 	add  %o3, %o5, %o3
4050213c:	94 22 a0 01 	dec  %o2

40502140 <end_single_divloop>:
40502140:	84 a0 a0 01 	deccc  %g2
40502144:	16 bf ff f7 	bge  40502120 <single_divloop>
40502148:	80 92 c0 00 	tst  %o3
4050214c:	30 80 00 65 	b,a   405022e0 <end_regular_divide>

40502150 <not_really_big>:
40502150:	9b 2b 60 04 	sll  %o5, 4, %o5
40502154:	80 a3 40 0b 	cmp  %o5, %o3
40502158:	08 bf ff fe 	bleu  40502150 <not_really_big>
4050215c:	98 83 20 01 	inccc  %o4
40502160:	02 80 00 65 	be  405022f4 <got_result>
40502164:	98 23 20 01 	dec  %o4
40502168:	80 92 c0 00 	tst  %o3

4050216c <divloop>:
4050216c:	95 2a a0 04 	sll  %o2, 4, %o2
40502170:	06 80 00 2f 	bl  4050222c <L1.16>
40502174:	9b 33 60 01 	srl  %o5, 1, %o5
40502178:	96 a2 c0 0d 	subcc  %o3, %o5, %o3
4050217c:	06 80 00 17 	bl  405021d8 <L2.17>
40502180:	9b 33 60 01 	srl  %o5, 1, %o5
40502184:	96 a2 c0 0d 	subcc  %o3, %o5, %o3
40502188:	06 80 00 0b 	bl  405021b4 <L3.19>
4050218c:	9b 33 60 01 	srl  %o5, 1, %o5
40502190:	96 a2 c0 0d 	subcc  %o3, %o5, %o3
40502194:	06 80 00 05 	bl  405021a8 <L4.23>
40502198:	9b 33 60 01 	srl  %o5, 1, %o5
4050219c:	96 a2 c0 0d 	subcc  %o3, %o5, %o3
405021a0:	10 80 00 50 	b  405022e0 <end_regular_divide>
405021a4:	94 02 a0 0f 	add  %o2, 0xf, %o2

405021a8 <L4.23>:
405021a8:	96 82 c0 0d 	addcc  %o3, %o5, %o3
405021ac:	10 80 00 4d 	b  405022e0 <end_regular_divide>
405021b0:	94 02 a0 0d 	add  %o2, 0xd, %o2

405021b4 <L3.19>:
405021b4:	96 82 c0 0d 	addcc  %o3, %o5, %o3
405021b8:	06 80 00 05 	bl  405021cc <L4.21>
405021bc:	9b 33 60 01 	srl  %o5, 1, %o5
405021c0:	96 a2 c0 0d 	subcc  %o3, %o5, %o3
405021c4:	10 80 00 47 	b  405022e0 <end_regular_divide>
405021c8:	94 02 a0 0b 	add  %o2, 0xb, %o2

405021cc <L4.21>:
405021cc:	96 82 c0 0d 	addcc  %o3, %o5, %o3
405021d0:	10 80 00 44 	b  405022e0 <end_regular_divide>
405021d4:	94 02 a0 09 	add  %o2, 9, %o2

405021d8 <L2.17>:
405021d8:	96 82 c0 0d 	addcc  %o3, %o5, %o3
405021dc:	06 80 00 0b 	bl  40502208 <L3.17>
405021e0:	9b 33 60 01 	srl  %o5, 1, %o5
405021e4:	96 a2 c0 0d 	subcc  %o3, %o5, %o3
405021e8:	06 80 00 05 	bl  405021fc <L4.19>
405021ec:	9b 33 60 01 	srl  %o5, 1, %o5
405021f0:	96 a2 c0 0d 	subcc  %o3, %o5, %o3
405021f4:	10 80 00 3b 	b  405022e0 <end_regular_divide>
405021f8:	94 02 a0 07 	add  %o2, 7, %o2

405021fc <L4.19>:
405021fc:	96 82 c0 0d 	addcc  %o3, %o5, %o3
40502200:	10 80 00 38 	b  405022e0 <end_regular_divide>
40502204:	94 02 a0 05 	add  %o2, 5, %o2

40502208 <L3.17>:
40502208:	96 82 c0 0d 	addcc  %o3, %o5, %o3
4050220c:	06 80 00 05 	bl  40502220 <L4.17>
40502210:	9b 33 60 01 	srl  %o5, 1, %o5
40502214:	96 a2 c0 0d 	subcc  %o3, %o5, %o3
40502218:	10 80 00 32 	b  405022e0 <end_regular_divide>
4050221c:	94 02 a0 03 	add  %o2, 3, %o2

40502220 <L4.17>:
40502220:	96 82 c0 0d 	addcc  %o3, %o5, %o3
40502224:	10 80 00 2f 	b  405022e0 <end_regular_divide>
40502228:	94 02 a0 01 	inc  %o2

4050222c <L1.16>:
4050222c:	96 82 c0 0d 	addcc  %o3, %o5, %o3
40502230:	06 80 00 17 	bl  4050228c <L2.15>
40502234:	9b 33 60 01 	srl  %o5, 1, %o5
40502238:	96 a2 c0 0d 	subcc  %o3, %o5, %o3
4050223c:	06 80 00 0b 	bl  40502268 <L3.15>
40502240:	9b 33 60 01 	srl  %o5, 1, %o5
40502244:	96 a2 c0 0d 	subcc  %o3, %o5, %o3
40502248:	06 80 00 05 	bl  4050225c <L4.15>
4050224c:	9b 33 60 01 	srl  %o5, 1, %o5
40502250:	96 a2 c0 0d 	subcc  %o3, %o5, %o3
40502254:	10 80 00 23 	b  405022e0 <end_regular_divide>
40502258:	94 02 bf ff 	add  %o2, -1, %o2

4050225c <L4.15>:
4050225c:	96 82 c0 0d 	addcc  %o3, %o5, %o3
40502260:	10 80 00 20 	b  405022e0 <end_regular_divide>
40502264:	94 02 bf fd 	add  %o2, -3, %o2

40502268 <L3.15>:
40502268:	96 82 c0 0d 	addcc  %o3, %o5, %o3
4050226c:	06 80 00 05 	bl  40502280 <L4.13>
40502270:	9b 33 60 01 	srl  %o5, 1, %o5
40502274:	96 a2 c0 0d 	subcc  %o3, %o5, %o3
40502278:	10 80 00 1a 	b  405022e0 <end_regular_divide>
4050227c:	94 02 bf fb 	add  %o2, -5, %o2

40502280 <L4.13>:
40502280:	96 82 c0 0d 	addcc  %o3, %o5, %o3
40502284:	10 80 00 17 	b  405022e0 <end_regular_divide>
40502288:	94 02 bf f9 	add  %o2, -7, %o2

4050228c <L2.15>:
4050228c:	96 82 c0 0d 	addcc  %o3, %o5, %o3
40502290:	06 80 00 0b 	bl  405022bc <L3.13>
40502294:	9b 33 60 01 	srl  %o5, 1, %o5
40502298:	96 a2 c0 0d 	subcc  %o3, %o5, %o3
4050229c:	06 80 00 05 	bl  405022b0 <L4.11>
405022a0:	9b 33 60 01 	srl  %o5, 1, %o5
405022a4:	96 a2 c0 0d 	subcc  %o3, %o5, %o3
405022a8:	10 80 00 0e 	b  405022e0 <end_regular_divide>
405022ac:	94 02 bf f7 	add  %o2, -9, %o2

405022b0 <L4.11>:
405022b0:	96 82 c0 0d 	addcc  %o3, %o5, %o3
405022b4:	10 80 00 0b 	b  405022e0 <end_regular_divide>
405022b8:	94 02 bf f5 	add  %o2, -11, %o2

405022bc <L3.13>:
405022bc:	96 82 c0 0d 	addcc  %o3, %o5, %o3
405022c0:	06 80 00 05 	bl  405022d4 <L4.9>
405022c4:	9b 33 60 01 	srl  %o5, 1, %o5
405022c8:	96 a2 c0 0d 	subcc  %o3, %o5, %o3
405022cc:	10 80 00 05 	b  405022e0 <end_regular_divide>
405022d0:	94 02 bf f3 	add  %o2, -13, %o2

405022d4 <L4.9>:
405022d4:	96 82 c0 0d 	addcc  %o3, %o5, %o3
405022d8:	10 80 00 02 	b  405022e0 <end_regular_divide>
405022dc:	94 02 bf f1 	add  %o2, -15, %o2

405022e0 <end_regular_divide>:
405022e0:	98 a3 20 01 	deccc  %o4
405022e4:	16 bf ff a2 	bge  4050216c <divloop>
405022e8:	80 92 c0 00 	tst  %o3
405022ec:	26 80 00 02 	bl,a   405022f4 <got_result>
405022f0:	94 22 a0 01 	dec  %o2

405022f4 <got_result>:
405022f4:	80 90 c0 00 	tst  %g3
405022f8:	26 80 00 02 	bl,a   40502300 <got_result+0xc>
405022fc:	94 20 00 0a 	neg  %o2
40502300:	81 c3 e0 08 	retl 
40502304:	90 10 00 0a 	mov  %o2, %o0

40502308 <sbrk>:
40502308:	19 10 14 0f 	sethi  %hi(0x40503c00), %o4
4050230c:	da 03 23 20 	ld  [ %o4 + 0x320 ], %o5	! 40503f20 <heap_ptr>
40502310:	80 a3 60 00 	cmp  %o5, 0
40502314:	12 80 00 06 	bne  4050232c <sbrk+0x24>
40502318:	82 03 40 08 	add  %o5, %o0, %g1
4050231c:	03 10 14 0f 	sethi  %hi(0x40503c00), %g1
40502320:	9a 10 63 38 	or  %g1, 0x338, %o5	! 40503f38 <__end>
40502324:	da 23 23 20 	st  %o5, [ %o4 + 0x320 ]
40502328:	82 03 40 08 	add  %o5, %o0, %g1
4050232c:	c2 23 23 20 	st  %g1, [ %o4 + 0x320 ]
40502330:	81 c3 e0 08 	retl 
40502334:	90 10 00 0d 	mov  %o5, %o0

40502338 <__window_overflow_rettseq>:
40502338:	a7 50 00 00 	rd  %wim, %l3
4050233c:	ae 10 00 01 	mov  %g1, %l7
40502340:	83 34 e0 01 	srl  %l3, 1, %g1

40502344 <__window_overflow_rettseq_ret>:
40502344:	29 10 14 0e 	sethi  %hi(0x40503800), %l4
40502348:	e8 05 23 94 	ld  [ %l4 + 0x394 ], %l4	! 40503b94 <_nwindows_min1>
4050234c:	a9 2c c0 14 	sll  %l3, %l4, %l4
40502350:	82 15 00 01 	or  %l4, %g1, %g1
40502354:	81 e0 00 00 	save 
40502358:	81 90 40 00 	mov  %g1, %wim
4050235c:	01 00 00 00 	nop 
40502360:	01 00 00 00 	nop 
40502364:	01 00 00 00 	nop 
40502368:	e0 3b a0 00 	std  %l0, [ %sp ]
4050236c:	e4 3b a0 08 	std  %l2, [ %sp + 8 ]
40502370:	e8 3b a0 10 	std  %l4, [ %sp + 0x10 ]
40502374:	ec 3b a0 18 	std  %l6, [ %sp + 0x18 ]
40502378:	f0 3b a0 20 	std  %i0, [ %sp + 0x20 ]
4050237c:	f4 3b a0 28 	std  %i2, [ %sp + 0x28 ]
40502380:	f8 3b a0 30 	std  %i4, [ %sp + 0x30 ]
40502384:	fc 3b a0 38 	std  %fp, [ %sp + 0x38 ]
40502388:	81 e8 00 00 	restore 
4050238c:	82 10 00 17 	mov  %l7, %g1
40502390:	81 c4 40 00 	jmp  %l1
40502394:	81 cc 80 00 	rett  %l2
40502398:	01 00 00 00 	nop 

4050239c <__window_overflow_slow1>:
4050239c:	01 00 00 00 	nop 
405023a0:	01 00 00 00 	nop 

405023a4 <_window_underflow>:
405023a4:	a7 50 00 00 	rd  %wim, %l3
405023a8:	a9 2c e0 01 	sll  %l3, 1, %l4
405023ac:	2b 10 14 0e 	sethi  %hi(0x40503800), %l5
405023b0:	ea 05 63 94 	ld  [ %l5 + 0x394 ], %l5	! 40503b94 <_nwindows_min1>
405023b4:	ab 34 c0 15 	srl  %l3, %l5, %l5
405023b8:	aa 15 40 14 	or  %l5, %l4, %l5
405023bc:	81 95 40 00 	mov  %l5, %wim
405023c0:	01 00 00 00 	nop 
405023c4:	01 00 00 00 	nop 
405023c8:	01 00 00 00 	nop 
405023cc:	81 e8 00 00 	restore 
405023d0:	81 e8 00 00 	restore 
405023d4:	e0 1b a0 00 	ldd  [ %sp ], %l0
405023d8:	e4 1b a0 08 	ldd  [ %sp + 8 ], %l2
405023dc:	e8 1b a0 10 	ldd  [ %sp + 0x10 ], %l4
405023e0:	ec 1b a0 18 	ldd  [ %sp + 0x18 ], %l6
405023e4:	f0 1b a0 20 	ldd  [ %sp + 0x20 ], %i0
405023e8:	f4 1b a0 28 	ldd  [ %sp + 0x28 ], %i2
405023ec:	f8 1b a0 30 	ldd  [ %sp + 0x30 ], %i4
405023f0:	fc 1b a0 38 	ldd  [ %sp + 0x38 ], %fp
405023f4:	81 e0 00 00 	save 
405023f8:	81 e0 00 00 	save 
405023fc:	81 c4 40 00 	jmp  %l1
40502400:	81 cc 80 00 	rett  %l2

40502404 <_flush_windows_svt>:
40502404:	a7 50 00 00 	rd  %wim, %l3

40502408 <_flush_windows>:
40502408:	29 10 14 0b 	sethi  %hi(0x40502c00), %l4
4050240c:	ad c5 20 d4 	jmpl  %l4 + 0xd4, %l6	! 40502cd4 <leonbare_trapsetup>
40502410:	01 00 00 00 	nop 
40502414:	81 8c 20 20 	wr  %l0, 0x20, %psr
40502418:	01 00 00 00 	nop 
4050241c:	01 00 00 00 	nop 
40502420:	01 00 00 00 	nop 
40502424:	9d e3 bf a0 	save  %sp, -96, %sp
40502428:	9d e3 bf a0 	save  %sp, -96, %sp
4050242c:	9d e3 bf a0 	save  %sp, -96, %sp
40502430:	9d e3 bf a0 	save  %sp, -96, %sp
40502434:	9d e3 bf a0 	save  %sp, -96, %sp
40502438:	9d e3 bf a0 	save  %sp, -96, %sp
4050243c:	9d e3 bf a0 	save  %sp, -96, %sp
40502440:	81 e8 00 00 	restore 
40502444:	81 e8 00 00 	restore 
40502448:	81 e8 00 00 	restore 
4050244c:	81 e8 00 00 	restore 
40502450:	81 e8 00 00 	restore 
40502454:	81 e8 00 00 	restore 
40502458:	81 e8 00 00 	restore 
4050245c:	e2 03 a0 68 	ld  [ %sp + 0x68 ], %l1
40502460:	a4 04 60 04 	add  %l1, 4, %l2
40502464:	e2 23 a0 64 	st  %l1, [ %sp + 0x64 ]
40502468:	e4 23 a0 68 	st  %l2, [ %sp + 0x68 ]
4050246c:	10 80 02 40 	b  40502d6c <leonbare_trapreturn>
40502470:	ac 10 00 00 	mov  %g0, %l6

40502474 <_irqcall_flush_windows>:
40502474:	29 10 14 0e 	sethi  %hi(0x40503800), %l4
40502478:	a8 15 23 5c 	or  %l4, 0x35c, %l4	! 40503b5c <_lb_spillglobals>
4050247c:	c2 25 20 00 	st  %g1, [ %l4 ]
40502480:	c8 25 20 04 	st  %g4, [ %l4 + 4 ]
40502484:	e0 25 20 10 	st  %l0, [ %l4 + 0x10 ]
40502488:	e2 25 20 14 	st  %l1, [ %l4 + 0x14 ]
4050248c:	e4 25 20 18 	st  %l2, [ %l4 + 0x18 ]
40502490:	81 e8 00 00 	restore 
40502494:	83 48 00 00 	rd  %psr, %g1
40502498:	82 10 6f 00 	or  %g1, 0xf00, %g1
4050249c:	81 88 60 20 	wr  %g1, 0x20, %psr
405024a0:	01 00 00 00 	nop 
405024a4:	01 00 00 00 	nop 
405024a8:	01 00 00 00 	nop 
405024ac:	09 10 14 0e 	sethi  %hi(0x40503800), %g4
405024b0:	c8 01 23 94 	ld  [ %g4 + 0x394 ], %g4	! 40503b94 <_nwindows_min1>
405024b4:	81 e0 00 00 	save 
405024b8:	88 21 20 01 	dec  %g4
405024bc:	80 a9 20 ff 	andncc  %g4, 0xff, %g0
405024c0:	02 80 00 03 	be  405024cc <.lab1>
405024c4:	01 00 00 00 	nop 
405024c8:	01 00 00 00 	nop 

405024cc <.lab1>:
405024cc:	80 a1 00 00 	cmp  %g4, %g0
405024d0:	12 bf ff f9 	bne  405024b4 <_irqcall_flush_windows+0x40>
405024d4:	01 00 00 00 	nop 
405024d8:	09 10 14 0e 	sethi  %hi(0x40503800), %g4
405024dc:	c8 01 23 94 	ld  [ %g4 + 0x394 ], %g4	! 40503b94 <_nwindows_min1>
405024e0:	81 e8 00 00 	restore 
405024e4:	80 a9 20 ff 	andncc  %g4, 0xff, %g0
405024e8:	02 80 00 03 	be  405024f4 <.lab2>
405024ec:	01 00 00 00 	nop 
405024f0:	01 00 00 00 	nop 

405024f4 <.lab2>:
405024f4:	88 21 20 01 	dec  %g4
405024f8:	80 a1 00 00 	cmp  %g4, %g0
405024fc:	12 bf ff f9 	bne  405024e0 <.lab1+0x14>
40502500:	01 00 00 00 	nop 
40502504:	81 e0 00 00 	save 
40502508:	29 10 14 0e 	sethi  %hi(0x40503800), %l4
4050250c:	a8 15 23 5c 	or  %l4, 0x35c, %l4	! 40503b5c <_lb_spillglobals>
40502510:	c8 05 20 04 	ld  [ %l4 + 4 ], %g4
40502514:	c2 05 20 00 	ld  [ %l4 ], %g1
40502518:	e0 05 20 10 	ld  [ %l4 + 0x10 ], %l0
4050251c:	e2 05 20 14 	ld  [ %l4 + 0x14 ], %l1
40502520:	e4 05 20 18 	ld  [ %l4 + 0x18 ], %l2
40502524:	81 8c 20 00 	mov  %l0, %psr
40502528:	01 00 00 00 	nop 
4050252c:	01 00 00 00 	nop 
40502530:	01 00 00 00 	nop 
40502534:	81 c4 80 00 	jmp  %l2
40502538:	81 cc a0 04 	rett  %l2 + 4

4050253c <_irqcall_disableirq>:
4050253c:	a0 14 2f 00 	or  %l0, 0xf00, %l0
40502540:	81 8c 00 00 	mov  %l0, %psr
40502544:	01 00 00 00 	nop 
40502548:	01 00 00 00 	nop 
4050254c:	01 00 00 00 	nop 
40502550:	81 c4 80 00 	jmp  %l2
40502554:	81 cc a0 04 	rett  %l2 + 4

40502558 <_irqcall>:
40502558:	80 a6 60 02 	cmp  %i1, 2
4050255c:	12 80 00 05 	bne  40502570 <_irqcall+0x18>
40502560:	a8 14 2f 00 	or  %l0, 0xf00, %l4
40502564:	81 8d 00 00 	mov  %l4, %psr
40502568:	b0 14 20 20 	or  %l0, 0x20, %i0
4050256c:	30 80 00 1f 	b,a   405025e8 <_irqcall+0x90>
40502570:	80 a6 60 03 	cmp  %i1, 3
40502574:	12 80 00 06 	bne  4050258c <_irqcall+0x34>
40502578:	a8 0e 2f 00 	and  %i0, 0xf00, %l4
4050257c:	aa 2c 2f 00 	andn  %l0, 0xf00, %l5
40502580:	a8 15 40 14 	or  %l5, %l4, %l4
40502584:	81 8d 00 00 	mov  %l4, %psr
40502588:	30 80 00 18 	b,a   405025e8 <_irqcall+0x90>
4050258c:	80 a6 60 04 	cmp  %i1, 4
40502590:	12 80 00 08 	bne  405025b0 <_irqcall+0x58>
40502594:	a9 48 00 00 	rd  %psr, %l4
40502598:	a8 15 20 40 	or  %l4, 0x40, %l4
4050259c:	81 8d 00 00 	mov  %l4, %psr
405025a0:	01 00 00 00 	nop 
405025a4:	01 00 00 00 	nop 
405025a8:	01 00 00 00 	nop 
405025ac:	30 80 00 0f 	b,a   405025e8 <_irqcall+0x90>
405025b0:	80 a6 60 05 	cmp  %i1, 5
405025b4:	12 80 00 08 	bne  405025d4 <_irqcall+0x7c>
405025b8:	a9 48 00 00 	rd  %psr, %l4
405025bc:	a8 2d 20 40 	andn  %l4, 0x40, %l4
405025c0:	81 8d 00 00 	mov  %l4, %psr
405025c4:	01 00 00 00 	nop 
405025c8:	01 00 00 00 	nop 
405025cc:	01 00 00 00 	nop 
405025d0:	30 80 00 06 	b,a   405025e8 <_irqcall+0x90>
405025d4:	80 a6 60 06 	cmp  %i1, 6
405025d8:	12 80 00 03 	bne  405025e4 <_irqcall+0x8c>
405025dc:	01 00 00 00 	nop 
405025e0:	30 bf ff a5 	b,a   40502474 <_irqcall_flush_windows>
405025e4:	91 d0 20 00 	ta  0
405025e8:	81 c4 80 00 	jmp  %l2
405025ec:	81 cc a0 04 	rett  %l2 + 4

405025f0 <leonbare_enable_traps>:
405025f0:	92 10 20 03 	mov  3, %o1
405025f4:	81 c3 e0 08 	retl 
405025f8:	91 d0 20 02 	ta  2

405025fc <leonbare_disable_traps>:
405025fc:	92 10 20 02 	mov  2, %o1
40502600:	81 c3 e0 08 	retl 
40502604:	91 d0 20 02 	ta  2

40502608 <leonbare_flush_windows>:
40502608:	92 10 20 06 	mov  6, %o1
4050260c:	81 c3 e0 08 	retl 
40502610:	91 d0 20 02 	ta  2

40502614 <bdinit1>:
40502614:	81 c3 e0 08 	retl 
40502618:	01 00 00 00 	nop 

4050261c <bdinit2>:
4050261c:	81 c3 e0 08 	retl 
40502620:	01 00 00 00 	nop 

40502624 <prelibchook>:
40502624:	81 c3 e0 08 	retl 
40502628:	01 00 00 00 	nop 

4050262c <_leonbare_irq_entry_svt>:
4050262c:	ae 25 a0 10 	sub  %l6, 0x10, %l7
40502630:	a7 50 00 00 	rd  %wim, %l3

40502634 <leonbare_irq_entry>:
40502634:	2d 00 00 04 	sethi  %hi(0x1000), %l6
40502638:	a0 2c 00 16 	andn  %l0, %l6, %l0
4050263c:	2d 10 14 09 	sethi  %hi(0x40502400), %l6
40502640:	ac 15 a2 48 	or  %l6, 0x248, %l6	! 40502648 <leonbare_irq_entry+0x14>
40502644:	29 10 14 0b 	sethi  %hi(0x40502c00), %l4
40502648:	81 c5 22 7c 	jmp  %l4 + 0x27c	! 40502e7c <leonbare_trapsetup_fast>
4050264c:	01 00 00 00 	nop 
40502650:	11 10 14 0e 	sethi  %hi(0x40503800), %o0
40502654:	90 12 23 80 	or  %o0, 0x380, %o0	! 40503b80 <nestcount>
40502658:	d2 02 00 00 	ld  [ %o0 ], %o1
4050265c:	92 02 60 01 	inc  %o1
40502660:	d2 22 00 00 	st  %o1, [ %o0 ]
40502664:	93 2d e0 08 	sll  %l7, 8, %o1
40502668:	92 14 00 09 	or  %l0, %o1, %o1
4050266c:	11 10 14 0e 	sethi  %hi(0x40503800), %o0
40502670:	90 12 23 78 	or  %o0, 0x378, %o0	! 40503b78 <nestedirq>
40502674:	d0 02 00 00 	ld  [ %o0 ], %o0
40502678:	80 a0 00 08 	cmp  %g0, %o0
4050267c:	22 80 00 02 	be,a   40502684 <leonbare_irq_entry+0x50>
40502680:	92 12 6f 00 	or  %o1, 0xf00, %o1
40502684:	81 8a 60 20 	wr  %o1, 0x20, %psr
40502688:	01 00 00 00 	nop 
4050268c:	01 00 00 00 	nop 
40502690:	01 00 00 00 	nop 
40502694:	90 10 00 17 	mov  %l7, %o0
40502698:	40 00 00 2d 	call  4050274c <handler_irq>
4050269c:	92 03 a0 60 	add  %sp, 0x60, %o1
405026a0:	92 14 2f 00 	or  %l0, 0xf00, %o1
405026a4:	81 8a 60 20 	wr  %o1, 0x20, %psr
405026a8:	01 00 00 00 	nop 
405026ac:	01 00 00 00 	nop 
405026b0:	01 00 00 00 	nop 
405026b4:	11 10 14 0e 	sethi  %hi(0x40503800), %o0
405026b8:	90 12 23 80 	or  %o0, 0x380, %o0	! 40503b80 <nestcount>
405026bc:	d2 02 00 00 	ld  [ %o0 ], %o1
405026c0:	92 22 60 01 	dec  %o1
405026c4:	d2 22 00 00 	st  %o1, [ %o0 ]
405026c8:	10 80 02 0c 	b  40502ef8 <leonbare_trapreturn_fast>
405026cc:	ac 10 00 00 	mov  %g0, %l6

405026d0 <chained_catch_interrupt>:
405026d0:	1b 10 14 0f 	sethi  %hi(0x40503c00), %o5
405026d4:	9a 13 62 7c 	or  %o5, 0x27c, %o5	! 40503e7c <_irqtbl>
405026d8:	91 2a 20 02 	sll  %o0, 2, %o0
405026dc:	c2 03 40 08 	ld  [ %o5 + %o0 ], %g1
405026e0:	c2 22 60 0c 	st  %g1, [ %o1 + 0xc ]
405026e4:	81 c3 e0 08 	retl 
405026e8:	d2 23 40 08 	st  %o1, [ %o5 + %o0 ]

405026ec <catch_interrupt>:
405026ec:	9d e3 bf 98 	save  %sp, -104, %sp
405026f0:	03 10 14 0f 	sethi  %hi(0x40503c00), %g1
405026f4:	82 10 62 7c 	or  %g1, 0x27c, %g1	! 40503e7c <_irqtbl>
405026f8:	9b 2e 60 02 	sll  %i1, 2, %o5
405026fc:	da 00 40 0d 	ld  [ %g1 + %o5 ], %o5
40502700:	03 10 14 0f 	sethi  %hi(0x40503c00), %g1
40502704:	99 2e 60 04 	sll  %i1, 4, %o4
40502708:	82 10 60 7c 	or  %g1, 0x7c, %g1
4050270c:	90 10 00 19 	mov  %i1, %o0
40502710:	10 80 00 05 	b  40502724 <catch_interrupt+0x38>
40502714:	92 03 00 01 	add  %o4, %g1, %o1
40502718:	22 80 00 0a 	be,a   40502740 <catch_interrupt+0x54>
4050271c:	c2 02 40 00 	ld  [ %o1 ], %g1
40502720:	da 03 60 0c 	ld  [ %o5 + 0xc ], %o5
40502724:	80 a3 60 00 	cmp  %o5, 0
40502728:	12 bf ff fc 	bne  40502718 <catch_interrupt+0x2c>
4050272c:	80 a3 40 09 	cmp  %o5, %o1
40502730:	7f ff ff e8 	call  405026d0 <chained_catch_interrupt>
40502734:	f0 22 40 00 	st  %i0, [ %o1 ]
40502738:	10 80 00 03 	b  40502744 <catch_interrupt+0x58>
4050273c:	82 10 20 00 	clr  %g1
40502740:	f0 22 40 00 	st  %i0, [ %o1 ]
40502744:	81 c7 e0 08 	ret 
40502748:	91 e8 00 01 	restore  %g0, %g1, %o0

4050274c <handler_irq>:
4050274c:	9d e3 bf 98 	save  %sp, -104, %sp
40502750:	1b 10 14 0e 	sethi  %hi(0x40503800), %o5
40502754:	82 13 63 84 	or  %o5, 0x384, %g1	! 40503b84 <irqmp>
40502758:	d8 00 60 04 	ld  [ %g1 + 4 ], %o4
4050275c:	80 a3 00 18 	cmp  %o4, %i0
40502760:	02 80 00 23 	be  405027ec <handler_irq+0xa0>
40502764:	c2 03 63 84 	ld  [ %o5 + 0x384 ], %g1
40502768:	80 a6 20 00 	cmp  %i0, 0
4050276c:	22 80 00 02 	be,a   40502774 <handler_irq+0x28>
40502770:	b0 10 00 0c 	mov  %o4, %i0
40502774:	03 10 14 0f 	sethi  %hi(0x40503c00), %g1
40502778:	9b 2e 20 02 	sll  %i0, 2, %o5
4050277c:	82 10 62 7c 	or  %g1, 0x27c, %g1
40502780:	e0 00 40 0d 	ld  [ %g1 + %o5 ], %l0
40502784:	80 a4 20 00 	cmp  %l0, 0
40502788:	02 80 00 1c 	be  405027f8 <handler_irq+0xac>
4050278c:	a4 10 20 01 	mov  1, %l2
40502790:	10 80 00 07 	b  405027ac <handler_irq+0x60>
40502794:	da 04 00 00 	ld  [ %l0 ], %o5
40502798:	e0 04 20 0c 	ld  [ %l0 + 0xc ], %l0
4050279c:	80 a4 20 00 	cmp  %l0, 0
405027a0:	02 80 00 16 	be  405027f8 <handler_irq+0xac>
405027a4:	01 00 00 00 	nop 
405027a8:	da 04 00 00 	ld  [ %l0 ], %o5
405027ac:	80 a3 60 00 	cmp  %o5, 0
405027b0:	02 bf ff fa 	be  40502798 <handler_irq+0x4c>
405027b4:	23 10 14 0f 	sethi  %hi(0x40503c00), %l1
405027b8:	c2 04 60 78 	ld  [ %l1 + 0x78 ], %g1	! 40503c78 <inirq>
405027bc:	90 10 00 18 	mov  %i0, %o0
405027c0:	80 a0 60 00 	cmp  %g1, 0
405027c4:	12 bf ff f5 	bne  40502798 <handler_irq+0x4c>
405027c8:	94 10 00 19 	mov  %i1, %o2
405027cc:	d2 04 20 08 	ld  [ %l0 + 8 ], %o1
405027d0:	9f c3 40 00 	call  %o5
405027d4:	e4 24 60 78 	st  %l2, [ %l1 + 0x78 ]
405027d8:	e0 04 20 0c 	ld  [ %l0 + 0xc ], %l0
405027dc:	80 a4 20 00 	cmp  %l0, 0
405027e0:	12 bf ff f2 	bne  405027a8 <handler_irq+0x5c>
405027e4:	c0 24 60 78 	clr  [ %l1 + 0x78 ]
405027e8:	30 80 00 04 	b,a   405027f8 <handler_irq+0xac>
405027ec:	da 00 60 c0 	ld  [ %g1 + 0xc0 ], %o5
405027f0:	10 bf ff de 	b  40502768 <handler_irq+0x1c>
405027f4:	b0 0b 60 1f 	and  %o5, 0x1f, %i0
405027f8:	81 c7 e0 08 	ret 
405027fc:	81 e8 00 00 	restore 

40502800 <cpuinit>:
40502800:	8c 10 00 0f 	mov  %o7, %g6
40502804:	a7 48 00 00 	rd  %psr, %l3
40502808:	8b 34 e0 18 	srl  %l3, 0x18, %g5
4050280c:	8a 09 60 0f 	and  %g5, 0xf, %g5
40502810:	80 a1 60 03 	cmp  %g5, 3
40502814:	02 80 00 0c 	be  40502844 <cpuinit+0x44>
40502818:	0b 10 14 0e 	sethi  %hi(0x40503800), %g5
4050281c:	8a 11 63 8c 	or  %g5, 0x38c, %g5	! 40503b8c <console>
40502820:	09 20 00 00 	sethi  %hi(0x80000000), %g4
40502824:	88 11 20 70 	or  %g4, 0x70, %g4	! 80000070 <LEON_REG+0x70>
40502828:	c8 21 40 00 	st  %g4, [ %g5 ]
4050282c:	0b 10 14 0e 	sethi  %hi(0x40503800), %g5
40502830:	8a 11 63 a8 	or  %g5, 0x3a8, %g5	! 40503ba8 <rtc>
40502834:	09 20 00 00 	sethi  %hi(0x80000000), %g4
40502838:	88 11 20 40 	or  %g4, 0x40, %g4	! 80000040 <LEON_REG+0x40>
4050283c:	c8 21 40 00 	st  %g4, [ %g5 ]
40502840:	10 80 00 39 	b  40502924 <cpuinit+0x124>
40502844:	90 10 20 01 	mov  1, %o0
40502848:	92 10 20 06 	mov  6, %o1
4050284c:	40 00 01 e1 	call  40502fd0 <ahbslv_scan>
40502850:	01 00 00 00 	nop 
40502854:	80 a0 00 08 	cmp  %g0, %o0
40502858:	02 80 00 33 	be  40502924 <cpuinit+0x124>
4050285c:	01 00 00 00 	nop 
40502860:	c2 02 20 10 	ld  [ %o0 + 0x10 ], %g1
40502864:	11 3f fc 00 	sethi  %hi(0xfff00000), %o0
40502868:	82 08 40 08 	and  %g1, %o0, %g1
4050286c:	11 00 03 fc 	sethi  %hi(0xff000), %o0
40502870:	84 10 40 08 	or  %g1, %o0, %g2
40502874:	90 10 00 02 	mov  %g2, %o0
40502878:	92 10 20 01 	mov  1, %o1
4050287c:	94 10 20 0c 	mov  0xc, %o2
40502880:	40 00 01 ea 	call  40503028 <apbslv_scan>
40502884:	01 00 00 00 	nop 
40502888:	80 a0 00 08 	cmp  %g0, %o0
4050288c:	02 80 00 26 	be  40502924 <cpuinit+0x124>
40502890:	01 00 00 00 	nop 
40502894:	40 00 01 fa 	call  4050307c <iobar_getbase>
40502898:	92 10 00 01 	mov  %g1, %o1
4050289c:	0b 10 14 0e 	sethi  %hi(0x40503800), %g5
405028a0:	8a 11 63 8c 	or  %g5, 0x38c, %g5	! 40503b8c <console>
405028a4:	d2 21 40 00 	st  %o1, [ %g5 ]
405028a8:	90 10 00 02 	mov  %g2, %o0
405028ac:	92 10 20 01 	mov  1, %o1
405028b0:	94 10 20 11 	mov  0x11, %o2
405028b4:	40 00 01 dd 	call  40503028 <apbslv_scan>
405028b8:	01 00 00 00 	nop 
405028bc:	80 a0 00 08 	cmp  %g0, %o0
405028c0:	02 80 00 19 	be  40502924 <cpuinit+0x124>
405028c4:	01 00 00 00 	nop 
405028c8:	40 00 01 ed 	call  4050307c <iobar_getbase>
405028cc:	92 10 00 01 	mov  %g1, %o1
405028d0:	92 02 60 10 	add  %o1, 0x10, %o1
405028d4:	0b 10 14 0e 	sethi  %hi(0x40503800), %g5
405028d8:	8a 11 63 a8 	or  %g5, 0x3a8, %g5	! 40503ba8 <rtc>
405028dc:	d2 21 40 00 	st  %o1, [ %g5 ]
405028e0:	90 10 00 02 	mov  %g2, %o0
405028e4:	92 10 20 01 	mov  1, %o1
405028e8:	94 10 20 0d 	mov  0xd, %o2
405028ec:	40 00 01 cf 	call  40503028 <apbslv_scan>
405028f0:	01 00 00 00 	nop 
405028f4:	80 a0 00 08 	cmp  %g0, %o0
405028f8:	02 80 00 0b 	be  40502924 <cpuinit+0x124>
405028fc:	01 00 00 00 	nop 
40502900:	40 00 01 df 	call  4050307c <iobar_getbase>
40502904:	92 10 00 01 	mov  %g1, %o1
40502908:	0b 10 14 0e 	sethi  %hi(0x40503800), %g5
4050290c:	8a 11 63 84 	or  %g5, 0x384, %g5	! 40503b84 <irqmp>
40502910:	d2 21 40 00 	st  %o1, [ %g5 ]
40502914:	d4 02 60 10 	ld  [ %o1 + 0x10 ], %o2
40502918:	95 32 a0 10 	srl  %o2, 0x10, %o2
4050291c:	94 0a a0 0f 	and  %o2, 0xf, %o2
40502920:	d4 21 60 04 	st  %o2, [ %g5 + 4 ]
40502924:	9e 10 00 06 	mov  %g6, %o7
40502928:	81 c3 e0 08 	retl 
4050292c:	01 00 00 00 	nop 
40502930:	03 10 14 0e 	sethi  %hi(0x40503800), %g1
40502934:	82 10 63 a0 	or  %g1, 0x3a0, %g1	! 40503ba0 <jiffies_64>

40502938 <_exit>:
40502938:	82 10 20 01 	mov  1, %g1
4050293c:	91 d0 20 00 	ta  0
40502940:	81 c3 e0 08 	retl 
40502944:	01 00 00 00 	nop 

40502948 <___st_pthread_mutex_init>:
40502948:	9d e3 bf 98 	save  %sp, -104, %sp
4050294c:	03 10 14 0f 	sethi  %hi(0x40503c00), %g1
40502950:	c2 00 63 18 	ld  [ %g1 + 0x318 ], %g1	! 40503f18 <__lbst_pthread_mutex_init>
40502954:	90 10 00 18 	mov  %i0, %o0
40502958:	92 10 00 19 	mov  %i1, %o1
4050295c:	80 a0 60 00 	cmp  %g1, 0
40502960:	02 80 00 05 	be  40502974 <___st_pthread_mutex_init+0x2c>
40502964:	b0 10 20 00 	clr  %i0
40502968:	9f c0 40 00 	call  %g1
4050296c:	01 00 00 00 	nop 
40502970:	b0 10 00 08 	mov  %o0, %i0
40502974:	81 c7 e0 08 	ret 
40502978:	81 e8 00 00 	restore 

4050297c <___st_pthread_mutex_destroy>:
4050297c:	9d e3 bf 98 	save  %sp, -104, %sp
40502980:	03 10 14 0f 	sethi  %hi(0x40503c00), %g1
40502984:	c2 00 63 14 	ld  [ %g1 + 0x314 ], %g1	! 40503f14 <__lbst_pthread_mutex_destroy>
40502988:	90 10 00 18 	mov  %i0, %o0
4050298c:	80 a0 60 00 	cmp  %g1, 0
40502990:	02 80 00 05 	be  405029a4 <___st_pthread_mutex_destroy+0x28>
40502994:	b0 10 20 00 	clr  %i0
40502998:	9f c0 40 00 	call  %g1
4050299c:	01 00 00 00 	nop 
405029a0:	b0 10 00 08 	mov  %o0, %i0
405029a4:	81 c7 e0 08 	ret 
405029a8:	81 e8 00 00 	restore 

405029ac <___st_pthread_mutex_lock>:
405029ac:	9d e3 bf 98 	save  %sp, -104, %sp
405029b0:	03 10 14 0f 	sethi  %hi(0x40503c00), %g1
405029b4:	c2 00 63 0c 	ld  [ %g1 + 0x30c ], %g1	! 40503f0c <__lbst_pthread_mutex_lock>
405029b8:	90 10 00 18 	mov  %i0, %o0
405029bc:	80 a0 60 00 	cmp  %g1, 0
405029c0:	02 80 00 05 	be  405029d4 <___st_pthread_mutex_lock+0x28>
405029c4:	b0 10 20 00 	clr  %i0
405029c8:	9f c0 40 00 	call  %g1
405029cc:	01 00 00 00 	nop 
405029d0:	b0 10 00 08 	mov  %o0, %i0
405029d4:	81 c7 e0 08 	ret 
405029d8:	81 e8 00 00 	restore 

405029dc <___st_pthread_mutex_trylock>:
405029dc:	9d e3 bf 98 	save  %sp, -104, %sp
405029e0:	03 10 14 0f 	sethi  %hi(0x40503c00), %g1
405029e4:	c2 00 63 10 	ld  [ %g1 + 0x310 ], %g1	! 40503f10 <__lbst_pthread_mutex_trylock>
405029e8:	90 10 00 18 	mov  %i0, %o0
405029ec:	80 a0 60 00 	cmp  %g1, 0
405029f0:	02 80 00 05 	be  40502a04 <___st_pthread_mutex_trylock+0x28>
405029f4:	b0 10 20 00 	clr  %i0
405029f8:	9f c0 40 00 	call  %g1
405029fc:	01 00 00 00 	nop 
40502a00:	b0 10 00 08 	mov  %o0, %i0
40502a04:	81 c7 e0 08 	ret 
40502a08:	81 e8 00 00 	restore 

40502a0c <___st_pthread_mutex_unlock>:
40502a0c:	9d e3 bf 98 	save  %sp, -104, %sp
40502a10:	03 10 14 0f 	sethi  %hi(0x40503c00), %g1
40502a14:	c2 00 63 08 	ld  [ %g1 + 0x308 ], %g1	! 40503f08 <__lbst_pthread_mutex_unlock>
40502a18:	90 10 00 18 	mov  %i0, %o0
40502a1c:	80 a0 60 00 	cmp  %g1, 0
40502a20:	02 80 00 05 	be  40502a34 <___st_pthread_mutex_unlock+0x28>
40502a24:	b0 10 20 00 	clr  %i0
40502a28:	9f c0 40 00 	call  %g1
40502a2c:	01 00 00 00 	nop 
40502a30:	b0 10 00 08 	mov  %o0, %i0
40502a34:	81 c7 e0 08 	ret 
40502a38:	81 e8 00 00 	restore 

40502a3c <___st_pthread_mutexattr_init>:
40502a3c:	9d e3 bf 98 	save  %sp, -104, %sp
40502a40:	03 10 14 0f 	sethi  %hi(0x40503c00), %g1
40502a44:	c2 00 63 04 	ld  [ %g1 + 0x304 ], %g1	! 40503f04 <__lbst_pthread_mutexattr_init>
40502a48:	90 10 00 18 	mov  %i0, %o0
40502a4c:	80 a0 60 00 	cmp  %g1, 0
40502a50:	02 80 00 05 	be  40502a64 <___st_pthread_mutexattr_init+0x28>
40502a54:	b0 10 20 00 	clr  %i0
40502a58:	9f c0 40 00 	call  %g1
40502a5c:	01 00 00 00 	nop 
40502a60:	b0 10 00 08 	mov  %o0, %i0
40502a64:	81 c7 e0 08 	ret 
40502a68:	81 e8 00 00 	restore 

40502a6c <___st_pthread_mutexattr_destroy>:
40502a6c:	9d e3 bf 98 	save  %sp, -104, %sp
40502a70:	03 10 14 0f 	sethi  %hi(0x40503c00), %g1
40502a74:	c2 00 63 00 	ld  [ %g1 + 0x300 ], %g1	! 40503f00 <__lbst_pthread_mutexattr_destroy>
40502a78:	90 10 00 18 	mov  %i0, %o0
40502a7c:	80 a0 60 00 	cmp  %g1, 0
40502a80:	02 80 00 05 	be  40502a94 <___st_pthread_mutexattr_destroy+0x28>
40502a84:	b0 10 20 00 	clr  %i0
40502a88:	9f c0 40 00 	call  %g1
40502a8c:	01 00 00 00 	nop 
40502a90:	b0 10 00 08 	mov  %o0, %i0
40502a94:	81 c7 e0 08 	ret 
40502a98:	81 e8 00 00 	restore 

40502a9c <___st_pthread_mutexattr_settype>:
40502a9c:	9d e3 bf 98 	save  %sp, -104, %sp
40502aa0:	03 10 14 0f 	sethi  %hi(0x40503c00), %g1
40502aa4:	c2 00 62 fc 	ld  [ %g1 + 0x2fc ], %g1	! 40503efc <__lbst_pthread_mutexattr_settype>
40502aa8:	90 10 00 18 	mov  %i0, %o0
40502aac:	92 10 00 19 	mov  %i1, %o1
40502ab0:	80 a0 60 00 	cmp  %g1, 0
40502ab4:	02 80 00 05 	be  40502ac8 <___st_pthread_mutexattr_settype+0x2c>
40502ab8:	b0 10 20 00 	clr  %i0
40502abc:	9f c0 40 00 	call  %g1
40502ac0:	01 00 00 00 	nop 
40502ac4:	b0 10 00 08 	mov  %o0, %i0
40502ac8:	81 c7 e0 08 	ret 
40502acc:	81 e8 00 00 	restore 

40502ad0 <_hardreset_real>:
40502ad0:	01 00 00 00 	nop 

40502ad4 <_hardreset>:
40502ad4:	03 10 14 0a 	sethi  %hi(0x40502800), %g1
40502ad8:	82 10 63 98 	or  %g1, 0x398, %g1	! 40502b98 <_hardreset_custom_weak>
40502adc:	9f c0 40 00 	call  %g1
40502ae0:	01 00 00 00 	nop 
40502ae4:	03 10 14 00 	sethi  %hi(0x40500000), %g1
40502ae8:	82 10 60 00 	mov  %g1, %g1	! 40500000 <_trap_table>
40502aec:	81 98 40 00 	mov  %g1, %tbr
40502af0:	03 10 14 0b 	sethi  %hi(0x40502c00), %g1
40502af4:	82 10 60 1c 	or  %g1, 0x1c, %g1	! 40502c1c <_hardreset_custom_svt_weak>
40502af8:	9f c0 40 00 	call  %g1
40502afc:	01 00 00 00 	nop 
40502b00:	03 10 14 0a 	sethi  %hi(0x40502800), %g1
40502b04:	82 10 63 88 	or  %g1, 0x388, %g1	! 40502b88 <_cleanregs_libgloss>
40502b08:	9f c0 40 00 	call  %g1
40502b0c:	01 00 00 00 	nop 
40502b10:	8b 48 00 00 	rd  %psr, %g5
40502b14:	8b 31 60 18 	srl  %g5, 0x18, %g5
40502b18:	8a 09 60 03 	and  %g5, 3, %g5
40502b1c:	80 a1 60 03 	cmp  %g5, 3
40502b20:	12 80 00 07 	bne  40502b3c <callcpuinit>
40502b24:	01 00 00 00 	nop 
40502b28:	8b 44 40 00 	rd  %asr17, %g5
40502b2c:	8b 31 60 1c 	srl  %g5, 0x1c, %g5
40502b30:	80 a1 40 00 	cmp  %g5, %g0
40502b34:	12 80 00 04 	bne  40502b44 <slavego>
40502b38:	01 00 00 00 	nop 

40502b3c <callcpuinit>:
40502b3c:	7f ff ff 31 	call  40502800 <cpuinit>
40502b40:	01 00 00 00 	nop 

40502b44 <slavego>:
40502b44:	9c 23 a0 40 	sub  %sp, 0x40, %sp
40502b48:	7f ff f9 2e 	call  40501000 <_start>
40502b4c:	01 00 00 00 	nop 
40502b50:	82 10 20 01 	mov  1, %g1	! 1 <_trap_table-0x404fffff>
40502b54:	91 d0 20 00 	ta  0
40502b58:	01 00 00 00 	nop 

40502b5c <_fpdis>:
40502b5c:	29 00 00 04 	sethi  %hi(0x1000), %l4
40502b60:	a6 8c 00 14 	andcc  %l0, %l4, %l3
40502b64:	32 80 00 03 	bne,a   40502b70 <_fpdis+0x14>
40502b68:	a0 2c 00 14 	andn  %l0, %l4, %l0
40502b6c:	91 d0 20 00 	ta  0
40502b70:	81 8c 00 00 	mov  %l0, %psr
40502b74:	01 00 00 00 	nop 
40502b78:	01 00 00 00 	nop 
40502b7c:	01 00 00 00 	nop 
40502b80:	81 c4 80 00 	jmp  %l2
40502b84:	81 cc a0 04 	rett  %l2 + 4

40502b88 <_cleanregs_libgloss>:
40502b88:	81 c3 e0 08 	retl 
40502b8c:	01 00 00 00 	nop 
40502b90:	81 c1 e0 08 	jmp  %g7 + 8
40502b94:	01 00 00 00 	nop 

40502b98 <_hardreset_custom_weak>:
40502b98:	a7 48 00 00 	rd  %psr, %l3
40502b9c:	8b 34 e0 18 	srl  %l3, 0x18, %g5
40502ba0:	8a 09 60 03 	and  %g5, 3, %g5
40502ba4:	80 a1 60 03 	cmp  %g5, 3
40502ba8:	12 80 00 08 	bne  40502bc8 <_hardreset_custom_weak+0x30>
40502bac:	01 00 00 00 	nop 
40502bb0:	21 10 14 0e 	sethi  %hi(0x40503800), %l0
40502bb4:	a0 14 23 9c 	or  %l0, 0x39c, %l0	! 40503b9c <_leon_version>
40502bb8:	a2 10 20 03 	mov  3, %l1
40502bbc:	e2 24 00 00 	st  %l1, [ %l0 ]
40502bc0:	8b 44 40 00 	rd  %asr17, %g5
40502bc4:	10 80 00 08 	b  40502be4 <_hardreset_custom_weak+0x4c>
40502bc8:	21 10 14 0e 	sethi  %hi(0x40503800), %l0
40502bcc:	a0 14 23 9c 	or  %l0, 0x39c, %l0	! 40503b9c <_leon_version>
40502bd0:	a2 10 20 02 	mov  2, %l1
40502bd4:	e2 24 00 00 	st  %l1, [ %l0 ]
40502bd8:	21 20 00 00 	sethi  %hi(0x80000000), %l0
40502bdc:	e6 04 20 24 	ld  [ %l0 + 0x24 ], %l3	! 80000024 <LEON_REG+0x24>
40502be0:	8b 34 e0 14 	srl  %l3, 0x14, %g5
40502be4:	8a 09 60 1f 	and  %g5, 0x1f, %g5
40502be8:	27 10 14 0e 	sethi  %hi(0x40503800), %l3
40502bec:	a6 14 e3 94 	or  %l3, 0x394, %l3	! 40503b94 <_nwindows_min1>
40502bf0:	ca 24 c0 00 	st  %g5, [ %l3 ]
40502bf4:	8a 01 60 01 	inc  %g5
40502bf8:	27 10 14 0e 	sethi  %hi(0x40503800), %l3
40502bfc:	a6 14 e3 90 	or  %l3, 0x390, %l3	! 40503b90 <_nwindows>
40502c00:	ca 24 c0 00 	st  %g5, [ %l3 ]
40502c04:	27 10 14 0e 	sethi  %hi(0x40503800), %l3
40502c08:	a6 14 e3 98 	or  %l3, 0x398, %l3	! 40503b98 <_nwindows_min2>
40502c0c:	8a 21 60 02 	sub  %g5, 2, %g5
40502c10:	ca 24 c0 00 	st  %g5, [ %l3 ]
40502c14:	81 c3 e0 08 	retl 
40502c18:	01 00 00 00 	nop 

40502c1c <_hardreset_custom_svt_weak>:
40502c1c:	81 c3 e0 08 	retl 
40502c20:	01 00 00 00 	nop 

40502c24 <_srmmu_fault>:
40502c24:	91 d0 20 00 	ta  0
40502c28:	01 00 00 00 	nop 
40502c2c:	01 00 00 00 	nop 
40502c30:	01 00 00 00 	nop 
40502c34:	81 c4 40 00 	jmp  %l1
40502c38:	81 cc 80 00 	rett  %l2

40502c3c <_hardreset_mvt>:
40502c3c:	83 48 00 00 	rd  %psr, %g1
40502c40:	83 30 60 18 	srl  %g1, 0x18, %g1
40502c44:	82 08 60 03 	and  %g1, 3, %g1
40502c48:	80 a0 60 03 	cmp  %g1, 3
40502c4c:	12 80 00 06 	bne  40502c64 <_hardreset_mvt+0x28>
40502c50:	01 00 00 00 	nop 
40502c54:	83 44 40 00 	rd  %asr17, %g1
40502c58:	05 00 00 08 	sethi  %hi(0x2000), %g2
40502c5c:	82 28 40 02 	andn  %g1, %g2, %g1
40502c60:	a3 80 40 00 	mov  %g1, %asr17
40502c64:	88 10 00 00 	mov  %g0, %g4
40502c68:	09 10 14 0a 	sethi  %hi(0x40502800), %g4
40502c6c:	81 c1 22 d4 	jmp  %g4 + 0x2d4	! 40502ad4 <_hardreset>
40502c70:	01 00 00 00 	nop 

40502c74 <_call_initcalls>:
40502c74:	9d e3 bf 98 	save  %sp, -104, %sp
40502c78:	03 10 14 0c 	sethi  %hi(0x40503000), %g1
40502c7c:	1b 10 14 0c 	sethi  %hi(0x40503000), %o5
40502c80:	a0 10 61 30 	or  %g1, 0x130, %l0
40502c84:	9a 13 61 30 	or  %o5, 0x130, %o5
40502c88:	80 a4 00 0d 	cmp  %l0, %o5
40502c8c:	1a 80 00 10 	bcc  40502ccc <_call_initcalls+0x58>
40502c90:	a2 10 00 0d 	mov  %o5, %l1
40502c94:	10 80 00 06 	b  40502cac <_call_initcalls+0x38>
40502c98:	c2 04 00 00 	ld  [ %l0 ], %g1
40502c9c:	80 a4 00 11 	cmp  %l0, %l1
40502ca0:	1a 80 00 0b 	bcc  40502ccc <_call_initcalls+0x58>
40502ca4:	01 00 00 00 	nop 
40502ca8:	c2 04 00 00 	ld  [ %l0 ], %g1
40502cac:	80 a0 60 00 	cmp  %g1, 0
40502cb0:	02 bf ff fb 	be  40502c9c <_call_initcalls+0x28>
40502cb4:	a0 04 20 04 	add  %l0, 4, %l0
40502cb8:	9f c0 40 00 	call  %g1
40502cbc:	01 00 00 00 	nop 
40502cc0:	80 a4 00 11 	cmp  %l0, %l1
40502cc4:	2a bf ff fa 	bcs,a   40502cac <_call_initcalls+0x38>
40502cc8:	c2 04 00 00 	ld  [ %l0 ], %g1
40502ccc:	81 c7 e0 08 	ret 
40502cd0:	81 e8 00 00 	restore 

40502cd4 <leonbare_trapsetup>:
40502cd4:	aa 27 a0 b0 	sub  %fp, 0xb0, %l5
40502cd8:	e0 25 60 60 	st  %l0, [ %l5 + 0x60 ]
40502cdc:	e2 25 60 64 	st  %l1, [ %l5 + 0x64 ]
40502ce0:	e4 25 60 68 	st  %l2, [ %l5 + 0x68 ]
40502ce4:	c2 25 60 74 	st  %g1, [ %l5 + 0x74 ]
40502ce8:	c4 3d 60 78 	std  %g2, [ %l5 + 0x78 ]
40502cec:	c8 3d 60 80 	std  %g4, [ %l5 + 0x80 ]
40502cf0:	cc 3d 60 88 	std  %g6, [ %l5 + 0x88 ]
40502cf4:	85 40 00 00 	rd  %y, %g2
40502cf8:	c4 25 60 6c 	st  %g2, [ %l5 + 0x6c ]
40502cfc:	f0 3d 60 90 	std  %i0, [ %l5 + 0x90 ]
40502d00:	f4 3d 60 98 	std  %i2, [ %l5 + 0x98 ]
40502d04:	f8 3d 60 a0 	std  %i4, [ %l5 + 0xa0 ]
40502d08:	fc 3d 60 a8 	std  %fp, [ %l5 + 0xa8 ]
40502d0c:	a8 10 20 01 	mov  1, %l4
40502d10:	a9 2d 00 10 	sll  %l4, %l0, %l4
40502d14:	80 8d 00 13 	btst  %l4, %l3
40502d18:	02 80 00 13 	be  40502d64 <leonbare_trapsetup+0x90>
40502d1c:	01 00 00 00 	nop 
40502d20:	85 34 e0 01 	srl  %l3, 1, %g2
40502d24:	07 10 14 0e 	sethi  %hi(0x40503800), %g3
40502d28:	c6 00 e3 94 	ld  [ %g3 + 0x394 ], %g3	! 40503b94 <_nwindows_min1>
40502d2c:	a7 2c c0 03 	sll  %l3, %g3, %l3
40502d30:	84 14 c0 02 	or  %l3, %g2, %g2
40502d34:	84 08 a0 ff 	and  %g2, 0xff, %g2
40502d38:	81 e0 00 00 	save 
40502d3c:	81 90 a0 00 	mov  %g2, %wim
40502d40:	e0 3b a0 00 	std  %l0, [ %sp ]
40502d44:	e4 3b a0 08 	std  %l2, [ %sp + 8 ]
40502d48:	e8 3b a0 10 	std  %l4, [ %sp + 0x10 ]
40502d4c:	ec 3b a0 18 	std  %l6, [ %sp + 0x18 ]
40502d50:	f0 3b a0 20 	std  %i0, [ %sp + 0x20 ]
40502d54:	f4 3b a0 28 	std  %i2, [ %sp + 0x28 ]
40502d58:	f8 3b a0 30 	std  %i4, [ %sp + 0x30 ]
40502d5c:	fc 3b a0 38 	std  %fp, [ %sp + 0x38 ]
40502d60:	81 e8 00 00 	restore 
40502d64:	81 c5 a0 08 	jmp  %l6 + 8
40502d68:	9c 10 00 15 	mov  %l5, %sp

40502d6c <leonbare_trapreturn>:
40502d6c:	05 10 14 0f 	sethi  %hi(0x40503c00), %g2
40502d70:	84 10 a0 74 	or  %g2, 0x74, %g2	! 40503c74 <schedule_callback>
40502d74:	c4 00 80 00 	ld  [ %g2 ], %g2
40502d78:	80 a0 80 00 	cmp  %g2, %g0
40502d7c:	02 80 00 04 	be  40502d8c <leonbare_trapreturn+0x20>
40502d80:	01 00 00 00 	nop 
40502d84:	9f c0 80 00 	call  %g2
40502d88:	92 03 a0 60 	add  %sp, 0x60, %o1
40502d8c:	81 8c 20 00 	mov  %l0, %psr
40502d90:	82 10 20 02 	mov  2, %g1
40502d94:	83 28 40 10 	sll  %g1, %l0, %g1
40502d98:	05 10 14 0e 	sethi  %hi(0x40503800), %g2
40502d9c:	c4 00 a3 90 	ld  [ %g2 + 0x390 ], %g2	! 40503b90 <_nwindows>
40502da0:	85 30 40 02 	srl  %g1, %g2, %g2
40502da4:	82 10 40 02 	or  %g1, %g2, %g1
40502da8:	85 50 00 00 	rd  %wim, %g2
40502dac:	80 88 80 01 	btst  %g2, %g1
40502db0:	02 80 00 20 	be  40502e30 <leonbare_trapreturn+0xc4>
40502db4:	83 28 a0 01 	sll  %g2, 1, %g1
40502db8:	07 10 14 0e 	sethi  %hi(0x40503800), %g3
40502dbc:	c6 00 e3 94 	ld  [ %g3 + 0x394 ], %g3	! 40503b94 <_nwindows_min1>
40502dc0:	85 30 80 03 	srl  %g2, %g3, %g2
40502dc4:	82 10 40 02 	or  %g1, %g2, %g1
40502dc8:	82 08 60 ff 	and  %g1, 0xff, %g1
40502dcc:	81 90 60 00 	mov  %g1, %wim
40502dd0:	c2 03 a0 6c 	ld  [ %sp + 0x6c ], %g1
40502dd4:	81 80 60 00 	mov  %g1, %y
40502dd8:	f0 1b a0 90 	ldd  [ %sp + 0x90 ], %i0
40502ddc:	f4 1b a0 98 	ldd  [ %sp + 0x98 ], %i2
40502de0:	f8 1b a0 a0 	ldd  [ %sp + 0xa0 ], %i4
40502de4:	fc 1b a0 a8 	ldd  [ %sp + 0xa8 ], %fp
40502de8:	c2 03 a0 74 	ld  [ %sp + 0x74 ], %g1
40502dec:	c4 1b a0 78 	ldd  [ %sp + 0x78 ], %g2
40502df0:	c8 1b a0 80 	ldd  [ %sp + 0x80 ], %g4
40502df4:	cc 1b a0 88 	ldd  [ %sp + 0x88 ], %g6
40502df8:	e0 03 a0 60 	ld  [ %sp + 0x60 ], %l0
40502dfc:	e2 03 a0 64 	ld  [ %sp + 0x64 ], %l1
40502e00:	e4 03 a0 68 	ld  [ %sp + 0x68 ], %l2
40502e04:	81 e8 00 00 	restore 
40502e08:	e0 1b a0 00 	ldd  [ %sp ], %l0
40502e0c:	e4 1b a0 08 	ldd  [ %sp + 8 ], %l2
40502e10:	e8 1b a0 10 	ldd  [ %sp + 0x10 ], %l4
40502e14:	ec 1b a0 18 	ldd  [ %sp + 0x18 ], %l6
40502e18:	f0 1b a0 20 	ldd  [ %sp + 0x20 ], %i0
40502e1c:	f4 1b a0 28 	ldd  [ %sp + 0x28 ], %i2
40502e20:	f8 1b a0 30 	ldd  [ %sp + 0x30 ], %i4
40502e24:	fc 1b a0 38 	ldd  [ %sp + 0x38 ], %fp
40502e28:	10 80 00 0f 	b  40502e64 <leonbare_trapreturn+0xf8>
40502e2c:	81 e0 00 00 	save 
40502e30:	c2 03 a0 6c 	ld  [ %sp + 0x6c ], %g1
40502e34:	81 80 60 00 	mov  %g1, %y
40502e38:	f0 1b a0 90 	ldd  [ %sp + 0x90 ], %i0
40502e3c:	f4 1b a0 98 	ldd  [ %sp + 0x98 ], %i2
40502e40:	f8 1b a0 a0 	ldd  [ %sp + 0xa0 ], %i4
40502e44:	fc 1b a0 a8 	ldd  [ %sp + 0xa8 ], %fp
40502e48:	c2 03 a0 74 	ld  [ %sp + 0x74 ], %g1
40502e4c:	c4 1b a0 78 	ldd  [ %sp + 0x78 ], %g2
40502e50:	c8 1b a0 80 	ldd  [ %sp + 0x80 ], %g4
40502e54:	cc 1b a0 88 	ldd  [ %sp + 0x88 ], %g6
40502e58:	e0 03 a0 60 	ld  [ %sp + 0x60 ], %l0
40502e5c:	e2 03 a0 64 	ld  [ %sp + 0x64 ], %l1
40502e60:	e4 03 a0 68 	ld  [ %sp + 0x68 ], %l2
40502e64:	81 8c 20 00 	mov  %l0, %psr
40502e68:	01 00 00 00 	nop 
40502e6c:	01 00 00 00 	nop 
40502e70:	01 00 00 00 	nop 
40502e74:	81 c4 40 00 	jmp  %l1
40502e78:	81 cc 80 00 	rett  %l2

40502e7c <leonbare_trapsetup_fast>:
40502e7c:	aa 27 a0 b0 	sub  %fp, 0xb0, %l5
40502e80:	c2 25 60 74 	st  %g1, [ %l5 + 0x74 ]
40502e84:	c4 3d 60 78 	std  %g2, [ %l5 + 0x78 ]
40502e88:	c8 3d 60 80 	std  %g4, [ %l5 + 0x80 ]
40502e8c:	cc 3d 60 88 	std  %g6, [ %l5 + 0x88 ]
40502e90:	85 40 00 00 	rd  %y, %g2
40502e94:	c4 25 60 6c 	st  %g2, [ %l5 + 0x6c ]
40502e98:	a8 10 20 01 	mov  1, %l4
40502e9c:	a9 2d 00 10 	sll  %l4, %l0, %l4
40502ea0:	80 8d 00 13 	btst  %l4, %l3
40502ea4:	02 80 00 13 	be  40502ef0 <leonbare_trapsetup_fast+0x74>
40502ea8:	01 00 00 00 	nop 
40502eac:	85 34 e0 01 	srl  %l3, 1, %g2
40502eb0:	07 10 14 0e 	sethi  %hi(0x40503800), %g3
40502eb4:	c6 00 e3 94 	ld  [ %g3 + 0x394 ], %g3	! 40503b94 <_nwindows_min1>
40502eb8:	a7 2c c0 03 	sll  %l3, %g3, %l3
40502ebc:	84 14 c0 02 	or  %l3, %g2, %g2
40502ec0:	84 08 a0 ff 	and  %g2, 0xff, %g2
40502ec4:	81 e0 00 00 	save 
40502ec8:	81 90 a0 00 	mov  %g2, %wim
40502ecc:	e0 3b a0 00 	std  %l0, [ %sp ]
40502ed0:	e4 3b a0 08 	std  %l2, [ %sp + 8 ]
40502ed4:	e8 3b a0 10 	std  %l4, [ %sp + 0x10 ]
40502ed8:	ec 3b a0 18 	std  %l6, [ %sp + 0x18 ]
40502edc:	f0 3b a0 20 	std  %i0, [ %sp + 0x20 ]
40502ee0:	f4 3b a0 28 	std  %i2, [ %sp + 0x28 ]
40502ee4:	f8 3b a0 30 	std  %i4, [ %sp + 0x30 ]
40502ee8:	fc 3b a0 38 	std  %fp, [ %sp + 0x38 ]
40502eec:	81 e8 00 00 	restore 
40502ef0:	81 c5 a0 08 	jmp  %l6 + 8
40502ef4:	9c 10 00 15 	mov  %l5, %sp

40502ef8 <leonbare_trapreturn_fast>:
40502ef8:	05 10 14 0f 	sethi  %hi(0x40503c00), %g2
40502efc:	84 10 a0 74 	or  %g2, 0x74, %g2	! 40503c74 <schedule_callback>
40502f00:	c4 00 80 00 	ld  [ %g2 ], %g2
40502f04:	80 a0 80 00 	cmp  %g2, %g0
40502f08:	02 80 00 04 	be  40502f18 <leonbare_trapreturn_fast+0x20>
40502f0c:	01 00 00 00 	nop 
40502f10:	9f c0 80 00 	call  %g2
40502f14:	92 03 a0 60 	add  %sp, 0x60, %o1
40502f18:	81 8c 20 00 	mov  %l0, %psr
40502f1c:	82 10 20 02 	mov  2, %g1
40502f20:	83 28 40 10 	sll  %g1, %l0, %g1
40502f24:	05 10 14 0e 	sethi  %hi(0x40503800), %g2
40502f28:	c4 00 a3 90 	ld  [ %g2 + 0x390 ], %g2	! 40503b90 <_nwindows>
40502f2c:	85 30 40 02 	srl  %g1, %g2, %g2
40502f30:	82 10 40 02 	or  %g1, %g2, %g1
40502f34:	85 50 00 00 	rd  %wim, %g2
40502f38:	80 88 80 01 	btst  %g2, %g1
40502f3c:	02 80 00 19 	be  40502fa0 <leonbare_trapreturn_fast+0xa8>
40502f40:	83 28 a0 01 	sll  %g2, 1, %g1
40502f44:	07 10 14 0e 	sethi  %hi(0x40503800), %g3
40502f48:	c6 00 e3 94 	ld  [ %g3 + 0x394 ], %g3	! 40503b94 <_nwindows_min1>
40502f4c:	85 30 80 03 	srl  %g2, %g3, %g2
40502f50:	82 10 40 02 	or  %g1, %g2, %g1
40502f54:	82 08 60 ff 	and  %g1, 0xff, %g1
40502f58:	81 90 60 00 	mov  %g1, %wim
40502f5c:	c2 03 a0 6c 	ld  [ %sp + 0x6c ], %g1
40502f60:	81 80 60 00 	mov  %g1, %y
40502f64:	c2 03 a0 74 	ld  [ %sp + 0x74 ], %g1
40502f68:	c4 1b a0 78 	ldd  [ %sp + 0x78 ], %g2
40502f6c:	c8 1b a0 80 	ldd  [ %sp + 0x80 ], %g4
40502f70:	cc 1b a0 88 	ldd  [ %sp + 0x88 ], %g6
40502f74:	81 e8 00 00 	restore 
40502f78:	e0 1b a0 00 	ldd  [ %sp ], %l0
40502f7c:	e4 1b a0 08 	ldd  [ %sp + 8 ], %l2
40502f80:	e8 1b a0 10 	ldd  [ %sp + 0x10 ], %l4
40502f84:	ec 1b a0 18 	ldd  [ %sp + 0x18 ], %l6
40502f88:	f0 1b a0 20 	ldd  [ %sp + 0x20 ], %i0
40502f8c:	f4 1b a0 28 	ldd  [ %sp + 0x28 ], %i2
40502f90:	f8 1b a0 30 	ldd  [ %sp + 0x30 ], %i4
40502f94:	fc 1b a0 38 	ldd  [ %sp + 0x38 ], %fp
40502f98:	10 80 00 08 	b  40502fb8 <leonbare_trapreturn_fast+0xc0>
40502f9c:	81 e0 00 00 	save 
40502fa0:	c2 03 a0 6c 	ld  [ %sp + 0x6c ], %g1
40502fa4:	81 80 60 00 	mov  %g1, %y
40502fa8:	c2 03 a0 74 	ld  [ %sp + 0x74 ], %g1
40502fac:	c4 1b a0 78 	ldd  [ %sp + 0x78 ], %g2
40502fb0:	c8 1b a0 80 	ldd  [ %sp + 0x80 ], %g4
40502fb4:	cc 1b a0 88 	ldd  [ %sp + 0x88 ], %g6
40502fb8:	81 8c 20 00 	mov  %l0, %psr
40502fbc:	01 00 00 00 	nop 
40502fc0:	01 00 00 00 	nop 
40502fc4:	01 00 00 00 	nop 
40502fc8:	81 c4 40 00 	jmp  %l1
40502fcc:	81 cc 80 00 	rett  %l2

40502fd0 <ahbslv_scan>:
40502fd0:	82 10 00 08 	mov  %o0, %g1
40502fd4:	9a 10 38 00 	mov  -2048, %o5
40502fd8:	96 10 20 00 	clr  %o3
40502fdc:	91 2a e0 05 	sll  %o3, 5, %o0
40502fe0:	98 03 40 08 	add  %o5, %o0, %o4
40502fe4:	d4 03 40 08 	ld  [ %o5 + %o0 ], %o2
40502fe8:	91 32 a0 18 	srl  %o2, 0x18, %o0
40502fec:	80 a2 00 01 	cmp  %o0, %g1
40502ff0:	32 80 00 08 	bne,a   40503010 <ahbslv_scan+0x40>
40502ff4:	96 02 e0 01 	inc  %o3
40502ff8:	91 32 a0 0c 	srl  %o2, 0xc, %o0
40502ffc:	90 0a 2f ff 	and  %o0, 0xfff, %o0
40503000:	80 a2 00 09 	cmp  %o0, %o1
40503004:	02 80 00 07 	be  40503020 <ahbslv_scan+0x50>
40503008:	94 10 00 0c 	mov  %o4, %o2
4050300c:	96 02 e0 01 	inc  %o3
40503010:	80 a2 e0 07 	cmp  %o3, 7
40503014:	28 bf ff f3 	bleu,a   40502fe0 <ahbslv_scan+0x10>
40503018:	91 2a e0 05 	sll  %o3, 5, %o0
4050301c:	94 10 20 00 	clr  %o2
40503020:	81 c3 e0 08 	retl 
40503024:	90 10 00 0a 	mov  %o2, %o0

40503028 <apbslv_scan>:
40503028:	82 10 00 08 	mov  %o0, %g1
4050302c:	98 10 20 00 	clr  %o4
40503030:	91 2b 20 03 	sll  %o4, 3, %o0
40503034:	9a 00 40 08 	add  %g1, %o0, %o5
40503038:	d6 00 40 08 	ld  [ %g1 + %o0 ], %o3
4050303c:	91 32 e0 18 	srl  %o3, 0x18, %o0
40503040:	80 a2 00 09 	cmp  %o0, %o1
40503044:	32 80 00 08 	bne,a   40503064 <apbslv_scan+0x3c>
40503048:	98 03 20 01 	inc  %o4
4050304c:	91 32 e0 0c 	srl  %o3, 0xc, %o0
40503050:	90 0a 2f ff 	and  %o0, 0xfff, %o0
40503054:	80 a2 00 0a 	cmp  %o0, %o2
40503058:	02 80 00 07 	be  40503074 <apbslv_scan+0x4c>
4050305c:	96 10 00 0d 	mov  %o5, %o3
40503060:	98 03 20 01 	inc  %o4
40503064:	80 a3 20 0f 	cmp  %o4, 0xf
40503068:	28 bf ff f3 	bleu,a   40503034 <apbslv_scan+0xc>
4050306c:	91 2b 20 03 	sll  %o4, 3, %o0
40503070:	96 10 20 00 	clr  %o3
40503074:	81 c3 e0 08 	retl 
40503078:	90 10 00 0b 	mov  %o3, %o0

4050307c <iobar_getbase>:
4050307c:	d4 02 20 04 	ld  [ %o0 + 4 ], %o2
40503080:	17 3f fc 00 	sethi  %hi(0xfff00000), %o3
40503084:	92 0a 40 0b 	and  %o1, %o3, %o1
40503088:	90 0a 80 0b 	and  %o2, %o3, %o0
4050308c:	91 32 20 0c 	srl  %o0, 0xc, %o0
40503090:	92 12 40 08 	or  %o1, %o0, %o1
40503094:	11 00 00 3f 	sethi  %hi(0xfc00), %o0
40503098:	90 12 23 f0 	or  %o0, 0x3f0, %o0	! fff0 <_trap_table-0x404f0010>
4050309c:	94 0a 80 08 	and  %o2, %o0, %o2
405030a0:	95 2a a0 04 	sll  %o2, 4, %o2
405030a4:	94 12 80 0b 	or  %o2, %o3, %o2
405030a8:	92 0a 40 0a 	and  %o1, %o2, %o1
405030ac:	81 c3 e0 08 	retl 
405030b0:	90 10 00 09 	mov  %o1, %o0

405030b4 <__do_global_ctors_aux>:
405030b4:	9d e3 bf 98 	save  %sp, -104, %sp
405030b8:	03 10 14 0c 	sethi  %hi(0x40503000), %g1
405030bc:	82 10 61 18 	or  %g1, 0x118, %g1	! 40503118 <__CTOR_END__>
405030c0:	da 00 7f fc 	ld  [ %g1 + -4 ], %o5
405030c4:	80 a3 7f ff 	cmp  %o5, -1
405030c8:	02 80 00 09 	be  405030ec <__do_global_ctors_aux+0x38>
405030cc:	a0 00 7f fc 	add  %g1, -4, %l0
405030d0:	82 10 00 0d 	mov  %o5, %g1
405030d4:	9f c0 40 00 	call  %g1
405030d8:	a0 04 3f fc 	add  %l0, -4, %l0
405030dc:	c2 04 00 00 	ld  [ %l0 ], %g1
405030e0:	80 a0 7f ff 	cmp  %g1, -1
405030e4:	12 bf ff fc 	bne  405030d4 <__do_global_ctors_aux+0x20>
405030e8:	01 00 00 00 	nop 
405030ec:	81 c7 e0 08 	ret 
405030f0:	81 e8 00 00 	restore 

405030f4 <call___do_global_ctors_aux>:
405030f4:	9d e3 bf 98 	save  %sp, -104, %sp
405030f8:	81 c7 e0 08 	ret 
405030fc:	81 e8 00 00 	restore 

40503100 <__EH_FRAME_BEGIN__>:
	...

40503110 <___CTOR_LIST__>:
40503110:	00 00 00 02 	unimp  0x2

40503114 <__CTOR_LIST__>:
40503114:	ff ff ff ff 	unknown

40503118 <__CTOR_END__>:
	...

40503120 <___CTOR_END__>:
40503120:	00 00 00 02 	unimp  0x2

40503124 <__DTOR_LIST__>:
40503124:	ff ff ff ff 	unknown

40503128 <__DTOR_END__>:
	...

40503130 <___DTOR_END__>:
40503130:	40 50 31 80 	call  4190f730 <__end+0x140b7f8>
40503134:	00 00 00 00 	unimp  0
40503138:	43 00 00 00 	call  4c503138 <__end+0xbfff200>

4050313c <_init>:
4050313c:	9d e3 bf a0 	save  %sp, -96, %sp

40503140 <_erodata>:
40503140:	7f ff f7 ed 	call  405010f4 <frame_dummy>
40503144:	01 00 00 00 	nop 
40503148:	7f ff ff db 	call  405030b4 <__do_global_ctors_aux>
4050314c:	01 00 00 00 	nop 
40503150:	81 c7 e0 08 	ret 
40503154:	81 e8 00 00 	restore 

40503158 <_fini>:
40503158:	9d e3 bf a0 	save  %sp, -96, %sp
4050315c:	7f ff f7 c8 	call  4050107c <__do_global_dtors_aux>
40503160:	01 00 00 00 	nop 
40503164:	81 c7 e0 08 	ret 
40503168:	81 e8 00 00 	restore 
4050316c:	00 00 00 00 	unimp  0
Disassembly of section .data:

40503170 <_environ>:
40503170:	00 00 00 01 	unimp  0x1
40503174:	00 00 00 00 	unimp  0

40503178 <__dso_handle>:
40503178:	00 00 00 00 	unimp  0

4050317c <p.0>:
4050317c:	40 50 31 28 	call  4190f61c <__end+0x140b6e4>

40503180 <impure_data>:
40503180:	00 00 00 00 	unimp  0
40503184:	40 50 34 6c 	call  41910334 <__end+0x140c3fc>
40503188:	40 50 35 38 	call  41910668 <__end+0x140c730>
4050318c:	40 50 36 04 	call  4191099c <__end+0x140ca64>
40503190:	00 00 00 00 	unimp  0
	...
405031b4:	40 50 31 38 	call  4190f694 <__end+0x140b75c>
405031b8:	00 00 00 00 	unimp  0
	...
4050322c:	00 00 00 01 	unimp  0x1
40503230:	33 0e ab cd 	sethi  %hi(0x3aaf3400), %i1
40503234:	12 34 e6 6d 	unknown
40503238:	de ec 00 05 	ldstuba  [ %l0 + %g5 ] (0), %o7
4050323c:	00 0b 00 00 	unimp  0xb0000
	...

405036d0 <_impure_ptr>:
405036d0:	40 50 31 80 	call  4190fcd0 <__end+0x140bd98>
405036d4:	00 00 00 00 	unimp  0

405036d8 <__malloc_sbrk_base>:
405036d8:	ff ff ff ff 	unknown

405036dc <__malloc_trim_threshold>:
405036dc:	00 02 00 00 	unimp  0x20000

405036e0 <__malloc_av_>:
	...
405036e8:	40 50 36 e0 	call  41911268 <__end+0x140d330>
405036ec:	40 50 36 e0 	call  4191126c <__end+0x140d334>
405036f0:	40 50 36 e8 	call  41911290 <__end+0x140d358>
405036f4:	40 50 36 e8 	call  41911294 <__end+0x140d35c>
405036f8:	40 50 36 f0 	call  419112b8 <__end+0x140d380>
405036fc:	40 50 36 f0 	call  419112bc <__end+0x140d384>
40503700:	40 50 36 f8 	call  419112e0 <__end+0x140d3a8>
40503704:	40 50 36 f8 	call  419112e4 <__end+0x140d3ac>
40503708:	40 50 37 00 	call  41911308 <__end+0x140d3d0>
4050370c:	40 50 37 00 	call  4191130c <__end+0x140d3d4>
40503710:	40 50 37 08 	call  41911330 <__end+0x140d3f8>
40503714:	40 50 37 08 	call  41911334 <__end+0x140d3fc>
40503718:	40 50 37 10 	call  41911358 <__end+0x140d420>
4050371c:	40 50 37 10 	call  4191135c <__end+0x140d424>
40503720:	40 50 37 18 	call  41911380 <__end+0x140d448>
40503724:	40 50 37 18 	call  41911384 <__end+0x140d44c>
40503728:	40 50 37 20 	call  419113a8 <__end+0x140d470>
4050372c:	40 50 37 20 	call  419113ac <__end+0x140d474>
40503730:	40 50 37 28 	call  419113d0 <__end+0x140d498>
40503734:	40 50 37 28 	call  419113d4 <__end+0x140d49c>
40503738:	40 50 37 30 	call  419113f8 <__end+0x140d4c0>
4050373c:	40 50 37 30 	call  419113fc <__end+0x140d4c4>
40503740:	40 50 37 38 	call  41911420 <__end+0x140d4e8>
40503744:	40 50 37 38 	call  41911424 <__end+0x140d4ec>
40503748:	40 50 37 40 	call  41911448 <__end+0x140d510>
4050374c:	40 50 37 40 	call  4191144c <__end+0x140d514>
40503750:	40 50 37 48 	call  41911470 <__end+0x140d538>
40503754:	40 50 37 48 	call  41911474 <__end+0x140d53c>
40503758:	40 50 37 50 	call  41911498 <__end+0x140d560>
4050375c:	40 50 37 50 	call  4191149c <__end+0x140d564>
40503760:	40 50 37 58 	call  419114c0 <__end+0x140d588>
40503764:	40 50 37 58 	call  419114c4 <__end+0x140d58c>
40503768:	40 50 37 60 	call  419114e8 <__end+0x140d5b0>
4050376c:	40 50 37 60 	call  419114ec <__end+0x140d5b4>
40503770:	40 50 37 68 	call  41911510 <__end+0x140d5d8>
40503774:	40 50 37 68 	call  41911514 <__end+0x140d5dc>
40503778:	40 50 37 70 	call  41911538 <__end+0x140d600>
4050377c:	40 50 37 70 	call  4191153c <__end+0x140d604>
40503780:	40 50 37 78 	call  41911560 <__end+0x140d628>
40503784:	40 50 37 78 	call  41911564 <__end+0x140d62c>
40503788:	40 50 37 80 	call  41911588 <__end+0x140d650>
4050378c:	40 50 37 80 	call  4191158c <__end+0x140d654>
40503790:	40 50 37 88 	call  419115b0 <__end+0x140d678>
40503794:	40 50 37 88 	call  419115b4 <__end+0x140d67c>
40503798:	40 50 37 90 	call  419115d8 <__end+0x140d6a0>
4050379c:	40 50 37 90 	call  419115dc <__end+0x140d6a4>
405037a0:	40 50 37 98 	call  41911600 <__end+0x140d6c8>
405037a4:	40 50 37 98 	call  41911604 <__end+0x140d6cc>
405037a8:	40 50 37 a0 	call  41911628 <__end+0x140d6f0>
405037ac:	40 50 37 a0 	call  4191162c <__end+0x140d6f4>
405037b0:	40 50 37 a8 	call  41911650 <__end+0x140d718>
405037b4:	40 50 37 a8 	call  41911654 <__end+0x140d71c>
405037b8:	40 50 37 b0 	call  41911678 <__end+0x140d740>
405037bc:	40 50 37 b0 	call  4191167c <__end+0x140d744>
405037c0:	40 50 37 b8 	call  419116a0 <__end+0x140d768>
405037c4:	40 50 37 b8 	call  419116a4 <__end+0x140d76c>
405037c8:	40 50 37 c0 	call  419116c8 <__end+0x140d790>
405037cc:	40 50 37 c0 	call  419116cc <__end+0x140d794>
405037d0:	40 50 37 c8 	call  419116f0 <__end+0x140d7b8>
405037d4:	40 50 37 c8 	call  419116f4 <__end+0x140d7bc>
405037d8:	40 50 37 d0 	call  41911718 <__end+0x140d7e0>
405037dc:	40 50 37 d0 	call  4191171c <__end+0x140d7e4>
405037e0:	40 50 37 d8 	call  41911740 <__end+0x140d808>
405037e4:	40 50 37 d8 	call  41911744 <__end+0x140d80c>
405037e8:	40 50 37 e0 	call  41911768 <__end+0x140d830>
405037ec:	40 50 37 e0 	call  4191176c <__end+0x140d834>
405037f0:	40 50 37 e8 	call  41911790 <__end+0x140d858>
405037f4:	40 50 37 e8 	call  41911794 <__end+0x140d85c>
405037f8:	40 50 37 f0 	call  419117b8 <__end+0x140d880>
405037fc:	40 50 37 f0 	call  419117bc <__end+0x140d884>
40503800:	40 50 37 f8 	call  419117e0 <__end+0x140d8a8>
40503804:	40 50 37 f8 	call  419117e4 <__end+0x140d8ac>
40503808:	40 50 38 00 	call  41911808 <__end+0x140d8d0>
4050380c:	40 50 38 00 	call  4191180c <__end+0x140d8d4>
40503810:	40 50 38 08 	call  41911830 <__end+0x140d8f8>
40503814:	40 50 38 08 	call  41911834 <__end+0x140d8fc>
40503818:	40 50 38 10 	call  41911858 <__end+0x140d920>
4050381c:	40 50 38 10 	call  4191185c <__end+0x140d924>
40503820:	40 50 38 18 	call  41911880 <__end+0x140d948>
40503824:	40 50 38 18 	call  41911884 <__end+0x140d94c>
40503828:	40 50 38 20 	call  419118a8 <__end+0x140d970>
4050382c:	40 50 38 20 	call  419118ac <__end+0x140d974>
40503830:	40 50 38 28 	call  419118d0 <__end+0x140d998>
40503834:	40 50 38 28 	call  419118d4 <__end+0x140d99c>
40503838:	40 50 38 30 	call  419118f8 <__end+0x140d9c0>
4050383c:	40 50 38 30 	call  419118fc <__end+0x140d9c4>
40503840:	40 50 38 38 	call  41911920 <__end+0x140d9e8>
40503844:	40 50 38 38 	call  41911924 <__end+0x140d9ec>
40503848:	40 50 38 40 	call  41911948 <__end+0x140da10>
4050384c:	40 50 38 40 	call  4191194c <__end+0x140da14>
40503850:	40 50 38 48 	call  41911970 <__end+0x140da38>
40503854:	40 50 38 48 	call  41911974 <__end+0x140da3c>
40503858:	40 50 38 50 	call  41911998 <__end+0x140da60>
4050385c:	40 50 38 50 	call  4191199c <__end+0x140da64>
40503860:	40 50 38 58 	call  419119c0 <__end+0x140da88>
40503864:	40 50 38 58 	call  419119c4 <__end+0x140da8c>
40503868:	40 50 38 60 	call  419119e8 <__end+0x140dab0>
4050386c:	40 50 38 60 	call  419119ec <__end+0x140dab4>
40503870:	40 50 38 68 	call  41911a10 <__end+0x140dad8>
40503874:	40 50 38 68 	call  41911a14 <__end+0x140dadc>
40503878:	40 50 38 70 	call  41911a38 <__end+0x140db00>
4050387c:	40 50 38 70 	call  41911a3c <__end+0x140db04>
40503880:	40 50 38 78 	call  41911a60 <__end+0x140db28>
40503884:	40 50 38 78 	call  41911a64 <__end+0x140db2c>
40503888:	40 50 38 80 	call  41911a88 <__end+0x140db50>
4050388c:	40 50 38 80 	call  41911a8c <__end+0x140db54>
40503890:	40 50 38 88 	call  41911ab0 <__end+0x140db78>
40503894:	40 50 38 88 	call  41911ab4 <__end+0x140db7c>
40503898:	40 50 38 90 	call  41911ad8 <__end+0x140dba0>
4050389c:	40 50 38 90 	call  41911adc <__end+0x140dba4>
405038a0:	40 50 38 98 	call  41911b00 <__end+0x140dbc8>
405038a4:	40 50 38 98 	call  41911b04 <__end+0x140dbcc>
405038a8:	40 50 38 a0 	call  41911b28 <__end+0x140dbf0>
405038ac:	40 50 38 a0 	call  41911b2c <__end+0x140dbf4>
405038b0:	40 50 38 a8 	call  41911b50 <__end+0x140dc18>
405038b4:	40 50 38 a8 	call  41911b54 <__end+0x140dc1c>
405038b8:	40 50 38 b0 	call  41911b78 <__end+0x140dc40>
405038bc:	40 50 38 b0 	call  41911b7c <__end+0x140dc44>
405038c0:	40 50 38 b8 	call  41911ba0 <__end+0x140dc68>
405038c4:	40 50 38 b8 	call  41911ba4 <__end+0x140dc6c>
405038c8:	40 50 38 c0 	call  41911bc8 <__end+0x140dc90>
405038cc:	40 50 38 c0 	call  41911bcc <__end+0x140dc94>
405038d0:	40 50 38 c8 	call  41911bf0 <__end+0x140dcb8>
405038d4:	40 50 38 c8 	call  41911bf4 <__end+0x140dcbc>
405038d8:	40 50 38 d0 	call  41911c18 <__end+0x140dce0>
405038dc:	40 50 38 d0 	call  41911c1c <__end+0x140dce4>
405038e0:	40 50 38 d8 	call  41911c40 <__end+0x140dd08>
405038e4:	40 50 38 d8 	call  41911c44 <__end+0x140dd0c>
405038e8:	40 50 38 e0 	call  41911c68 <__end+0x140dd30>
405038ec:	40 50 38 e0 	call  41911c6c <__end+0x140dd34>
405038f0:	40 50 38 e8 	call  41911c90 <__end+0x140dd58>
405038f4:	40 50 38 e8 	call  41911c94 <__end+0x140dd5c>
405038f8:	40 50 38 f0 	call  41911cb8 <__end+0x140dd80>
405038fc:	40 50 38 f0 	call  41911cbc <__end+0x140dd84>
40503900:	40 50 38 f8 	call  41911ce0 <__end+0x140dda8>
40503904:	40 50 38 f8 	call  41911ce4 <__end+0x140ddac>
40503908:	40 50 39 00 	call  41911d08 <__end+0x140ddd0>
4050390c:	40 50 39 00 	call  41911d0c <__end+0x140ddd4>
40503910:	40 50 39 08 	call  41911d30 <__end+0x140ddf8>
40503914:	40 50 39 08 	call  41911d34 <__end+0x140ddfc>
40503918:	40 50 39 10 	call  41911d58 <__end+0x140de20>
4050391c:	40 50 39 10 	call  41911d5c <__end+0x140de24>
40503920:	40 50 39 18 	call  41911d80 <__end+0x140de48>
40503924:	40 50 39 18 	call  41911d84 <__end+0x140de4c>
40503928:	40 50 39 20 	call  41911da8 <__end+0x140de70>
4050392c:	40 50 39 20 	call  41911dac <__end+0x140de74>
40503930:	40 50 39 28 	call  41911dd0 <__end+0x140de98>
40503934:	40 50 39 28 	call  41911dd4 <__end+0x140de9c>
40503938:	40 50 39 30 	call  41911df8 <__end+0x140dec0>
4050393c:	40 50 39 30 	call  41911dfc <__end+0x140dec4>
40503940:	40 50 39 38 	call  41911e20 <__end+0x140dee8>
40503944:	40 50 39 38 	call  41911e24 <__end+0x140deec>
40503948:	40 50 39 40 	call  41911e48 <__end+0x140df10>
4050394c:	40 50 39 40 	call  41911e4c <__end+0x140df14>
40503950:	40 50 39 48 	call  41911e70 <__end+0x140df38>
40503954:	40 50 39 48 	call  41911e74 <__end+0x140df3c>
40503958:	40 50 39 50 	call  41911e98 <__end+0x140df60>
4050395c:	40 50 39 50 	call  41911e9c <__end+0x140df64>
40503960:	40 50 39 58 	call  41911ec0 <__end+0x140df88>
40503964:	40 50 39 58 	call  41911ec4 <__end+0x140df8c>
40503968:	40 50 39 60 	call  41911ee8 <__end+0x140dfb0>
4050396c:	40 50 39 60 	call  41911eec <__end+0x140dfb4>
40503970:	40 50 39 68 	call  41911f10 <__end+0x140dfd8>
40503974:	40 50 39 68 	call  41911f14 <__end+0x140dfdc>
40503978:	40 50 39 70 	call  41911f38 <__end+0x140e000>
4050397c:	40 50 39 70 	call  41911f3c <__end+0x140e004>
40503980:	40 50 39 78 	call  41911f60 <__end+0x140e028>
40503984:	40 50 39 78 	call  41911f64 <__end+0x140e02c>
40503988:	40 50 39 80 	call  41911f88 <__end+0x140e050>
4050398c:	40 50 39 80 	call  41911f8c <__end+0x140e054>
40503990:	40 50 39 88 	call  41911fb0 <__end+0x140e078>
40503994:	40 50 39 88 	call  41911fb4 <__end+0x140e07c>
40503998:	40 50 39 90 	call  41911fd8 <__end+0x140e0a0>
4050399c:	40 50 39 90 	call  41911fdc <__end+0x140e0a4>
405039a0:	40 50 39 98 	call  41912000 <__end+0x140e0c8>
405039a4:	40 50 39 98 	call  41912004 <__end+0x140e0cc>
405039a8:	40 50 39 a0 	call  41912028 <__end+0x140e0f0>
405039ac:	40 50 39 a0 	call  4191202c <__end+0x140e0f4>
405039b0:	40 50 39 a8 	call  41912050 <__end+0x140e118>
405039b4:	40 50 39 a8 	call  41912054 <__end+0x140e11c>
405039b8:	40 50 39 b0 	call  41912078 <__end+0x140e140>
405039bc:	40 50 39 b0 	call  4191207c <__end+0x140e144>
405039c0:	40 50 39 b8 	call  419120a0 <__end+0x140e168>
405039c4:	40 50 39 b8 	call  419120a4 <__end+0x140e16c>
405039c8:	40 50 39 c0 	call  419120c8 <__end+0x140e190>
405039cc:	40 50 39 c0 	call  419120cc <__end+0x140e194>
405039d0:	40 50 39 c8 	call  419120f0 <__end+0x140e1b8>
405039d4:	40 50 39 c8 	call  419120f4 <__end+0x140e1bc>
405039d8:	40 50 39 d0 	call  41912118 <__end+0x140e1e0>
405039dc:	40 50 39 d0 	call  4191211c <__end+0x140e1e4>
405039e0:	40 50 39 d8 	call  41912140 <__end+0x140e208>
405039e4:	40 50 39 d8 	call  41912144 <__end+0x140e20c>
405039e8:	40 50 39 e0 	call  41912168 <__end+0x140e230>
405039ec:	40 50 39 e0 	call  4191216c <__end+0x140e234>
405039f0:	40 50 39 e8 	call  41912190 <__end+0x140e258>
405039f4:	40 50 39 e8 	call  41912194 <__end+0x140e25c>
405039f8:	40 50 39 f0 	call  419121b8 <__end+0x140e280>
405039fc:	40 50 39 f0 	call  419121bc <__end+0x140e284>
40503a00:	40 50 39 f8 	call  419121e0 <__end+0x140e2a8>
40503a04:	40 50 39 f8 	call  419121e4 <__end+0x140e2ac>
40503a08:	40 50 3a 00 	call  41912208 <__end+0x140e2d0>
40503a0c:	40 50 3a 00 	call  4191220c <__end+0x140e2d4>
40503a10:	40 50 3a 08 	call  41912230 <__end+0x140e2f8>
40503a14:	40 50 3a 08 	call  41912234 <__end+0x140e2fc>
40503a18:	40 50 3a 10 	call  41912258 <__end+0x140e320>
40503a1c:	40 50 3a 10 	call  4191225c <__end+0x140e324>
40503a20:	40 50 3a 18 	call  41912280 <__end+0x140e348>
40503a24:	40 50 3a 18 	call  41912284 <__end+0x140e34c>
40503a28:	40 50 3a 20 	call  419122a8 <__end+0x140e370>
40503a2c:	40 50 3a 20 	call  419122ac <__end+0x140e374>
40503a30:	40 50 3a 28 	call  419122d0 <__end+0x140e398>
40503a34:	40 50 3a 28 	call  419122d4 <__end+0x140e39c>
40503a38:	40 50 3a 30 	call  419122f8 <__end+0x140e3c0>
40503a3c:	40 50 3a 30 	call  419122fc <__end+0x140e3c4>
40503a40:	40 50 3a 38 	call  41912320 <__end+0x140e3e8>
40503a44:	40 50 3a 38 	call  41912324 <__end+0x140e3ec>
40503a48:	40 50 3a 40 	call  41912348 <__end+0x140e410>
40503a4c:	40 50 3a 40 	call  4191234c <__end+0x140e414>
40503a50:	40 50 3a 48 	call  41912370 <__end+0x140e438>
40503a54:	40 50 3a 48 	call  41912374 <__end+0x140e43c>
40503a58:	40 50 3a 50 	call  41912398 <__end+0x140e460>
40503a5c:	40 50 3a 50 	call  4191239c <__end+0x140e464>
40503a60:	40 50 3a 58 	call  419123c0 <__end+0x140e488>
40503a64:	40 50 3a 58 	call  419123c4 <__end+0x140e48c>
40503a68:	40 50 3a 60 	call  419123e8 <__end+0x140e4b0>
40503a6c:	40 50 3a 60 	call  419123ec <__end+0x140e4b4>
40503a70:	40 50 3a 68 	call  41912410 <__end+0x140e4d8>
40503a74:	40 50 3a 68 	call  41912414 <__end+0x140e4dc>
40503a78:	40 50 3a 70 	call  41912438 <__end+0x140e500>
40503a7c:	40 50 3a 70 	call  4191243c <__end+0x140e504>
40503a80:	40 50 3a 78 	call  41912460 <__end+0x140e528>
40503a84:	40 50 3a 78 	call  41912464 <__end+0x140e52c>
40503a88:	40 50 3a 80 	call  41912488 <__end+0x140e550>
40503a8c:	40 50 3a 80 	call  4191248c <__end+0x140e554>
40503a90:	40 50 3a 88 	call  419124b0 <__end+0x140e578>
40503a94:	40 50 3a 88 	call  419124b4 <__end+0x140e57c>
40503a98:	40 50 3a 90 	call  419124d8 <__end+0x140e5a0>
40503a9c:	40 50 3a 90 	call  419124dc <__end+0x140e5a4>
40503aa0:	40 50 3a 98 	call  41912500 <__end+0x140e5c8>
40503aa4:	40 50 3a 98 	call  41912504 <__end+0x140e5cc>
40503aa8:	40 50 3a a0 	call  41912528 <__end+0x140e5f0>
40503aac:	40 50 3a a0 	call  4191252c <__end+0x140e5f4>
40503ab0:	40 50 3a a8 	call  41912550 <__end+0x140e618>
40503ab4:	40 50 3a a8 	call  41912554 <__end+0x140e61c>
40503ab8:	40 50 3a b0 	call  41912578 <__end+0x140e640>
40503abc:	40 50 3a b0 	call  4191257c <__end+0x140e644>
40503ac0:	40 50 3a b8 	call  419125a0 <__end+0x140e668>
40503ac4:	40 50 3a b8 	call  419125a4 <__end+0x140e66c>
40503ac8:	40 50 3a c0 	call  419125c8 <__end+0x140e690>
40503acc:	40 50 3a c0 	call  419125cc <__end+0x140e694>
40503ad0:	40 50 3a c8 	call  419125f0 <__end+0x140e6b8>
40503ad4:	40 50 3a c8 	call  419125f4 <__end+0x140e6bc>
40503ad8:	40 50 3a d0 	call  41912618 <__end+0x140e6e0>
40503adc:	40 50 3a d0 	call  4191261c <__end+0x140e6e4>
40503ae0:	40 50 3a d8 	call  41912640 <__end+0x140e708>
40503ae4:	40 50 3a d8 	call  41912644 <__end+0x140e70c>

40503ae8 <__malloc_lock_object>:
40503ae8:	00 00 00 00 	unimp  0
40503aec:	40 50 3a e8 	call  4191268c <__end+0x140e754>
40503af0:	00 00 00 00 	unimp  0
	...
40503afc:	00 00 00 02 	unimp  0x2
	...

40503b5c <_lb_spillglobals>:
	...

40503b78 <nestedirq>:
40503b78:	00 00 00 00 	unimp  0

40503b7c <fastirq>:
40503b7c:	00 00 00 00 	unimp  0

40503b80 <nestcount>:
40503b80:	00 00 00 00 	unimp  0

40503b84 <irqmp>:
	...

40503b8c <console>:
40503b8c:	80 00 01 00 	unknown

40503b90 <_nwindows>:
40503b90:	00 00 00 08 	unimp  0x8

40503b94 <_nwindows_min1>:
40503b94:	00 00 00 07 	unimp  0x7

40503b98 <_nwindows_min2>:
40503b98:	00 00 00 06 	unimp  0x6

40503b9c <_leon_version>:
40503b9c:	00 00 00 03 	unimp  0x3

40503ba0 <jiffies_64>:
40503ba0:	00 00 00 00 	unimp  0
40503ba4:	ff ff 8a d0 	unknown

40503ba8 <rtc>:
40503ba8:	80 00 03 10 	unknown
Disassembly of section .bss:

40503bb0 <__bss_start>:
40503bb0:	00 00 00 00 	unimp  0

40503bb4 <object.2>:
	...

40503bcc <lock>:
	...

40503c40 <__malloc_current_mallinfo>:
	...

40503c68 <__malloc_max_total_mem>:
40503c68:	00 00 00 00 	unimp  0

40503c6c <__malloc_max_sbrked_mem>:
40503c6c:	00 00 00 00 	unimp  0

40503c70 <__malloc_top_pad>:
40503c70:	00 00 00 00 	unimp  0

40503c74 <schedule_callback>:
40503c74:	00 00 00 00 	unimp  0

40503c78 <inirq>:
40503c78:	00 00 00 00 	unimp  0

40503c7c <_oirqtbl>:
	...

40503e7c <_irqtbl>:
	...

40503efc <__lbst_pthread_mutexattr_settype>:
40503efc:	00 00 00 00 	unimp  0

40503f00 <__lbst_pthread_mutexattr_destroy>:
40503f00:	00 00 00 00 	unimp  0

40503f04 <__lbst_pthread_mutexattr_init>:
40503f04:	00 00 00 00 	unimp  0

40503f08 <__lbst_pthread_mutex_unlock>:
40503f08:	00 00 00 00 	unimp  0

40503f0c <__lbst_pthread_mutex_lock>:
40503f0c:	00 00 00 00 	unimp  0

40503f10 <__lbst_pthread_mutex_trylock>:
40503f10:	00 00 00 00 	unimp  0

40503f14 <__lbst_pthread_mutex_destroy>:
40503f14:	00 00 00 00 	unimp  0

40503f18 <__lbst_pthread_mutex_init>:
40503f18:	00 00 00 00 	unimp  0

40503f1c <errno>:
40503f1c:	00 00 00 00 	unimp  0

40503f20 <heap_ptr>:
	...

40503f30 <xtime>:
	...
Disassembly of section .jcr:

40503f38 <__JCR_END__>:
40503f38:	00 00 00 00 	unimp  0
Disassembly of section .stab:

00000000 <.stab>:
       0:	00 00 00 01 	unimp  0x1
       4:	00 00 09 d3 	unimp  0x9d3
       8:	00 00 68 25 	unimp  0x6825
       c:	00 00 00 01 	unimp  0x1
      10:	64 00 00 00 	call  90000010 <LEON_REG+0x10000010>
      14:	40 50 00 00 	call  1400014 <_trap_table-0x3f0fffec>
      18:	00 00 00 11 	unimp  0x11
      1c:	84 00 00 00 	add  %g0, %g0, %g2
      20:	40 50 00 00 	call  1400020 <_trap_table-0x3f0fffe0>
      24:	00 00 00 00 	unimp  0
      28:	44 00 00 3a 	call  10000110 <_trap_table-0x304ffef0>
      2c:	40 50 00 00 	call  140002c <_trap_table-0x3f0fffd4>
      30:	00 00 00 00 	unimp  0
      34:	44 00 00 3b 	call  10000120 <_trap_table-0x304ffee0>
      38:	40 50 00 10 	call  1400078 <_trap_table-0x3f0fff88>
      3c:	00 00 00 00 	unimp  0
      40:	44 00 00 3c 	call  10000130 <_trap_table-0x304ffed0>
      44:	40 50 00 20 	call  14000c4 <_trap_table-0x3f0fff3c>
      48:	00 00 00 00 	unimp  0
      4c:	44 00 00 3d 	call  10000140 <_trap_table-0x304ffec0>
      50:	40 50 00 30 	call  1400110 <_trap_table-0x3f0ffef0>
      54:	00 00 00 00 	unimp  0
      58:	44 00 00 41 	call  1000015c <_trap_table-0x304ffea4>
      5c:	40 50 00 40 	call  140015c <_trap_table-0x3f0ffea4>
      60:	00 00 00 00 	unimp  0
      64:	44 00 00 44 	call  10000174 <_trap_table-0x304ffe8c>
      68:	40 50 00 50 	call  14001a8 <_trap_table-0x3f0ffe58>
      6c:	00 00 00 00 	unimp  0
      70:	44 00 00 45 	call  10000184 <_trap_table-0x304ffe7c>
      74:	40 50 00 60 	call  14001f4 <_trap_table-0x3f0ffe0c>
      78:	00 00 00 00 	unimp  0
      7c:	44 00 00 49 	call  100001a0 <_trap_table-0x304ffe60>
      80:	40 50 00 70 	call  1400240 <_trap_table-0x3f0ffdc0>
      84:	00 00 00 00 	unimp  0
      88:	44 00 00 4a 	call  100001b0 <_trap_table-0x304ffe50>
      8c:	40 50 00 80 	call  140028c <_trap_table-0x3f0ffd74>
      90:	00 00 00 00 	unimp  0
      94:	44 00 00 4b 	call  100001c0 <_trap_table-0x304ffe40>
      98:	40 50 00 90 	call  14002d8 <_trap_table-0x3f0ffd28>
      9c:	00 00 00 00 	unimp  0
      a0:	44 00 00 4c 	call  100001d0 <_trap_table-0x304ffe30>
      a4:	40 50 00 a0 	call  1400324 <_trap_table-0x3f0ffcdc>
      a8:	00 00 00 00 	unimp  0
      ac:	44 00 00 4e 	call  100001e4 <_trap_table-0x304ffe1c>
      b0:	40 50 00 b0 	call  1400370 <_trap_table-0x3f0ffc90>
      b4:	00 00 00 00 	unimp  0
      b8:	44 00 00 4f 	call  100001f4 <_trap_table-0x304ffe0c>
      bc:	40 50 00 c0 	call  14003bc <_trap_table-0x3f0ffc44>
      c0:	00 00 00 00 	unimp  0
      c4:	44 00 00 50 	call  10000204 <_trap_table-0x304ffdfc>
      c8:	40 50 00 d0 	call  1400408 <_trap_table-0x3f0ffbf8>
      cc:	00 00 00 00 	unimp  0
      d0:	44 00 00 51 	call  10000214 <_trap_table-0x304ffdec>
      d4:	40 50 00 e0 	call  1400454 <_trap_table-0x3f0ffbac>
      d8:	00 00 00 00 	unimp  0
      dc:	44 00 00 52 	call  10000224 <_trap_table-0x304ffddc>
      e0:	40 50 00 f0 	call  14004a0 <_trap_table-0x3f0ffb60>
      e4:	00 00 00 00 	unimp  0
      e8:	44 00 00 53 	call  10000234 <_trap_table-0x304ffdcc>
      ec:	40 50 01 00 	call  14004ec <_trap_table-0x3f0ffb14>
      f0:	00 00 00 00 	unimp  0
      f4:	44 00 00 56 	call  1000024c <_trap_table-0x304ffdb4>
      f8:	40 50 01 10 	call  1400538 <_trap_table-0x3f0ffac8>
      fc:	00 00 00 00 	unimp  0
     100:	44 00 00 57 	call  1000025c <_trap_table-0x304ffda4>
     104:	40 50 01 20 	call  1400584 <_trap_table-0x3f0ffa7c>
     108:	00 00 00 00 	unimp  0
     10c:	44 00 00 58 	call  1000026c <_trap_table-0x304ffd94>
     110:	40 50 01 30 	call  14005d0 <_trap_table-0x3f0ffa30>
     114:	00 00 00 00 	unimp  0
     118:	44 00 00 59 	call  1000027c <_trap_table-0x304ffd84>
     11c:	40 50 01 40 	call  140061c <_trap_table-0x3f0ff9e4>
     120:	00 00 00 00 	unimp  0
     124:	44 00 00 5a 	call  1000028c <_trap_table-0x304ffd74>
     128:	40 50 01 50 	call  1400668 <_trap_table-0x3f0ff998>
     12c:	00 00 00 00 	unimp  0
     130:	44 00 00 5b 	call  1000029c <_trap_table-0x304ffd64>
     134:	40 50 01 60 	call  14006b4 <_trap_table-0x3f0ff94c>
     138:	00 00 00 00 	unimp  0
     13c:	44 00 00 5c 	call  100002ac <_trap_table-0x304ffd54>
     140:	40 50 01 70 	call  1400700 <_trap_table-0x3f0ff900>
     144:	00 00 00 00 	unimp  0
     148:	44 00 00 5d 	call  100002bc <_trap_table-0x304ffd44>
     14c:	40 50 01 80 	call  140074c <_trap_table-0x3f0ff8b4>
     150:	00 00 00 00 	unimp  0
     154:	44 00 00 5e 	call  100002cc <_trap_table-0x304ffd34>
     158:	40 50 01 90 	call  1400798 <_trap_table-0x3f0ff868>
     15c:	00 00 00 00 	unimp  0
     160:	44 00 00 5f 	call  100002dc <_trap_table-0x304ffd24>
     164:	40 50 01 a0 	call  14007e4 <_trap_table-0x3f0ff81c>
     168:	00 00 00 00 	unimp  0
     16c:	44 00 00 60 	call  100002ec <_trap_table-0x304ffd14>
     170:	40 50 01 b0 	call  1400830 <_trap_table-0x3f0ff7d0>
     174:	00 00 00 00 	unimp  0
     178:	44 00 00 61 	call  100002fc <_trap_table-0x304ffd04>
     17c:	40 50 01 c0 	call  140087c <_trap_table-0x3f0ff784>
     180:	00 00 00 00 	unimp  0
     184:	44 00 00 62 	call  1000030c <_trap_table-0x304ffcf4>
     188:	40 50 01 d0 	call  14008c8 <_trap_table-0x3f0ff738>
     18c:	00 00 00 00 	unimp  0
     190:	44 00 00 63 	call  1000031c <_trap_table-0x304ffce4>
     194:	40 50 01 e0 	call  1400914 <_trap_table-0x3f0ff6ec>
     198:	00 00 00 00 	unimp  0
     19c:	44 00 00 64 	call  1000032c <_trap_table-0x304ffcd4>
     1a0:	40 50 01 f0 	call  1400960 <_trap_table-0x3f0ff6a0>
     1a4:	00 00 00 00 	unimp  0
     1a8:	44 00 00 65 	call  1000033c <_trap_table-0x304ffcc4>
     1ac:	40 50 02 00 	call  14009ac <_trap_table-0x3f0ff654>
     1b0:	00 00 00 00 	unimp  0
     1b4:	44 00 00 66 	call  1000034c <_trap_table-0x304ffcb4>
     1b8:	40 50 02 40 	call  1400ab8 <_trap_table-0x3f0ff548>
     1bc:	00 00 00 00 	unimp  0
     1c0:	44 00 00 67 	call  1000035c <_trap_table-0x304ffca4>
     1c4:	40 50 02 50 	call  1400b04 <_trap_table-0x3f0ff4fc>
     1c8:	00 00 00 00 	unimp  0
     1cc:	44 00 00 68 	call  1000036c <_trap_table-0x304ffc94>
     1d0:	40 50 02 80 	call  1400bd0 <_trap_table-0x3f0ff430>
     1d4:	00 00 00 00 	unimp  0
     1d8:	44 00 00 69 	call  1000037c <_trap_table-0x304ffc84>
     1dc:	40 50 02 90 	call  1400c1c <_trap_table-0x3f0ff3e4>
     1e0:	00 00 00 00 	unimp  0
     1e4:	44 00 00 6a 	call  1000038c <_trap_table-0x304ffc74>
     1e8:	40 50 02 c0 	call  1400ce8 <_trap_table-0x3f0ff318>
     1ec:	00 00 00 00 	unimp  0
     1f0:	44 00 00 6b 	call  1000039c <_trap_table-0x304ffc64>
     1f4:	40 50 03 00 	call  1400df4 <_trap_table-0x3f0ff20c>
     1f8:	00 00 00 00 	unimp  0
     1fc:	44 00 00 6c 	call  100003ac <_trap_table-0x304ffc54>
     200:	40 50 03 40 	call  1400f00 <_trap_table-0x3f0ff100>
     204:	00 00 00 00 	unimp  0
     208:	44 00 00 6d 	call  100003bc <_trap_table-0x304ffc44>
     20c:	40 50 03 80 	call  140100c <_trap_table-0x3f0feff4>
     210:	00 00 00 00 	unimp  0
     214:	44 00 00 6e 	call  100003cc <_trap_table-0x304ffc34>
     218:	40 50 03 c0 	call  1401118 <_trap_table-0x3f0feee8>
     21c:	00 00 00 00 	unimp  0
     220:	44 00 00 6f 	call  100003dc <_trap_table-0x304ffc24>
     224:	40 50 04 00 	call  1401224 <_trap_table-0x3f0feddc>
     228:	00 00 00 00 	unimp  0
     22c:	44 00 00 70 	call  100003ec <_trap_table-0x304ffc14>
     230:	40 50 04 40 	call  1401330 <_trap_table-0x3f0fecd0>
     234:	00 00 00 00 	unimp  0
     238:	44 00 00 71 	call  100003fc <_trap_table-0x304ffc04>
     23c:	40 50 04 80 	call  140143c <_trap_table-0x3f0febc4>
     240:	00 00 00 00 	unimp  0
     244:	44 00 00 72 	call  1000040c <_trap_table-0x304ffbf4>
     248:	40 50 04 c0 	call  1401548 <_trap_table-0x3f0feab8>
     24c:	00 00 00 00 	unimp  0
     250:	44 00 00 73 	call  1000041c <_trap_table-0x304ffbe4>
     254:	40 50 05 00 	call  1401654 <_trap_table-0x3f0fe9ac>
     258:	00 00 00 00 	unimp  0
     25c:	44 00 00 74 	call  1000042c <_trap_table-0x304ffbd4>
     260:	40 50 05 40 	call  1401760 <_trap_table-0x3f0fe8a0>
     264:	00 00 00 00 	unimp  0
     268:	44 00 00 75 	call  1000043c <_trap_table-0x304ffbc4>
     26c:	40 50 05 80 	call  140186c <_trap_table-0x3f0fe794>
     270:	00 00 00 00 	unimp  0
     274:	44 00 00 76 	call  1000044c <_trap_table-0x304ffbb4>
     278:	40 50 05 c0 	call  1401978 <_trap_table-0x3f0fe688>
     27c:	00 00 00 00 	unimp  0
     280:	44 00 00 77 	call  1000045c <_trap_table-0x304ffba4>
     284:	40 50 06 00 	call  1401a84 <_trap_table-0x3f0fe57c>
     288:	00 00 00 00 	unimp  0
     28c:	44 00 00 78 	call  1000046c <_trap_table-0x304ffb94>
     290:	40 50 06 40 	call  1401b90 <_trap_table-0x3f0fe470>
     294:	00 00 00 00 	unimp  0
     298:	44 00 00 79 	call  1000047c <_trap_table-0x304ffb84>
     29c:	40 50 06 80 	call  1401c9c <_trap_table-0x3f0fe364>
     2a0:	00 00 00 00 	unimp  0
     2a4:	44 00 00 7a 	call  1000048c <_trap_table-0x304ffb74>
     2a8:	40 50 06 c0 	call  1401da8 <_trap_table-0x3f0fe258>
     2ac:	00 00 00 00 	unimp  0
     2b0:	44 00 00 7b 	call  1000049c <_trap_table-0x304ffb64>
     2b4:	40 50 07 00 	call  1401eb4 <_trap_table-0x3f0fe14c>
     2b8:	00 00 00 00 	unimp  0
     2bc:	44 00 00 7c 	call  100004ac <_trap_table-0x304ffb54>
     2c0:	40 50 07 40 	call  1401fc0 <_trap_table-0x3f0fe040>
     2c4:	00 00 00 00 	unimp  0
     2c8:	44 00 00 7d 	call  100004bc <_trap_table-0x304ffb44>
     2cc:	40 50 07 80 	call  14020cc <_trap_table-0x3f0fdf34>
     2d0:	00 00 00 00 	unimp  0
     2d4:	44 00 00 7e 	call  100004cc <_trap_table-0x304ffb34>
     2d8:	40 50 07 c0 	call  14021d8 <_trap_table-0x3f0fde28>
     2dc:	00 00 00 00 	unimp  0
     2e0:	44 00 00 81 	call  100004e4 <_trap_table-0x304ffb1c>
     2e4:	40 50 08 00 	call  14022e4 <_trap_table-0x3f0fdd1c>
     2e8:	00 00 00 00 	unimp  0
     2ec:	44 00 00 83 	call  100004f8 <_trap_table-0x304ffb08>
     2f0:	40 50 08 30 	call  14023b0 <_trap_table-0x3f0fdc50>
     2f4:	00 00 00 00 	unimp  0
     2f8:	44 00 00 87 	call  10000514 <_trap_table-0x304ffaec>
     2fc:	40 50 08 40 	call  14023fc <_trap_table-0x3f0fdc04>
     300:	00 00 00 00 	unimp  0
     304:	44 00 00 88 	call  10000524 <_trap_table-0x304ffadc>
     308:	40 50 08 50 	call  1402448 <_trap_table-0x3f0fdbb8>
     30c:	00 00 00 00 	unimp  0
     310:	44 00 00 89 	call  10000534 <_trap_table-0x304ffacc>
     314:	40 50 08 60 	call  1402494 <_trap_table-0x3f0fdb6c>
     318:	00 00 00 00 	unimp  0
     31c:	44 00 00 8a 	call  10000544 <_trap_table-0x304ffabc>
     320:	40 50 08 80 	call  1402520 <_trap_table-0x3f0fdae0>
     324:	00 00 00 00 	unimp  0
     328:	44 00 00 8b 	call  10000554 <_trap_table-0x304ffaac>
     32c:	40 50 08 c0 	call  140262c <_trap_table-0x3f0fd9d4>
     330:	00 00 00 00 	unimp  0
     334:	44 00 00 8c 	call  10000564 <_trap_table-0x304ffa9c>
     338:	40 50 09 00 	call  1402738 <_trap_table-0x3f0fd8c8>
     33c:	00 00 00 00 	unimp  0
     340:	44 00 00 8d 	call  10000574 <_trap_table-0x304ffa8c>
     344:	40 50 09 40 	call  1402844 <_trap_table-0x3f0fd7bc>
     348:	00 00 00 00 	unimp  0
     34c:	44 00 00 8e 	call  10000584 <_trap_table-0x304ffa7c>
     350:	40 50 09 80 	call  1402950 <_trap_table-0x3f0fd6b0>
     354:	00 00 00 00 	unimp  0
     358:	44 00 00 8f 	call  10000594 <_trap_table-0x304ffa6c>
     35c:	40 50 09 c0 	call  1402a5c <_trap_table-0x3f0fd5a4>
     360:	00 00 00 00 	unimp  0
     364:	44 00 00 90 	call  100005a4 <_trap_table-0x304ffa5c>
     368:	40 50 0a 00 	call  1402b68 <_trap_table-0x3f0fd498>
     36c:	00 00 00 00 	unimp  0
     370:	44 00 00 91 	call  100005b4 <_trap_table-0x304ffa4c>
     374:	40 50 0a 40 	call  1402c74 <_trap_table-0x3f0fd38c>
     378:	00 00 00 00 	unimp  0
     37c:	44 00 00 92 	call  100005c4 <_trap_table-0x304ffa3c>
     380:	40 50 0a 80 	call  1402d80 <_trap_table-0x3f0fd280>
     384:	00 00 00 00 	unimp  0
     388:	44 00 00 93 	call  100005d4 <_trap_table-0x304ffa2c>
     38c:	40 50 0a c0 	call  1402e8c <_trap_table-0x3f0fd174>
     390:	00 00 00 00 	unimp  0
     394:	44 00 00 94 	call  100005e4 <_trap_table-0x304ffa1c>
     398:	40 50 0b 00 	call  1402f98 <_trap_table-0x3f0fd068>
     39c:	00 00 00 00 	unimp  0
     3a0:	44 00 00 95 	call  100005f4 <_trap_table-0x304ffa0c>
     3a4:	40 50 0b 40 	call  14030a4 <_trap_table-0x3f0fcf5c>
     3a8:	00 00 00 00 	unimp  0
     3ac:	44 00 00 96 	call  10000604 <_trap_table-0x304ff9fc>
     3b0:	40 50 0b 80 	call  14031b0 <_trap_table-0x3f0fce50>
     3b4:	00 00 00 00 	unimp  0
     3b8:	44 00 00 97 	call  10000614 <_trap_table-0x304ff9ec>
     3bc:	40 50 0b c0 	call  14032bc <_trap_table-0x3f0fcd44>
     3c0:	00 00 00 00 	unimp  0
     3c4:	44 00 00 98 	call  10000624 <_trap_table-0x304ff9dc>
     3c8:	40 50 0c 00 	call  14033c8 <_trap_table-0x3f0fcc38>
     3cc:	00 00 00 00 	unimp  0
     3d0:	44 00 00 99 	call  10000634 <_trap_table-0x304ff9cc>
     3d4:	40 50 0c 40 	call  14034d4 <_trap_table-0x3f0fcb2c>
     3d8:	00 00 00 00 	unimp  0
     3dc:	44 00 00 9a 	call  10000644 <_trap_table-0x304ff9bc>
     3e0:	40 50 0c 80 	call  14035e0 <_trap_table-0x3f0fca20>
     3e4:	00 00 00 00 	unimp  0
     3e8:	44 00 00 9b 	call  10000654 <_trap_table-0x304ff9ac>
     3ec:	40 50 0c c0 	call  14036ec <_trap_table-0x3f0fc914>
     3f0:	00 00 00 00 	unimp  0
     3f4:	44 00 00 9c 	call  10000664 <_trap_table-0x304ff99c>
     3f8:	40 50 0d 00 	call  14037f8 <_trap_table-0x3f0fc808>
     3fc:	00 00 00 00 	unimp  0
     400:	44 00 00 9d 	call  10000674 <_trap_table-0x304ff98c>
     404:	40 50 0d 40 	call  1403904 <_trap_table-0x3f0fc6fc>
     408:	00 00 00 00 	unimp  0
     40c:	44 00 00 9e 	call  10000684 <_trap_table-0x304ff97c>
     410:	40 50 0d 80 	call  1403a10 <_trap_table-0x3f0fc5f0>
     414:	00 00 00 00 	unimp  0
     418:	44 00 00 9f 	call  10000694 <_trap_table-0x304ff96c>
     41c:	40 50 0d c0 	call  1403b1c <_trap_table-0x3f0fc4e4>
     420:	00 00 00 00 	unimp  0
     424:	44 00 00 a0 	call  100006a4 <_trap_table-0x304ff95c>
     428:	40 50 0e 00 	call  1403c28 <_trap_table-0x3f0fc3d8>
     42c:	00 00 00 00 	unimp  0
     430:	44 00 00 a1 	call  100006b4 <_trap_table-0x304ff94c>
     434:	40 50 0e 40 	call  1403d34 <_trap_table-0x3f0fc2cc>
     438:	00 00 00 00 	unimp  0
     43c:	44 00 00 a2 	call  100006c4 <_trap_table-0x304ff93c>
     440:	40 50 0e 80 	call  1403e40 <_trap_table-0x3f0fc1c0>
     444:	00 00 00 00 	unimp  0
     448:	44 00 00 a3 	call  100006d4 <_trap_table-0x304ff92c>
     44c:	40 50 0e c0 	call  1403f4c <_trap_table-0x3f0fc0b4>
     450:	00 00 00 00 	unimp  0
     454:	44 00 00 a4 	call  100006e4 <_trap_table-0x304ff91c>
     458:	40 50 0f 00 	call  1404058 <_trap_table-0x3f0fbfa8>
     45c:	00 00 00 00 	unimp  0
     460:	44 00 00 a5 	call  100006f4 <_trap_table-0x304ff90c>
     464:	40 50 0f 40 	call  1404164 <_trap_table-0x3f0fbe9c>
     468:	00 00 00 00 	unimp  0
     46c:	44 00 00 a6 	call  10000704 <_trap_table-0x304ff8fc>
     470:	40 50 0f 80 	call  1404270 <_trap_table-0x3f0fbd90>
     474:	00 00 00 00 	unimp  0
     478:	44 00 00 a7 	call  10000714 <_trap_table-0x304ff8ec>
     47c:	40 50 0f c0 	call  140437c <_trap_table-0x3f0fbc84>
     480:	00 00 00 4b 	unimp  0x4b
     484:	64 00 00 00 	call  90000484 <LEON_REG+0x10000484>
     488:	40 50 10 00 	call  1404488 <_trap_table-0x3f0fbb78>
     48c:	00 00 00 5b 	unimp  0x5b
     490:	84 00 00 00 	add  %g0, %g0, %g2
     494:	40 50 10 00 	call  1404494 <_trap_table-0x3f0fbb6c>
     498:	00 00 00 00 	unimp  0
     49c:	44 00 00 1d 	call  10000510 <_trap_table-0x304ffaf0>
     4a0:	40 50 10 00 	call  14044a0 <_trap_table-0x3f0fbb60>
     4a4:	00 00 00 00 	unimp  0
     4a8:	44 00 00 24 	call  10000538 <_trap_table-0x304ffac8>
     4ac:	40 50 10 04 	call  14044bc <_trap_table-0x3f0fbb44>
     4b0:	00 00 00 00 	unimp  0
     4b4:	44 00 00 25 	call  10000548 <_trap_table-0x304ffab8>
     4b8:	40 50 10 08 	call  14044d8 <_trap_table-0x3f0fbb28>
     4bc:	00 00 00 00 	unimp  0
     4c0:	44 00 00 26 	call  10000558 <_trap_table-0x304ffaa8>
     4c4:	40 50 10 0c 	call  14044f4 <_trap_table-0x3f0fbb0c>
     4c8:	00 00 00 00 	unimp  0
     4cc:	44 00 00 27 	call  10000568 <_trap_table-0x304ffa98>
     4d0:	40 50 10 10 	call  1404510 <_trap_table-0x3f0fbaf0>
     4d4:	00 00 00 00 	unimp  0
     4d8:	44 00 00 28 	call  10000578 <_trap_table-0x304ffa88>
     4dc:	40 50 10 14 	call  140452c <_trap_table-0x3f0fbad4>
     4e0:	00 00 00 00 	unimp  0
     4e4:	44 00 00 29 	call  10000588 <_trap_table-0x304ffa78>
     4e8:	40 50 10 18 	call  1404548 <_trap_table-0x3f0fbab8>
     4ec:	00 00 00 00 	unimp  0
     4f0:	44 00 00 2b 	call  1000059c <_trap_table-0x304ffa64>
     4f4:	40 50 10 1c 	call  1404564 <_trap_table-0x3f0fba9c>
     4f8:	00 00 00 00 	unimp  0
     4fc:	44 00 00 2c 	call  100005ac <_trap_table-0x304ffa54>
     500:	40 50 10 20 	call  1404580 <_trap_table-0x3f0fba80>
     504:	00 00 00 00 	unimp  0
     508:	44 00 00 2d 	call  100005bc <_trap_table-0x304ffa44>
     50c:	40 50 10 24 	call  140459c <_trap_table-0x3f0fba64>
     510:	00 00 00 00 	unimp  0
     514:	44 00 00 2f 	call  100005d0 <_trap_table-0x304ffa30>
     518:	40 50 10 28 	call  14045b8 <_trap_table-0x3f0fba48>
     51c:	00 00 00 00 	unimp  0
     520:	44 00 00 30 	call  100005e0 <_trap_table-0x304ffa20>
     524:	40 50 10 30 	call  14045e4 <_trap_table-0x3f0fba1c>
     528:	00 00 00 00 	unimp  0
     52c:	44 00 00 32 	call  100005f4 <_trap_table-0x304ffa0c>
     530:	40 50 10 34 	call  1404600 <_trap_table-0x3f0fba00>
     534:	00 00 00 00 	unimp  0
     538:	44 00 00 33 	call  10000604 <_trap_table-0x304ff9fc>
     53c:	40 50 10 38 	call  140461c <_trap_table-0x3f0fb9e4>
     540:	00 00 00 00 	unimp  0
     544:	44 00 00 35 	call  10000618 <_trap_table-0x304ff9e8>
     548:	40 50 10 3c 	call  1404638 <_trap_table-0x3f0fb9c8>
     54c:	00 00 00 00 	unimp  0
     550:	44 00 00 36 	call  10000628 <_trap_table-0x304ff9d8>
     554:	40 50 10 40 	call  1404654 <_trap_table-0x3f0fb9ac>
     558:	00 00 00 00 	unimp  0
     55c:	44 00 00 38 	call  1000063c <_trap_table-0x304ff9c4>
     560:	40 50 10 44 	call  1404670 <_trap_table-0x3f0fb990>
     564:	00 00 00 00 	unimp  0
     568:	44 00 00 39 	call  1000064c <_trap_table-0x304ff9b4>
     56c:	40 50 10 48 	call  140468c <_trap_table-0x3f0fb974>
     570:	00 00 00 00 	unimp  0
     574:	44 00 00 3b 	call  10000660 <_trap_table-0x304ff9a0>
     578:	40 50 10 4c 	call  14046a8 <_trap_table-0x3f0fb958>
     57c:	00 00 00 00 	unimp  0
     580:	44 00 00 3c 	call  10000670 <_trap_table-0x304ff990>
     584:	40 50 10 54 	call  14046d4 <_trap_table-0x3f0fb92c>
     588:	00 00 00 00 	unimp  0
     58c:	44 00 00 3d 	call  10000680 <_trap_table-0x304ff980>
     590:	40 50 10 58 	call  14046f0 <_trap_table-0x3f0fb910>
     594:	00 00 00 00 	unimp  0
     598:	44 00 00 3f 	call  10000694 <_trap_table-0x304ff96c>
     59c:	40 50 10 5c 	call  140470c <_trap_table-0x3f0fb8f4>
     5a0:	00 00 00 00 	unimp  0
     5a4:	44 00 00 40 	call  100006a4 <_trap_table-0x304ff95c>
     5a8:	40 50 10 60 	call  1404728 <_trap_table-0x3f0fb8d8>
     5ac:	00 00 00 00 	unimp  0
     5b0:	44 00 00 42 	call  100006b8 <_trap_table-0x304ff948>
     5b4:	40 50 10 64 	call  1404744 <_trap_table-0x3f0fb8bc>
     5b8:	00 00 00 00 	unimp  0
     5bc:	44 00 00 43 	call  100006c8 <_trap_table-0x304ff938>
     5c0:	40 50 10 68 	call  1404760 <_trap_table-0x3f0fb8a0>
     5c4:	00 00 00 00 	unimp  0
     5c8:	44 00 00 44 	call  100006d8 <_trap_table-0x304ff928>
     5cc:	40 50 10 6c 	call  140477c <_trap_table-0x3f0fb884>
     5d0:	00 00 00 00 	unimp  0
     5d4:	44 00 00 45 	call  100006e8 <_trap_table-0x304ff918>
     5d8:	40 50 10 70 	call  1404798 <_trap_table-0x3f0fb868>
     5dc:	00 00 00 00 	unimp  0
     5e0:	44 00 00 47 	call  100006fc <_trap_table-0x304ff904>
     5e4:	40 50 10 74 	call  14047b4 <_trap_table-0x3f0fb84c>
     5e8:	00 00 00 00 	unimp  0
     5ec:	44 00 00 48 	call  1000070c <_trap_table-0x304ff8f4>
     5f0:	40 50 10 78 	call  14047d0 <_trap_table-0x3f0fb830>
     5f4:	00 00 00 8f 	unimp  0x8f
     5f8:	64 00 00 00 	call  900005f8 <LEON_REG+0x100005f8>
     5fc:	40 50 11 7c 	call  1404bec <_trap_table-0x3f0fb414>
     600:	00 00 00 eb 	unimp  0xeb
     604:	64 00 00 00 	call  90000604 <LEON_REG+0x10000604>
     608:	40 50 11 7c 	call  1404bf8 <_trap_table-0x3f0fb408>
     60c:	00 00 01 23 	unimp  0x123
     610:	3c 00 00 00 	unknown
     614:	00 00 00 00 	unimp  0
     618:	00 00 01 32 	unimp  0x132
     61c:	80 00 00 00 	add  %g0, %g0, %g0
     620:	00 00 00 00 	unimp  0
     624:	00 00 01 5c 	unimp  0x15c
     628:	80 00 00 00 	add  %g0, %g0, %g0
     62c:	00 00 00 00 	unimp  0
     630:	00 00 01 76 	unimp  0x176
     634:	80 00 00 00 	add  %g0, %g0, %g0
     638:	00 00 00 00 	unimp  0
     63c:	00 00 01 a5 	unimp  0x1a5
     640:	80 00 00 00 	add  %g0, %g0, %g0
     644:	00 00 00 00 	unimp  0
     648:	00 00 01 dd 	unimp  0x1dd
     64c:	80 00 00 00 	add  %g0, %g0, %g0
     650:	00 00 00 00 	unimp  0
     654:	00 00 02 1a 	unimp  0x21a
     658:	80 00 00 00 	add  %g0, %g0, %g0
     65c:	00 00 00 00 	unimp  0
     660:	00 00 02 6b 	unimp  0x26b
     664:	80 00 00 00 	add  %g0, %g0, %g0
     668:	00 00 00 00 	unimp  0
     66c:	00 00 02 bc 	unimp  0x2bc
     670:	80 00 00 00 	add  %g0, %g0, %g0
     674:	00 00 00 00 	unimp  0
     678:	00 00 02 e7 	unimp  0x2e7
     67c:	80 00 00 00 	add  %g0, %g0, %g0
     680:	00 00 00 00 	unimp  0
     684:	00 00 03 16 	unimp  0x316
     688:	80 00 00 00 	add  %g0, %g0, %g0
     68c:	00 00 00 00 	unimp  0
     690:	00 00 03 40 	unimp  0x340
     694:	80 00 00 00 	add  %g0, %g0, %g0
     698:	00 00 00 00 	unimp  0
     69c:	00 00 03 69 	unimp  0x369
     6a0:	80 00 00 00 	add  %g0, %g0, %g0
     6a4:	00 00 00 00 	unimp  0
     6a8:	00 00 03 83 	unimp  0x383
     6ac:	80 00 00 00 	add  %g0, %g0, %g0
     6b0:	00 00 00 00 	unimp  0
     6b4:	00 00 03 9e 	unimp  0x39e
     6b8:	80 00 00 00 	add  %g0, %g0, %g0
     6bc:	00 00 00 00 	unimp  0
     6c0:	00 00 03 be 	unimp  0x3be
     6c4:	80 00 00 00 	add  %g0, %g0, %g0
     6c8:	00 00 00 00 	unimp  0
     6cc:	00 00 03 f7 	unimp  0x3f7
     6d0:	80 00 00 00 	add  %g0, %g0, %g0
     6d4:	00 00 00 00 	unimp  0
     6d8:	00 00 04 15 	unimp  0x415
     6dc:	80 00 00 00 	add  %g0, %g0, %g0
     6e0:	00 00 00 00 	unimp  0
     6e4:	00 00 04 35 	unimp  0x435
     6e8:	80 00 00 00 	add  %g0, %g0, %g0
     6ec:	00 00 00 00 	unimp  0
     6f0:	00 00 04 5a 	unimp  0x45a
     6f4:	80 00 00 00 	add  %g0, %g0, %g0
     6f8:	00 00 00 00 	unimp  0
     6fc:	00 00 04 6e 	unimp  0x46e
     700:	80 00 00 00 	add  %g0, %g0, %g0
     704:	00 00 00 00 	unimp  0
     708:	00 00 04 90 	unimp  0x490
     70c:	80 00 00 00 	add  %g0, %g0, %g0
     710:	00 00 00 00 	unimp  0
     714:	00 00 04 a7 	unimp  0x4a7
     718:	82 00 00 00 	add  %g0, %g0, %g1
     71c:	00 00 28 45 	unimp  0x2845
     720:	00 00 04 ed 	unimp  0x4ed
     724:	82 00 00 00 	add  %g0, %g0, %g1
     728:	00 00 0a 0a 	unimp  0xa0a
     72c:	00 00 05 3b 	unimp  0x53b
     730:	80 00 00 d5 	unknown
     734:	00 00 00 00 	unimp  0
     738:	00 00 05 4f 	unimp  0x54f
     73c:	80 00 01 45 	unknown
	...
     748:	a2 00 00 00 	add  %g0, %g0, %l1
     74c:	00 00 00 00 	unimp  0
     750:	00 00 05 64 	unimp  0x564
     754:	82 00 00 00 	add  %g0, %g0, %g1
     758:	00 02 bf 15 	unimp  0x2bf15
     75c:	00 00 05 ad 	unimp  0x5ad
     760:	82 00 00 00 	add  %g0, %g0, %g1
     764:	00 00 3b 70 	unimp  0x3b70
     768:	00 00 05 f7 	unimp  0x5f7
     76c:	82 00 00 00 	add  %g0, %g0, %g1
     770:	00 00 1f b7 	unimp  0x1fb7
     774:	00 00 06 5e 	unimp  0x65e
     778:	82 00 00 00 	add  %g0, %g0, %g1
     77c:	00 00 bc 67 	unimp  0xbc67
     780:	00 00 06 d2 	unimp  0x6d2
     784:	80 00 00 27 	unknown
     788:	00 00 00 00 	unimp  0
     78c:	00 00 06 f2 	unimp  0x6f2
     790:	80 00 00 00 	add  %g0, %g0, %g0
     794:	00 00 00 00 	unimp  0
     798:	00 00 07 6b 	unimp  0x76b
     79c:	80 00 00 29 	unknown
     7a0:	00 00 00 00 	unimp  0
     7a4:	00 00 07 8f 	unimp  0x78f
     7a8:	80 00 00 00 	add  %g0, %g0, %g0
     7ac:	00 00 00 00 	unimp  0
     7b0:	00 00 09 12 	unimp  0x912
     7b4:	80 00 00 38 	unknown
     7b8:	00 00 00 00 	unimp  0
     7bc:	00 00 09 30 	unimp  0x930
     7c0:	80 00 00 3e 	unknown
	...
     7cc:	a2 00 00 00 	add  %g0, %g0, %l1
     7d0:	00 00 00 00 	unimp  0
     7d4:	00 00 09 96 	unimp  0x996
     7d8:	80 00 00 61 	unknown
     7dc:	00 00 00 00 	unimp  0
     7e0:	00 00 09 b2 	unimp  0x9b2
     7e4:	80 00 00 62 	unknown
     7e8:	00 00 00 00 	unimp  0
     7ec:	00 00 09 d8 	unimp  0x9d8
     7f0:	80 00 00 df 	unknown
     7f4:	00 00 00 00 	unimp  0
     7f8:	00 00 09 ed 	unimp  0x9ed
     7fc:	80 00 00 e0 	unknown
	...
     808:	a2 00 00 00 	add  %g0, %g0, %l1
     80c:	00 00 00 00 	unimp  0
     810:	00 00 0a 0c 	unimp  0xa0c
     814:	80 00 00 0e 	add  %g0, %sp, %g0
     818:	00 00 00 00 	unimp  0
     81c:	00 00 0a 20 	unimp  0xa20
     820:	80 00 00 0f 	add  %g0, %o7, %g0
     824:	00 00 00 00 	unimp  0
     828:	00 00 0a 36 	unimp  0xa36
     82c:	80 00 00 12 	add  %g0, %l2, %g0
     830:	00 00 00 00 	unimp  0
     834:	00 00 04 ed 	unimp  0x4ed
     838:	82 00 00 00 	add  %g0, %g0, %g1
     83c:	00 00 04 de 	unimp  0x4de
     840:	00 00 0a 4c 	unimp  0xa4c
     844:	80 00 01 62 	unknown
	...
     850:	a2 00 00 00 	add  %g0, %g0, %l1
     854:	00 00 00 00 	unimp  0
     858:	00 00 0a 60 	unimp  0xa60
     85c:	80 00 00 23 	unknown
     860:	00 00 00 00 	unimp  0
     864:	00 00 0a de 	unimp  0xade
     868:	80 00 00 25 	unknown
     86c:	00 00 00 00 	unimp  0
     870:	00 00 0a f4 	unimp  0xaf4
     874:	80 00 00 28 	unknown
	...
     880:	a2 00 00 00 	add  %g0, %g0, %l1
     884:	00 00 00 00 	unimp  0
     888:	00 00 0b 13 	unimp  0xb13
     88c:	80 00 00 13 	add  %g0, %l3, %g0
     890:	00 00 00 00 	unimp  0
     894:	00 00 0b 28 	unimp  0xb28
     898:	80 00 00 00 	add  %g0, %g0, %g0
     89c:	00 00 00 00 	unimp  0
     8a0:	00 00 0b be 	unimp  0xbbe
     8a4:	80 00 00 00 	add  %g0, %g0, %g0
     8a8:	00 00 00 00 	unimp  0
     8ac:	00 00 0c 97 	unimp  0xc97
     8b0:	80 00 00 00 	add  %g0, %g0, %g0
     8b4:	00 00 00 00 	unimp  0
     8b8:	00 00 0d 25 	unimp  0xd25
     8bc:	80 00 00 00 	add  %g0, %g0, %g0
     8c0:	00 00 00 00 	unimp  0
     8c4:	00 00 0d ba 	unimp  0xdba
     8c8:	80 00 00 00 	add  %g0, %g0, %g0
     8cc:	00 00 00 00 	unimp  0
     8d0:	00 00 0d f9 	unimp  0xdf9
     8d4:	80 00 00 6f 	unknown
     8d8:	00 00 00 00 	unimp  0
     8dc:	00 00 0e 0f 	unimp  0xe0f
     8e0:	80 00 00 00 	add  %g0, %g0, %g0
     8e4:	00 00 00 00 	unimp  0
     8e8:	00 00 10 40 	unimp  0x1040
     8ec:	80 00 01 03 	unknown
     8f0:	00 00 00 00 	unimp  0
     8f4:	00 00 10 56 	unimp  0x1056
     8f8:	80 00 00 00 	add  %g0, %g0, %g0
     8fc:	00 00 00 00 	unimp  0
     900:	00 00 10 b1 	unimp  0x10b1
     904:	80 00 00 00 	add  %g0, %g0, %g0
     908:	00 00 00 00 	unimp  0
     90c:	00 00 11 0f 	unimp  0x110f
     910:	80 00 00 00 	add  %g0, %g0, %g0
     914:	00 00 00 00 	unimp  0
     918:	00 00 14 af 	unimp  0x14af
     91c:	80 00 00 00 	add  %g0, %g0, %g0
	...
     928:	a2 00 00 00 	add  %g0, %g0, %l1
     92c:	00 00 00 00 	unimp  0
     930:	00 00 16 32 	unimp  0x1632
     934:	80 00 00 1c 	add  %g0, %i4, %g0
     938:	00 00 00 00 	unimp  0
     93c:	00 00 16 69 	unimp  0x1669
     940:	80 00 00 22 	unknown
     944:	00 00 00 00 	unimp  0
     948:	00 00 16 a1 	unimp  0x16a1
     94c:	80 00 00 29 	unknown
	...
     958:	a2 00 00 00 	add  %g0, %g0, %l1
     95c:	00 00 00 00 	unimp  0
     960:	00 00 16 db 	unimp  0x16db
     964:	82 00 00 00 	add  %g0, %g0, %g1
     968:	00 00 16 03 	unimp  0x1603
     96c:	00 00 17 13 	unimp  0x1713
     970:	80 00 00 00 	add  %g0, %g0, %g0
	...
     97c:	a2 00 00 00 	add  %g0, %g0, %l1
     980:	00 00 00 00 	unimp  0
     984:	00 00 17 53 	unimp  0x1753
     988:	24 00 00 41 	unknown
     98c:	40 50 11 7c 	call  1404f7c <_trap_table-0x3f0fb084>
     990:	00 00 17 62 	unimp  0x1762
     994:	40 00 00 3e 	call  a8c <_trap_table-0x404ff574>
     998:	00 00 00 09 	unimp  0x9
     99c:	00 00 00 00 	unimp  0
     9a0:	44 00 00 41 	call  10000aa4 <_trap_table-0x304ff55c>
     9a4:	00 00 00 00 	unimp  0
     9a8:	00 00 00 00 	unimp  0
     9ac:	44 00 00 42 	call  10000ab4 <_trap_table-0x304ff54c>
     9b0:	00 00 00 04 	unimp  0x4
     9b4:	00 00 00 00 	unimp  0
     9b8:	24 00 00 00 	unknown
     9bc:	00 00 00 20 	unimp  0x20
     9c0:	00 00 00 00 	unimp  0
     9c4:	64 00 00 00 	call  900009c4 <LEON_REG+0x100009c4>
     9c8:	40 50 11 9c 	call  1405038 <_trap_table-0x3f0fafc8>
     9cc:	00 00 00 8f 	unimp  0x8f
     9d0:	64 00 00 00 	call  900009d0 <LEON_REG+0x100009d0>
     9d4:	40 50 11 9c 	call  1405044 <_trap_table-0x3f0fafbc>
     9d8:	00 00 17 6d 	unimp  0x176d
     9dc:	64 00 00 00 	call  900009dc <LEON_REG+0x100009dc>
     9e0:	40 50 11 9c 	call  1405050 <_trap_table-0x3f0fafb0>
     9e4:	00 00 01 23 	unimp  0x123
     9e8:	3c 00 00 00 	unknown
     9ec:	00 00 00 00 	unimp  0
     9f0:	00 00 01 32 	unimp  0x132
     9f4:	80 00 00 00 	add  %g0, %g0, %g0
     9f8:	00 00 00 00 	unimp  0
     9fc:	00 00 01 5c 	unimp  0x15c
     a00:	80 00 00 00 	add  %g0, %g0, %g0
     a04:	00 00 00 00 	unimp  0
     a08:	00 00 01 76 	unimp  0x176
     a0c:	80 00 00 00 	add  %g0, %g0, %g0
     a10:	00 00 00 00 	unimp  0
     a14:	00 00 01 a5 	unimp  0x1a5
     a18:	80 00 00 00 	add  %g0, %g0, %g0
     a1c:	00 00 00 00 	unimp  0
     a20:	00 00 01 dd 	unimp  0x1dd
     a24:	80 00 00 00 	add  %g0, %g0, %g0
     a28:	00 00 00 00 	unimp  0
     a2c:	00 00 02 1a 	unimp  0x21a
     a30:	80 00 00 00 	add  %g0, %g0, %g0
     a34:	00 00 00 00 	unimp  0
     a38:	00 00 02 6b 	unimp  0x26b
     a3c:	80 00 00 00 	add  %g0, %g0, %g0
     a40:	00 00 00 00 	unimp  0
     a44:	00 00 02 bc 	unimp  0x2bc
     a48:	80 00 00 00 	add  %g0, %g0, %g0
     a4c:	00 00 00 00 	unimp  0
     a50:	00 00 02 e7 	unimp  0x2e7
     a54:	80 00 00 00 	add  %g0, %g0, %g0
     a58:	00 00 00 00 	unimp  0
     a5c:	00 00 03 16 	unimp  0x316
     a60:	80 00 00 00 	add  %g0, %g0, %g0
     a64:	00 00 00 00 	unimp  0
     a68:	00 00 03 40 	unimp  0x340
     a6c:	80 00 00 00 	add  %g0, %g0, %g0
     a70:	00 00 00 00 	unimp  0
     a74:	00 00 03 69 	unimp  0x369
     a78:	80 00 00 00 	add  %g0, %g0, %g0
     a7c:	00 00 00 00 	unimp  0
     a80:	00 00 03 83 	unimp  0x383
     a84:	80 00 00 00 	add  %g0, %g0, %g0
     a88:	00 00 00 00 	unimp  0
     a8c:	00 00 03 9e 	unimp  0x39e
     a90:	80 00 00 00 	add  %g0, %g0, %g0
     a94:	00 00 00 00 	unimp  0
     a98:	00 00 03 be 	unimp  0x3be
     a9c:	80 00 00 00 	add  %g0, %g0, %g0
     aa0:	00 00 00 00 	unimp  0
     aa4:	00 00 03 f7 	unimp  0x3f7
     aa8:	80 00 00 00 	add  %g0, %g0, %g0
     aac:	00 00 00 00 	unimp  0
     ab0:	00 00 04 15 	unimp  0x415
     ab4:	80 00 00 00 	add  %g0, %g0, %g0
     ab8:	00 00 00 00 	unimp  0
     abc:	00 00 04 35 	unimp  0x435
     ac0:	80 00 00 00 	add  %g0, %g0, %g0
     ac4:	00 00 00 00 	unimp  0
     ac8:	00 00 04 5a 	unimp  0x45a
     acc:	80 00 00 00 	add  %g0, %g0, %g0
     ad0:	00 00 00 00 	unimp  0
     ad4:	00 00 04 6e 	unimp  0x46e
     ad8:	80 00 00 00 	add  %g0, %g0, %g0
     adc:	00 00 00 00 	unimp  0
     ae0:	00 00 04 90 	unimp  0x490
     ae4:	80 00 00 00 	add  %g0, %g0, %g0
     ae8:	00 00 00 00 	unimp  0
     aec:	00 00 04 ed 	unimp  0x4ed
     af0:	82 00 00 00 	add  %g0, %g0, %g1
     af4:	00 00 10 15 	unimp  0x1015
     af8:	00 00 17 a7 	unimp  0x17a7
     afc:	80 00 00 97 	unknown
     b00:	00 00 00 00 	unimp  0
     b04:	00 00 17 be 	unimp  0x17be
     b08:	80 00 00 d5 	unknown
     b0c:	00 00 00 00 	unimp  0
     b10:	00 00 17 d2 	unimp  0x17d2
     b14:	80 00 01 45 	unknown
	...
     b20:	a2 00 00 00 	add  %g0, %g0, %l1
     b24:	00 00 00 00 	unimp  0
     b28:	00 00 04 a7 	unimp  0x4a7
     b2c:	c2 00 00 00 	ld  [ %g0 ], %g1
     b30:	00 00 28 45 	unimp  0x2845
     b34:	00 00 05 64 	unimp  0x564
     b38:	c2 00 00 00 	ld  [ %g0 ], %g1
     b3c:	00 02 bf 15 	unimp  0x2bf15
     b40:	00 00 05 ad 	unimp  0x5ad
     b44:	c2 00 00 00 	ld  [ %g0 ], %g1
     b48:	00 00 3b 70 	unimp  0x3b70
     b4c:	00 00 05 f7 	unimp  0x5f7
     b50:	c2 00 00 00 	ld  [ %g0 ], %g1
     b54:	00 00 1f b7 	unimp  0x1fb7
     b58:	00 00 06 5e 	unimp  0x65e
     b5c:	c2 00 00 00 	ld  [ %g0 ], %g1
     b60:	00 00 bc 67 	unimp  0xbc67
     b64:	00 00 04 ed 	unimp  0x4ed
     b68:	c2 00 00 00 	ld  [ %g0 ], %g1
     b6c:	00 00 04 de 	unimp  0x4de
     b70:	00 00 17 e7 	unimp  0x17e7
     b74:	82 00 00 00 	add  %g0, %g0, %g1
     b78:	00 00 00 00 	unimp  0
     b7c:	00 00 18 2c 	unimp  0x182c
     b80:	82 00 00 00 	add  %g0, %g0, %g1
     b84:	00 00 0f b1 	unimp  0xfb1
     b88:	00 00 18 79 	unimp  0x1879
     b8c:	80 00 00 24 	unknown
     b90:	00 00 00 00 	unimp  0
     b94:	00 00 18 8e 	unimp  0x188e
     b98:	80 00 00 25 	unknown
     b9c:	00 00 00 00 	unimp  0
     ba0:	00 00 18 a3 	unimp  0x18a3
     ba4:	80 00 00 27 	unknown
	...
     bb0:	a2 00 00 00 	add  %g0, %g0, %l1
	...
     bbc:	a2 00 00 00 	add  %g0, %g0, %l1
     bc0:	00 00 00 00 	unimp  0
     bc4:	00 00 16 db 	unimp  0x16db
     bc8:	c2 00 00 00 	ld  [ %g0 ], %g1
     bcc:	00 00 16 03 	unimp  0x1603
     bd0:	00 00 18 b9 	unimp  0x18b9
     bd4:	24 00 00 1b 	unknown
     bd8:	40 50 11 9c 	call  1405248 <_trap_table-0x3f0fadb8>
     bdc:	00 00 18 d4 	unimp  0x18d4
     be0:	40 00 00 15 	call  c34 <_trap_table-0x404ff3cc>
     be4:	00 00 00 18 	unimp  0x18
     be8:	00 00 17 62 	unimp  0x1762
     bec:	40 00 00 15 	call  c40 <_trap_table-0x404ff3c0>
     bf0:	00 00 00 19 	unimp  0x19
     bf4:	00 00 18 e0 	unimp  0x18e0
     bf8:	40 00 00 15 	call  c4c <_trap_table-0x404ff3b4>
     bfc:	00 00 00 1a 	unimp  0x1a
     c00:	00 00 18 ec 	unimp  0x18ec
     c04:	40 00 00 15 	call  c58 <_trap_table-0x404ff3a8>
     c08:	00 00 00 1b 	unimp  0x1b
     c0c:	00 00 00 00 	unimp  0
     c10:	44 00 00 1b 	call  10000c7c <_trap_table-0x304ff384>
     c14:	00 00 00 00 	unimp  0
     c18:	00 00 00 00 	unimp  0
     c1c:	44 00 00 22 	call  10000ca4 <_trap_table-0x304ff35c>
     c20:	00 00 00 04 	unimp  0x4
     c24:	00 00 00 00 	unimp  0
     c28:	44 00 00 25 	call  10000cbc <_trap_table-0x304ff344>
     c2c:	00 00 00 10 	unimp  0x10
     c30:	00 00 00 00 	unimp  0
     c34:	44 00 00 26 	call  10000ccc <_trap_table-0x304ff334>
     c38:	00 00 00 1c 	unimp  0x1c
     c3c:	00 00 00 00 	unimp  0
     c40:	44 00 00 27 	call  10000cdc <_trap_table-0x304ff324>
     c44:	00 00 00 20 	unimp  0x20
     c48:	00 00 00 00 	unimp  0
     c4c:	44 00 00 26 	call  10000ce4 <_trap_table-0x304ff31c>
     c50:	00 00 00 20 	unimp  0x20
     c54:	00 00 00 00 	unimp  0
     c58:	44 00 00 28 	call  10000cf8 <_trap_table-0x304ff308>
     c5c:	00 00 00 28 	unimp  0x28
     c60:	00 00 00 00 	unimp  0
     c64:	44 00 00 3b 	call  10000d50 <_trap_table-0x304ff2b0>
     c68:	00 00 00 38 	unimp  0x38
     c6c:	00 00 00 00 	unimp  0
     c70:	44 00 00 4e 	call  10000da8 <_trap_table-0x304ff258>
     c74:	00 00 00 3c 	unimp  0x3c
     c78:	00 00 00 00 	unimp  0
     c7c:	44 00 00 3b 	call  10000d68 <_trap_table-0x304ff298>
     c80:	00 00 00 3c 	unimp  0x3c
     c84:	00 00 00 00 	unimp  0
     c88:	44 00 00 56 	call  10000de0 <_trap_table-0x304ff220>
     c8c:	00 00 00 44 	unimp  0x44
     c90:	00 00 00 00 	unimp  0
     c94:	44 00 00 58 	call  10000df4 <_trap_table-0x304ff20c>
     c98:	00 00 00 58 	unimp  0x58
     c9c:	00 00 00 00 	unimp  0
     ca0:	44 00 00 5a 	call  10000e08 <_trap_table-0x304ff1f8>
     ca4:	00 00 00 60 	unimp  0x60
     ca8:	00 00 00 00 	unimp  0
     cac:	44 00 00 51 	call  10000df0 <_trap_table-0x304ff210>
     cb0:	00 00 00 68 	unimp  0x68
     cb4:	00 00 00 00 	unimp  0
     cb8:	44 00 00 50 	call  10000df8 <_trap_table-0x304ff208>
     cbc:	00 00 00 70 	unimp  0x70
     cc0:	00 00 00 00 	unimp  0
     cc4:	44 00 00 51 	call  10000e08 <_trap_table-0x304ff1f8>
     cc8:	00 00 00 74 	unimp  0x74
     ccc:	00 00 00 00 	unimp  0
     cd0:	44 00 00 52 	call  10000e18 <_trap_table-0x304ff1e8>
     cd4:	00 00 00 7c 	unimp  0x7c
     cd8:	00 00 00 00 	unimp  0
     cdc:	44 00 00 50 	call  10000e1c <_trap_table-0x304ff1e4>
     ce0:	00 00 00 84 	unimp  0x84
     ce4:	00 00 00 00 	unimp  0
     ce8:	44 00 00 53 	call  10000e34 <_trap_table-0x304ff1cc>
     cec:	00 00 00 88 	unimp  0x88
     cf0:	00 00 00 00 	unimp  0
     cf4:	44 00 00 51 	call  10000e38 <_trap_table-0x304ff1c8>
     cf8:	00 00 00 8c 	unimp  0x8c
     cfc:	00 00 00 00 	unimp  0
     d00:	44 00 00 53 	call  10000e4c <_trap_table-0x304ff1b4>
     d04:	00 00 00 8c 	unimp  0x8c
     d08:	00 00 00 00 	unimp  0
     d0c:	44 00 00 54 	call  10000e5c <_trap_table-0x304ff1a4>
     d10:	00 00 00 94 	unimp  0x94
     d14:	00 00 00 00 	unimp  0
     d18:	44 00 00 2a 	call  10000dc0 <_trap_table-0x304ff240>
     d1c:	00 00 00 a4 	unimp  0xa4
     d20:	00 00 00 00 	unimp  0
     d24:	44 00 00 2b 	call  10000dd0 <_trap_table-0x304ff230>
     d28:	00 00 00 ac 	unimp  0xac
     d2c:	00 00 00 00 	unimp  0
     d30:	44 00 00 33 	call  10000dfc <_trap_table-0x304ff204>
     d34:	00 00 00 b8 	unimp  0xb8
     d38:	00 00 00 00 	unimp  0
     d3c:	44 00 00 34 	call  10000e0c <_trap_table-0x304ff1f4>
     d40:	00 00 00 c0 	unimp  0xc0
     d44:	00 00 00 00 	unimp  0
     d48:	44 00 00 32 	call  10000e10 <_trap_table-0x304ff1f0>
     d4c:	00 00 00 c4 	unimp  0xc4
     d50:	00 00 00 00 	unimp  0
     d54:	44 00 00 36 	call  10000e2c <_trap_table-0x304ff1d4>
     d58:	00 00 00 c8 	unimp  0xc8
     d5c:	00 00 00 00 	unimp  0
     d60:	44 00 00 37 	call  10000e3c <_trap_table-0x304ff1c4>
     d64:	00 00 00 cc 	unimp  0xcc
     d68:	00 00 00 00 	unimp  0
     d6c:	44 00 00 27 	call  10000e08 <_trap_table-0x304ff1f8>
     d70:	00 00 00 d4 	unimp  0xd4
     d74:	00 00 00 00 	unimp  0
     d78:	44 00 00 2e 	call  10000e30 <_trap_table-0x304ff1d0>
     d7c:	00 00 00 dc 	unimp  0xdc
     d80:	00 00 00 00 	unimp  0
     d84:	44 00 00 30 	call  10000e44 <_trap_table-0x304ff1bc>
     d88:	00 00 00 e4 	unimp  0xe4
     d8c:	00 00 18 f6 	unimp  0x18f6
     d90:	40 00 00 1c 	call  e00 <_trap_table-0x404ff200>
     d94:	00 00 00 0a 	unimp  0xa
     d98:	00 00 19 0a 	unimp  0x190a
     d9c:	40 00 00 1d 	call  e10 <_trap_table-0x404ff1f0>
     da0:	00 00 00 08 	unimp  0x8
     da4:	00 00 00 00 	unimp  0
     da8:	c0 00 00 00 	ld  [ %g0 ], %g0
	...
     db4:	e0 00 00 00 	ld  [ %g0 ], %l0
     db8:	00 00 00 f0 	unimp  0xf0
     dbc:	00 00 00 00 	unimp  0
     dc0:	24 00 00 00 	unknown
     dc4:	00 00 00 f0 	unimp  0xf0
     dc8:	00 00 19 13 	unimp  0x1913
     dcc:	28 00 00 11 	unknown
     dd0:	40 50 3b cc 	call  140fd00 <_trap_table-0x3f0f0300>
     dd4:	00 00 00 00 	unimp  0
     dd8:	64 00 00 00 	call  90000dd8 <LEON_REG+0x10000dd8>
     ddc:	40 50 12 8c 	call  140580c <_trap_table-0x3f0fa7f4>
     de0:	00 00 19 1f 	unimp  0x191f
     de4:	64 00 00 00 	call  90000de4 <LEON_REG+0x10000de4>
     de8:	40 50 12 8c 	call  1405818 <_trap_table-0x3f0fa7e8>
     dec:	00 00 19 7a 	unimp  0x197a
     df0:	64 00 00 00 	call  90000df0 <LEON_REG+0x10000df0>
     df4:	40 50 12 8c 	call  1405824 <_trap_table-0x3f0fa7dc>
     df8:	00 00 01 23 	unimp  0x123
     dfc:	3c 00 00 00 	unknown
     e00:	00 00 00 00 	unimp  0
     e04:	00 00 01 32 	unimp  0x132
     e08:	80 00 00 00 	add  %g0, %g0, %g0
     e0c:	00 00 00 00 	unimp  0
     e10:	00 00 01 5c 	unimp  0x15c
     e14:	80 00 00 00 	add  %g0, %g0, %g0
     e18:	00 00 00 00 	unimp  0
     e1c:	00 00 01 76 	unimp  0x176
     e20:	80 00 00 00 	add  %g0, %g0, %g0
     e24:	00 00 00 00 	unimp  0
     e28:	00 00 01 a5 	unimp  0x1a5
     e2c:	80 00 00 00 	add  %g0, %g0, %g0
     e30:	00 00 00 00 	unimp  0
     e34:	00 00 01 dd 	unimp  0x1dd
     e38:	80 00 00 00 	add  %g0, %g0, %g0
     e3c:	00 00 00 00 	unimp  0
     e40:	00 00 02 1a 	unimp  0x21a
     e44:	80 00 00 00 	add  %g0, %g0, %g0
     e48:	00 00 00 00 	unimp  0
     e4c:	00 00 02 6b 	unimp  0x26b
     e50:	80 00 00 00 	add  %g0, %g0, %g0
     e54:	00 00 00 00 	unimp  0
     e58:	00 00 02 bc 	unimp  0x2bc
     e5c:	80 00 00 00 	add  %g0, %g0, %g0
     e60:	00 00 00 00 	unimp  0
     e64:	00 00 02 e7 	unimp  0x2e7
     e68:	80 00 00 00 	add  %g0, %g0, %g0
     e6c:	00 00 00 00 	unimp  0
     e70:	00 00 03 16 	unimp  0x316
     e74:	80 00 00 00 	add  %g0, %g0, %g0
     e78:	00 00 00 00 	unimp  0
     e7c:	00 00 03 40 	unimp  0x340
     e80:	80 00 00 00 	add  %g0, %g0, %g0
     e84:	00 00 00 00 	unimp  0
     e88:	00 00 03 69 	unimp  0x369
     e8c:	80 00 00 00 	add  %g0, %g0, %g0
     e90:	00 00 00 00 	unimp  0
     e94:	00 00 03 83 	unimp  0x383
     e98:	80 00 00 00 	add  %g0, %g0, %g0
     e9c:	00 00 00 00 	unimp  0
     ea0:	00 00 03 9e 	unimp  0x39e
     ea4:	80 00 00 00 	add  %g0, %g0, %g0
     ea8:	00 00 00 00 	unimp  0
     eac:	00 00 03 be 	unimp  0x3be
     eb0:	80 00 00 00 	add  %g0, %g0, %g0
     eb4:	00 00 00 00 	unimp  0
     eb8:	00 00 03 f7 	unimp  0x3f7
     ebc:	80 00 00 00 	add  %g0, %g0, %g0
     ec0:	00 00 00 00 	unimp  0
     ec4:	00 00 04 15 	unimp  0x415
     ec8:	80 00 00 00 	add  %g0, %g0, %g0
     ecc:	00 00 00 00 	unimp  0
     ed0:	00 00 04 35 	unimp  0x435
     ed4:	80 00 00 00 	add  %g0, %g0, %g0
     ed8:	00 00 00 00 	unimp  0
     edc:	00 00 04 5a 	unimp  0x45a
     ee0:	80 00 00 00 	add  %g0, %g0, %g0
     ee4:	00 00 00 00 	unimp  0
     ee8:	00 00 04 6e 	unimp  0x46e
     eec:	80 00 00 00 	add  %g0, %g0, %g0
     ef0:	00 00 00 00 	unimp  0
     ef4:	00 00 04 90 	unimp  0x490
     ef8:	80 00 00 00 	add  %g0, %g0, %g0
     efc:	00 00 00 00 	unimp  0
     f00:	00 00 17 e7 	unimp  0x17e7
     f04:	c2 00 00 00 	ld  [ %g0 ], %g1
     f08:	00 00 00 00 	unimp  0
     f0c:	00 00 05 64 	unimp  0x564
     f10:	c2 00 00 00 	ld  [ %g0 ], %g1
     f14:	00 02 bf 15 	unimp  0x2bf15
     f18:	00 00 05 ad 	unimp  0x5ad
     f1c:	c2 00 00 00 	ld  [ %g0 ], %g1
     f20:	00 00 3b 70 	unimp  0x3b70
     f24:	00 00 05 f7 	unimp  0x5f7
     f28:	c2 00 00 00 	ld  [ %g0 ], %g1
     f2c:	00 00 1f b7 	unimp  0x1fb7
     f30:	00 00 06 5e 	unimp  0x65e
     f34:	c2 00 00 00 	ld  [ %g0 ], %g1
     f38:	00 00 bc 67 	unimp  0xbc67
     f3c:	00 00 04 ed 	unimp  0x4ed
     f40:	c2 00 00 00 	ld  [ %g0 ], %g1
     f44:	00 00 04 de 	unimp  0x4de
     f48:	00 00 18 2c 	unimp  0x182c
     f4c:	c2 00 00 00 	ld  [ %g0 ], %g1
     f50:	00 00 0f b1 	unimp  0xfb1
     f54:	00 00 04 ed 	unimp  0x4ed
     f58:	82 00 00 00 	add  %g0, %g0, %g1
     f5c:	00 00 0a e2 	unimp  0xae2
     f60:	00 00 19 b1 	unimp  0x19b1
     f64:	80 00 00 97 	unknown
     f68:	00 00 00 00 	unimp  0
     f6c:	00 00 19 c8 	unimp  0x19c8
     f70:	80 00 00 d5 	unknown
	...
     f7c:	a2 00 00 00 	add  %g0, %g0, %l1
     f80:	00 00 00 00 	unimp  0
     f84:	00 00 19 dc 	unimp  0x19dc
     f88:	20 00 00 10 	unknown
     f8c:	00 00 00 00 	unimp  0
     f90:	00 00 19 f0 	unimp  0x19f0
     f94:	20 00 00 11 	unknown
     f98:	00 00 00 00 	unimp  0
     f9c:	00 00 1a 13 	unimp  0x1a13
     fa0:	26 00 00 0c 	unknown
     fa4:	40 50 31 80 	call  140d5a4 <_trap_table-0x3f0f2a5c>
     fa8:	00 00 00 00 	unimp  0
     fac:	64 00 00 00 	call  90000fac <LEON_REG+0x10000fac>
     fb0:	40 50 12 8c 	call  14059e0 <_trap_table-0x3f0fa620>
     fb4:	00 00 00 8f 	unimp  0x8f
     fb8:	64 00 00 00 	call  90000fb8 <LEON_REG+0x10000fb8>
     fbc:	40 50 12 8c 	call  14059ec <_trap_table-0x3f0fa614>
     fc0:	00 00 1a 27 	unimp  0x1a27
     fc4:	64 00 00 00 	call  90000fc4 <LEON_REG+0x10000fc4>
     fc8:	40 50 12 8c 	call  14059f8 <_trap_table-0x3f0fa608>
     fcc:	00 00 01 23 	unimp  0x123
     fd0:	3c 00 00 00 	unknown
     fd4:	00 00 00 00 	unimp  0
     fd8:	00 00 01 32 	unimp  0x132
     fdc:	80 00 00 00 	add  %g0, %g0, %g0
     fe0:	00 00 00 00 	unimp  0
     fe4:	00 00 01 5c 	unimp  0x15c
     fe8:	80 00 00 00 	add  %g0, %g0, %g0
     fec:	00 00 00 00 	unimp  0
     ff0:	00 00 01 76 	unimp  0x176
     ff4:	80 00 00 00 	add  %g0, %g0, %g0
     ff8:	00 00 00 00 	unimp  0
     ffc:	00 00 01 a5 	unimp  0x1a5
    1000:	80 00 00 00 	add  %g0, %g0, %g0
    1004:	00 00 00 00 	unimp  0
    1008:	00 00 01 dd 	unimp  0x1dd
    100c:	80 00 00 00 	add  %g0, %g0, %g0
    1010:	00 00 00 00 	unimp  0
    1014:	00 00 02 1a 	unimp  0x21a
    1018:	80 00 00 00 	add  %g0, %g0, %g0
    101c:	00 00 00 00 	unimp  0
    1020:	00 00 02 6b 	unimp  0x26b
    1024:	80 00 00 00 	add  %g0, %g0, %g0
    1028:	00 00 00 00 	unimp  0
    102c:	00 00 02 bc 	unimp  0x2bc
    1030:	80 00 00 00 	add  %g0, %g0, %g0
    1034:	00 00 00 00 	unimp  0
    1038:	00 00 02 e7 	unimp  0x2e7
    103c:	80 00 00 00 	add  %g0, %g0, %g0
    1040:	00 00 00 00 	unimp  0
    1044:	00 00 03 16 	unimp  0x316
    1048:	80 00 00 00 	add  %g0, %g0, %g0
    104c:	00 00 00 00 	unimp  0
    1050:	00 00 03 40 	unimp  0x340
    1054:	80 00 00 00 	add  %g0, %g0, %g0
    1058:	00 00 00 00 	unimp  0
    105c:	00 00 03 69 	unimp  0x369
    1060:	80 00 00 00 	add  %g0, %g0, %g0
    1064:	00 00 00 00 	unimp  0
    1068:	00 00 03 83 	unimp  0x383
    106c:	80 00 00 00 	add  %g0, %g0, %g0
    1070:	00 00 00 00 	unimp  0
    1074:	00 00 03 9e 	unimp  0x39e
    1078:	80 00 00 00 	add  %g0, %g0, %g0
    107c:	00 00 00 00 	unimp  0
    1080:	00 00 03 be 	unimp  0x3be
    1084:	80 00 00 00 	add  %g0, %g0, %g0
    1088:	00 00 00 00 	unimp  0
    108c:	00 00 03 f7 	unimp  0x3f7
    1090:	80 00 00 00 	add  %g0, %g0, %g0
    1094:	00 00 00 00 	unimp  0
    1098:	00 00 04 15 	unimp  0x415
    109c:	80 00 00 00 	add  %g0, %g0, %g0
    10a0:	00 00 00 00 	unimp  0
    10a4:	00 00 04 35 	unimp  0x435
    10a8:	80 00 00 00 	add  %g0, %g0, %g0
    10ac:	00 00 00 00 	unimp  0
    10b0:	00 00 04 5a 	unimp  0x45a
    10b4:	80 00 00 00 	add  %g0, %g0, %g0
    10b8:	00 00 00 00 	unimp  0
    10bc:	00 00 04 6e 	unimp  0x46e
    10c0:	80 00 00 00 	add  %g0, %g0, %g0
    10c4:	00 00 00 00 	unimp  0
    10c8:	00 00 04 90 	unimp  0x490
    10cc:	80 00 00 00 	add  %g0, %g0, %g0
    10d0:	00 00 00 00 	unimp  0
    10d4:	00 00 17 e7 	unimp  0x17e7
    10d8:	c2 00 00 00 	ld  [ %g0 ], %g1
    10dc:	00 00 00 00 	unimp  0
    10e0:	00 00 05 64 	unimp  0x564
    10e4:	c2 00 00 00 	ld  [ %g0 ], %g1
    10e8:	00 02 bf 15 	unimp  0x2bf15
    10ec:	00 00 05 ad 	unimp  0x5ad
    10f0:	c2 00 00 00 	ld  [ %g0 ], %g1
    10f4:	00 00 3b 70 	unimp  0x3b70
    10f8:	00 00 05 f7 	unimp  0x5f7
    10fc:	c2 00 00 00 	ld  [ %g0 ], %g1
    1100:	00 00 1f b7 	unimp  0x1fb7
    1104:	00 00 06 5e 	unimp  0x65e
    1108:	c2 00 00 00 	ld  [ %g0 ], %g1
    110c:	00 00 bc 67 	unimp  0xbc67
    1110:	00 00 04 ed 	unimp  0x4ed
    1114:	c2 00 00 00 	ld  [ %g0 ], %g1
    1118:	00 00 04 de 	unimp  0x4de
    111c:	00 00 18 2c 	unimp  0x182c
    1120:	c2 00 00 00 	ld  [ %g0 ], %g1
    1124:	00 00 0f b1 	unimp  0xfb1
    1128:	00 00 04 ed 	unimp  0x4ed
    112c:	c2 00 00 00 	ld  [ %g0 ], %g1
    1130:	00 00 0a e2 	unimp  0xae2
    1134:	00 00 04 a7 	unimp  0x4a7
    1138:	c2 00 00 00 	ld  [ %g0 ], %g1
    113c:	00 00 28 45 	unimp  0x2845
    1140:	00 00 04 ed 	unimp  0x4ed
    1144:	82 00 00 00 	add  %g0, %g0, %g1
    1148:	00 00 05 31 	unimp  0x531
    114c:	00 00 1a 5f 	unimp  0x1a5f
    1150:	80 00 01 45 	unknown
	...
    115c:	a2 00 00 00 	add  %g0, %g0, %l1
    1160:	00 00 00 00 	unimp  0
    1164:	00 00 1a 75 	unimp  0x1a75
    1168:	82 00 00 00 	add  %g0, %g0, %g1
    116c:	00 00 39 c3 	unimp  0x39c3
    1170:	00 00 1a bb 	unimp  0x1abb
    1174:	80 00 00 00 	add  %g0, %g0, %g0
	...
    1180:	a2 00 00 00 	add  %g0, %g0, %l1
    1184:	00 00 00 00 	unimp  0
    1188:	00 00 1b 9b 	unimp  0x1b9b
    118c:	24 00 00 c1 	unknown
    1190:	40 50 12 8c 	call  1405bc0 <_trap_table-0x3f0fa440>
    1194:	00 00 1b aa 	unimp  0x1baa
    1198:	40 00 00 bf 	call  1494 <_trap_table-0x404feb6c>
    119c:	00 00 00 09 	unimp  0x9
    11a0:	00 00 00 00 	unimp  0
    11a4:	44 00 00 c1 	call  100014a8 <_trap_table-0x304feb58>
    11a8:	00 00 00 00 	unimp  0
    11ac:	00 00 00 00 	unimp  0
    11b0:	44 00 00 c2 	call  100014b8 <_trap_table-0x304feb48>
    11b4:	00 00 00 04 	unimp  0x4
    11b8:	00 00 00 00 	unimp  0
    11bc:	24 00 00 00 	unknown
    11c0:	00 00 00 1c 	unimp  0x1c
    11c4:	00 00 1b b8 	unimp  0x1bb8
    11c8:	24 00 00 c8 	unknown
    11cc:	40 50 12 a8 	call  1405c6c <_trap_table-0x3f0fa394>
    11d0:	00 00 1b c5 	unimp  0x1bc5
    11d4:	40 00 00 c6 	call  14ec <_trap_table-0x404feb14>
    11d8:	00 00 00 09 	unimp  0x9
    11dc:	00 00 00 00 	unimp  0
    11e0:	44 00 00 c8 	call  10001500 <_trap_table-0x304feb00>
    11e4:	00 00 00 00 	unimp  0
    11e8:	00 00 00 00 	unimp  0
    11ec:	44 00 00 c9 	call  10001510 <_trap_table-0x304feaf0>
    11f0:	00 00 00 04 	unimp  0x4
    11f4:	00 00 00 00 	unimp  0
    11f8:	24 00 00 00 	unknown
    11fc:	00 00 00 1c 	unimp  0x1c
    1200:	00 00 00 00 	unimp  0
    1204:	64 00 00 00 	call  90001204 <LEON_REG+0x10001204>
    1208:	40 50 12 c4 	call  1405d18 <_trap_table-0x3f0fa2e8>
    120c:	00 00 00 8f 	unimp  0x8f
    1210:	64 00 00 00 	call  90001210 <LEON_REG+0x10001210>
    1214:	40 50 12 c4 	call  1405d24 <_trap_table-0x3f0fa2dc>
    1218:	00 00 1b d2 	unimp  0x1bd2
    121c:	64 00 00 00 	call  9000121c <LEON_REG+0x1000121c>
    1220:	40 50 12 c4 	call  1405d30 <_trap_table-0x3f0fa2d0>
    1224:	00 00 01 23 	unimp  0x123
    1228:	3c 00 00 00 	unknown
    122c:	00 00 00 00 	unimp  0
    1230:	00 00 01 32 	unimp  0x132
    1234:	80 00 00 00 	add  %g0, %g0, %g0
    1238:	00 00 00 00 	unimp  0
    123c:	00 00 01 5c 	unimp  0x15c
    1240:	80 00 00 00 	add  %g0, %g0, %g0
    1244:	00 00 00 00 	unimp  0
    1248:	00 00 01 76 	unimp  0x176
    124c:	80 00 00 00 	add  %g0, %g0, %g0
    1250:	00 00 00 00 	unimp  0
    1254:	00 00 01 a5 	unimp  0x1a5
    1258:	80 00 00 00 	add  %g0, %g0, %g0
    125c:	00 00 00 00 	unimp  0
    1260:	00 00 01 dd 	unimp  0x1dd
    1264:	80 00 00 00 	add  %g0, %g0, %g0
    1268:	00 00 00 00 	unimp  0
    126c:	00 00 02 1a 	unimp  0x21a
    1270:	80 00 00 00 	add  %g0, %g0, %g0
    1274:	00 00 00 00 	unimp  0
    1278:	00 00 02 6b 	unimp  0x26b
    127c:	80 00 00 00 	add  %g0, %g0, %g0
    1280:	00 00 00 00 	unimp  0
    1284:	00 00 02 bc 	unimp  0x2bc
    1288:	80 00 00 00 	add  %g0, %g0, %g0
    128c:	00 00 00 00 	unimp  0
    1290:	00 00 02 e7 	unimp  0x2e7
    1294:	80 00 00 00 	add  %g0, %g0, %g0
    1298:	00 00 00 00 	unimp  0
    129c:	00 00 03 16 	unimp  0x316
    12a0:	80 00 00 00 	add  %g0, %g0, %g0
    12a4:	00 00 00 00 	unimp  0
    12a8:	00 00 03 40 	unimp  0x340
    12ac:	80 00 00 00 	add  %g0, %g0, %g0
    12b0:	00 00 00 00 	unimp  0
    12b4:	00 00 03 69 	unimp  0x369
    12b8:	80 00 00 00 	add  %g0, %g0, %g0
    12bc:	00 00 00 00 	unimp  0
    12c0:	00 00 03 83 	unimp  0x383
    12c4:	80 00 00 00 	add  %g0, %g0, %g0
    12c8:	00 00 00 00 	unimp  0
    12cc:	00 00 03 9e 	unimp  0x39e
    12d0:	80 00 00 00 	add  %g0, %g0, %g0
    12d4:	00 00 00 00 	unimp  0
    12d8:	00 00 03 be 	unimp  0x3be
    12dc:	80 00 00 00 	add  %g0, %g0, %g0
    12e0:	00 00 00 00 	unimp  0
    12e4:	00 00 03 f7 	unimp  0x3f7
    12e8:	80 00 00 00 	add  %g0, %g0, %g0
    12ec:	00 00 00 00 	unimp  0
    12f0:	00 00 04 15 	unimp  0x415
    12f4:	80 00 00 00 	add  %g0, %g0, %g0
    12f8:	00 00 00 00 	unimp  0
    12fc:	00 00 04 35 	unimp  0x435
    1300:	80 00 00 00 	add  %g0, %g0, %g0
    1304:	00 00 00 00 	unimp  0
    1308:	00 00 04 5a 	unimp  0x45a
    130c:	80 00 00 00 	add  %g0, %g0, %g0
    1310:	00 00 00 00 	unimp  0
    1314:	00 00 04 6e 	unimp  0x46e
    1318:	80 00 00 00 	add  %g0, %g0, %g0
    131c:	00 00 00 00 	unimp  0
    1320:	00 00 04 90 	unimp  0x490
    1324:	80 00 00 00 	add  %g0, %g0, %g0
    1328:	00 00 00 00 	unimp  0
    132c:	00 00 04 ed 	unimp  0x4ed
    1330:	c2 00 00 00 	ld  [ %g0 ], %g1
    1334:	00 00 10 15 	unimp  0x1015
    1338:	00 00 1c 0b 	unimp  0x1c0b
    133c:	82 00 00 00 	add  %g0, %g0, %g1
    1340:	00 00 08 a9 	unimp  0x8a9
    1344:	00 00 1c 50 	unimp  0x1c50
    1348:	82 00 00 00 	add  %g0, %g0, %g1
    134c:	00 00 08 34 	unimp  0x834
    1350:	00 00 1c 9e 	unimp  0x1c9e
    1354:	80 00 00 2b 	unknown
	...
    1360:	a2 00 00 00 	add  %g0, %g0, %l1
    1364:	00 00 00 00 	unimp  0
    1368:	00 00 05 64 	unimp  0x564
    136c:	c2 00 00 00 	ld  [ %g0 ], %g1
    1370:	00 02 bf 15 	unimp  0x2bf15
    1374:	00 00 05 ad 	unimp  0x5ad
    1378:	c2 00 00 00 	ld  [ %g0 ], %g1
    137c:	00 00 3b 70 	unimp  0x3b70
    1380:	00 00 05 f7 	unimp  0x5f7
    1384:	c2 00 00 00 	ld  [ %g0 ], %g1
    1388:	00 00 1f b7 	unimp  0x1fb7
    138c:	00 00 06 5e 	unimp  0x65e
    1390:	c2 00 00 00 	ld  [ %g0 ], %g1
    1394:	00 00 bc 67 	unimp  0xbc67
    1398:	00 00 04 ed 	unimp  0x4ed
    139c:	c2 00 00 00 	ld  [ %g0 ], %g1
    13a0:	00 00 04 de 	unimp  0x4de
    13a4:	00 00 1c bb 	unimp  0x1cbb
    13a8:	82 00 00 00 	add  %g0, %g0, %g1
    13ac:	00 00 c7 75 	unimp  0xc775
    13b0:	00 00 1d 04 	unimp  0x1d04
    13b4:	80 00 00 18 	add  %g0, %i0, %g0
    13b8:	00 00 00 00 	unimp  0
    13bc:	00 00 1d 1b 	unimp  0x1d1b
    13c0:	80 00 00 19 	add  %g0, %i1, %g0
    13c4:	00 00 00 00 	unimp  0
    13c8:	00 00 1d 33 	unimp  0x1d33
    13cc:	80 00 00 1f 	add  %g0, %i7, %g0
    13d0:	00 00 00 00 	unimp  0
    13d4:	00 00 1d 4a 	unimp  0x1d4a
    13d8:	80 00 00 20 	unknown
    13dc:	00 00 00 00 	unimp  0
    13e0:	00 00 1d 62 	unimp  0x1d62
    13e4:	80 00 00 27 	unknown
    13e8:	00 00 00 00 	unimp  0
    13ec:	00 00 1d 79 	unimp  0x1d79
    13f0:	80 00 00 28 	unknown
    13f4:	00 00 00 00 	unimp  0
    13f8:	00 00 18 2c 	unimp  0x182c
    13fc:	c2 00 00 00 	ld  [ %g0 ], %g1
    1400:	00 00 0f b1 	unimp  0xfb1
    1404:	00 00 1d 91 	unimp  0x1d91
    1408:	80 00 00 4e 	unknown
    140c:	00 00 00 00 	unimp  0
    1410:	00 00 1d a6 	unimp  0x1da6
    1414:	80 00 00 4f 	unknown
    1418:	00 00 00 00 	unimp  0
    141c:	00 00 1d bb 	unimp  0x1dbb
    1420:	80 00 00 50 	unknown
    1424:	00 00 00 00 	unimp  0
    1428:	00 00 1d ce 	unimp  0x1dce
    142c:	80 00 00 51 	unknown
    1430:	00 00 00 00 	unimp  0
    1434:	00 00 1d e3 	unimp  0x1de3
    1438:	80 00 00 55 	unknown
    143c:	00 00 00 00 	unimp  0
    1440:	00 00 1d f8 	unimp  0x1df8
    1444:	80 00 00 56 	unknown
    1448:	00 00 00 00 	unimp  0
    144c:	00 00 1e 0b 	unimp  0x1e0b
    1450:	80 00 00 5a 	unknown
    1454:	00 00 00 00 	unimp  0
    1458:	00 00 1e 21 	unimp  0x1e21
    145c:	80 00 00 5f 	unknown
    1460:	00 00 00 00 	unimp  0
    1464:	00 00 1e 36 	unimp  0x1e36
    1468:	80 00 00 00 	add  %g0, %g0, %g0
    146c:	00 00 00 00 	unimp  0
    1470:	00 00 1e 72 	unimp  0x1e72
    1474:	80 00 00 00 	add  %g0, %g0, %g0
    1478:	00 00 00 00 	unimp  0
    147c:	00 00 1e b8 	unimp  0x1eb8
    1480:	80 00 00 6f 	unknown
    1484:	00 00 00 00 	unimp  0
    1488:	00 00 1e ce 	unimp  0x1ece
    148c:	80 00 00 70 	unknown
    1490:	00 00 00 00 	unimp  0
    1494:	00 00 1e e4 	unimp  0x1ee4
    1498:	80 00 00 77 	unknown
    149c:	00 00 00 00 	unimp  0
    14a0:	00 00 1e f8 	unimp  0x1ef8
    14a4:	80 00 00 9b 	unknown
    14a8:	00 00 00 00 	unimp  0
    14ac:	00 00 1f 0c 	unimp  0x1f0c
    14b0:	80 00 00 a0 	unknown
    14b4:	00 00 00 00 	unimp  0
    14b8:	00 00 1f 20 	unimp  0x1f20
    14bc:	80 00 00 a2 	unknown
    14c0:	00 00 00 00 	unimp  0
    14c4:	00 00 1f 34 	unimp  0x1f34
    14c8:	80 00 00 a3 	unknown
    14cc:	00 00 00 00 	unimp  0
    14d0:	00 00 1f 48 	unimp  0x1f48
    14d4:	80 00 00 a6 	unknown
    14d8:	00 00 00 00 	unimp  0
    14dc:	00 00 1f 5c 	unimp  0x1f5c
    14e0:	80 00 00 a8 	unknown
    14e4:	00 00 00 00 	unimp  0
    14e8:	00 00 1f 70 	unimp  0x1f70
    14ec:	80 00 00 aa 	unknown
    14f0:	00 00 00 00 	unimp  0
    14f4:	00 00 1f 86 	unimp  0x1f86
    14f8:	80 00 00 b5 	unknown
    14fc:	00 00 00 00 	unimp  0
    1500:	00 00 1f 9b 	unimp  0x1f9b
    1504:	80 00 00 bd 	unknown
    1508:	00 00 00 00 	unimp  0
    150c:	00 00 1f b1 	unimp  0x1fb1
    1510:	80 00 00 d3 	unknown
    1514:	00 00 00 00 	unimp  0
    1518:	00 00 1f c7 	unimp  0x1fc7
    151c:	80 00 00 00 	add  %g0, %g0, %g0
    1520:	00 00 00 00 	unimp  0
    1524:	00 00 20 0a 	unimp  0x200a
    1528:	80 00 00 dd 	unknown
	...
    1534:	a2 00 00 00 	add  %g0, %g0, %l1
    1538:	00 00 00 00 	unimp  0
    153c:	00 00 20 27 	unimp  0x2027
    1540:	80 00 00 32 	unknown
    1544:	00 00 00 00 	unimp  0
    1548:	00 00 20 3a 	unimp  0x203a
    154c:	80 00 00 3b 	unknown
	...
    1558:	a2 00 00 00 	add  %g0, %g0, %l1
    155c:	00 00 00 00 	unimp  0
    1560:	00 00 20 4f 	unimp  0x204f
    1564:	80 00 00 00 	add  %g0, %g0, %g0
    1568:	00 00 00 00 	unimp  0
    156c:	00 00 21 2f 	unimp  0x212f
    1570:	80 00 00 00 	add  %g0, %g0, %g0
    1574:	00 00 00 00 	unimp  0
    1578:	00 00 21 97 	unimp  0x2197
    157c:	80 00 04 e3 	unknown
    1580:	00 00 00 00 	unimp  0
    1584:	00 00 21 b0 	unimp  0x21b0
    1588:	80 00 06 0f 	unknown
    158c:	00 00 00 00 	unimp  0
    1590:	00 00 21 c7 	unimp  0x21c7
    1594:	24 00 09 0a 	unknown
    1598:	40 50 12 c4 	call  14060a8 <_trap_table-0x3f0f9f58>
    159c:	00 00 21 d9 	unimp  0x21d9
    15a0:	40 00 09 06 	call  39b8 <_trap_table-0x404fc648>
    15a4:	00 00 00 13 	unimp  0x13
    15a8:	00 00 21 eb 	unimp  0x21eb
    15ac:	40 00 09 06 	call  39c4 <_trap_table-0x404fc63c>
    15b0:	00 00 00 19 	unimp  0x19
    15b4:	00 00 00 00 	unimp  0
    15b8:	44 00 09 0a 	call  100039e0 <_trap_table-0x304fc620>
    15bc:	00 00 00 00 	unimp  0
    15c0:	00 00 00 00 	unimp  0
    15c4:	44 00 09 1e 	call  10003a3c <_trap_table-0x304fc5c4>
    15c8:	00 00 00 04 	unimp  0x4
    15cc:	00 00 00 00 	unimp  0
    15d0:	44 00 09 0a 	call  100039f8 <_trap_table-0x304fc608>
    15d4:	00 00 00 0c 	unimp  0xc
    15d8:	00 00 00 00 	unimp  0
    15dc:	44 00 09 1e 	call  10003a54 <_trap_table-0x304fc5ac>
    15e0:	00 00 00 10 	unimp  0x10
    15e4:	00 00 00 00 	unimp  0
    15e8:	44 00 09 1e 	call  10003a60 <_trap_table-0x304fc5a0>
    15ec:	00 00 00 18 	unimp  0x18
    15f0:	00 00 00 00 	unimp  0
    15f4:	44 00 09 21 	call  10003a78 <_trap_table-0x304fc588>
    15f8:	00 00 00 1c 	unimp  0x1c
    15fc:	00 00 00 00 	unimp  0
    1600:	44 00 09 22 	call  10003a88 <_trap_table-0x304fc578>
    1604:	00 00 00 2c 	unimp  0x2c
    1608:	00 00 00 00 	unimp  0
    160c:	44 00 09 21 	call  10003a90 <_trap_table-0x304fc570>
    1610:	00 00 00 2c 	unimp  0x2c
    1614:	00 00 00 00 	unimp  0
    1618:	44 00 09 24 	call  10003aa8 <_trap_table-0x304fc558>
    161c:	00 00 00 34 	unimp  0x34
    1620:	00 00 00 00 	unimp  0
    1624:	44 00 09 28 	call  10003ac4 <_trap_table-0x304fc53c>
    1628:	00 00 00 3c 	unimp  0x3c
    162c:	00 00 00 00 	unimp  0
    1630:	44 00 09 48 	call  10003b50 <_trap_table-0x304fc4b0>
    1634:	00 00 00 40 	unimp  0x40
    1638:	00 00 00 00 	unimp  0
    163c:	44 00 09 28 	call  10003adc <_trap_table-0x304fc524>
    1640:	00 00 00 40 	unimp  0x40
    1644:	00 00 00 00 	unimp  0
    1648:	44 00 09 2e 	call  10003b00 <_trap_table-0x304fc500>
    164c:	00 00 00 48 	unimp  0x48
    1650:	00 00 00 00 	unimp  0
    1654:	44 00 09 2f 	call  10003b10 <_trap_table-0x304fc4f0>
    1658:	00 00 00 54 	unimp  0x54
    165c:	00 00 00 00 	unimp  0
    1660:	44 00 09 33 	call  10003b2c <_trap_table-0x304fc4d4>
    1664:	00 00 00 58 	unimp  0x58
    1668:	00 00 00 00 	unimp  0
    166c:	44 00 09 2e 	call  10003b24 <_trap_table-0x304fc4dc>
    1670:	00 00 00 5c 	unimp  0x5c
    1674:	00 00 00 00 	unimp  0
    1678:	44 00 09 33 	call  10003b44 <_trap_table-0x304fc4bc>
    167c:	00 00 00 5c 	unimp  0x5c
    1680:	00 00 00 00 	unimp  0
    1684:	44 00 09 3b 	call  10003b70 <_trap_table-0x304fc490>
    1688:	00 00 00 64 	unimp  0x64
    168c:	00 00 00 00 	unimp  0
    1690:	44 00 09 59 	call  10003bf4 <_trap_table-0x304fc40c>
    1694:	00 00 00 6c 	unimp  0x6c
    1698:	00 00 00 00 	unimp  0
    169c:	44 00 09 58 	call  10003bfc <_trap_table-0x304fc404>
    16a0:	00 00 00 78 	unimp  0x78
    16a4:	00 00 00 00 	unimp  0
    16a8:	44 00 09 59 	call  10003c0c <_trap_table-0x304fc3f4>
    16ac:	00 00 00 84 	unimp  0x84
    16b0:	00 00 00 00 	unimp  0
    16b4:	44 00 09 bc 	call  10003da4 <_trap_table-0x304fc25c>
    16b8:	00 00 00 88 	unimp  0x88
    16bc:	00 00 00 00 	unimp  0
    16c0:	44 00 0a 0c 	call  10003ef0 <_trap_table-0x304fc110>
    16c4:	00 00 00 8c 	unimp  0x8c
    16c8:	00 00 00 00 	unimp  0
    16cc:	44 00 0a 0d 	call  10003f00 <_trap_table-0x304fc100>
    16d0:	00 00 00 94 	unimp  0x94
    16d4:	00 00 00 00 	unimp  0
    16d8:	44 00 09 48 	call  10003bf8 <_trap_table-0x304fc408>
    16dc:	00 00 00 9c 	unimp  0x9c
    16e0:	00 00 00 00 	unimp  0
    16e4:	44 00 09 49 	call  10003c08 <_trap_table-0x304fc3f8>
    16e8:	00 00 00 a8 	unimp  0xa8
    16ec:	00 00 00 00 	unimp  0
    16f0:	44 00 09 4b 	call  10003c1c <_trap_table-0x304fc3e4>
    16f4:	00 00 00 b8 	unimp  0xb8
    16f8:	00 00 00 00 	unimp  0
    16fc:	44 00 09 4d 	call  10003c30 <_trap_table-0x304fc3d0>
    1700:	00 00 00 c0 	unimp  0xc0
    1704:	00 00 00 00 	unimp  0
    1708:	44 00 09 4e 	call  10003c40 <_trap_table-0x304fc3c0>
    170c:	00 00 00 c4 	unimp  0xc4
    1710:	00 00 00 00 	unimp  0
    1714:	44 00 09 50 	call  10003c54 <_trap_table-0x304fc3ac>
    1718:	00 00 00 c8 	unimp  0xc8
    171c:	00 00 00 00 	unimp  0
    1720:	44 00 09 56 	call  10003c78 <_trap_table-0x304fc388>
    1724:	00 00 00 cc 	unimp  0xcc
    1728:	00 00 00 00 	unimp  0
    172c:	44 00 09 50 	call  10003c6c <_trap_table-0x304fc394>
    1730:	00 00 00 cc 	unimp  0xcc
    1734:	00 00 00 00 	unimp  0
    1738:	44 00 09 59 	call  10003c9c <_trap_table-0x304fc364>
    173c:	00 00 00 d4 	unimp  0xd4
    1740:	00 00 00 00 	unimp  0
    1744:	44 00 09 56 	call  10003c9c <_trap_table-0x304fc364>
    1748:	00 00 00 d4 	unimp  0xd4
    174c:	00 00 00 00 	unimp  0
    1750:	44 00 09 4b 	call  10003c7c <_trap_table-0x304fc384>
    1754:	00 00 00 dc 	unimp  0xdc
    1758:	00 00 00 00 	unimp  0
    175c:	44 00 09 4d 	call  10003c90 <_trap_table-0x304fc370>
    1760:	00 00 00 e4 	unimp  0xe4
    1764:	00 00 00 00 	unimp  0
    1768:	44 00 09 4b 	call  10003c94 <_trap_table-0x304fc36c>
    176c:	00 00 00 e4 	unimp  0xe4
    1770:	00 00 00 00 	unimp  0
    1774:	44 00 09 60 	call  10003cf4 <_trap_table-0x304fc30c>
    1778:	00 00 00 ec 	unimp  0xec
    177c:	00 00 00 00 	unimp  0
    1780:	44 00 09 66 	call  10003d18 <_trap_table-0x304fc2e8>
    1784:	00 00 00 f0 	unimp  0xf0
    1788:	00 00 00 00 	unimp  0
    178c:	44 00 09 8b 	call  10003db8 <_trap_table-0x304fc248>
    1790:	00 00 01 00 	unimp  0x100
    1794:	00 00 00 00 	unimp  0
    1798:	44 00 09 66 	call  10003d30 <_trap_table-0x304fc2d0>
    179c:	00 00 01 00 	unimp  0x100
    17a0:	00 00 00 00 	unimp  0
    17a4:	44 00 09 68 	call  10003d44 <_trap_table-0x304fc2bc>
    17a8:	00 00 01 08 	unimp  0x108
    17ac:	00 00 00 00 	unimp  0
    17b0:	44 00 09 69 	call  10003d54 <_trap_table-0x304fc2ac>
    17b4:	00 00 01 10 	unimp  0x110
    17b8:	00 00 00 00 	unimp  0
    17bc:	44 00 09 6b 	call  10003d68 <_trap_table-0x304fc298>
    17c0:	00 00 01 14 	unimp  0x114
    17c4:	00 00 00 00 	unimp  0
    17c8:	44 00 09 79 	call  10003dac <_trap_table-0x304fc254>
    17cc:	00 00 01 18 	unimp  0x118
    17d0:	00 00 00 00 	unimp  0
    17d4:	44 00 09 6b 	call  10003d80 <_trap_table-0x304fc280>
    17d8:	00 00 01 18 	unimp  0x118
    17dc:	00 00 00 00 	unimp  0
    17e0:	44 00 09 77 	call  10003dbc <_trap_table-0x304fc244>
    17e4:	00 00 01 20 	unimp  0x120
    17e8:	00 00 00 00 	unimp  0
    17ec:	44 00 09 79 	call  10003dd0 <_trap_table-0x304fc230>
    17f0:	00 00 01 24 	unimp  0x124
    17f4:	00 00 00 00 	unimp  0
    17f8:	44 00 09 7b 	call  10003de4 <_trap_table-0x304fc21c>
    17fc:	00 00 01 2c 	unimp  0x12c
    1800:	00 00 00 00 	unimp  0
    1804:	44 00 09 48 	call  10003d24 <_trap_table-0x304fc2dc>
    1808:	00 00 01 40 	unimp  0x140
    180c:	00 00 00 00 	unimp  0
    1810:	44 00 09 35 	call  10003ce4 <_trap_table-0x304fc31c>
    1814:	00 00 01 94 	unimp  0x194
    1818:	00 00 00 00 	unimp  0
    181c:	44 00 09 36 	call  10003cf4 <_trap_table-0x304fc30c>
    1820:	00 00 01 98 	unimp  0x198
    1824:	00 00 00 00 	unimp  0
    1828:	44 00 09 39 	call  10003d0c <_trap_table-0x304fc2f4>
    182c:	00 00 01 9c 	unimp  0x19c
    1830:	00 00 00 00 	unimp  0
    1834:	44 00 09 3b 	call  10003d20 <_trap_table-0x304fc2e0>
    1838:	00 00 01 a0 	unimp  0x1a0
    183c:	00 00 00 00 	unimp  0
    1840:	44 00 09 39 	call  10003d24 <_trap_table-0x304fc2dc>
    1844:	00 00 01 a0 	unimp  0x1a0
    1848:	00 00 00 00 	unimp  0
    184c:	44 00 09 43 	call  10003d58 <_trap_table-0x304fc2a8>
    1850:	00 00 01 a8 	unimp  0x1a8
    1854:	00 00 00 00 	unimp  0
    1858:	44 00 09 83 	call  10003e64 <_trap_table-0x304fc19c>
    185c:	00 00 01 b0 	unimp  0x1b0
    1860:	00 00 00 00 	unimp  0
    1864:	44 00 09 8b 	call  10003e90 <_trap_table-0x304fc170>
    1868:	00 00 02 70 	unimp  0x270
    186c:	00 00 00 00 	unimp  0
    1870:	44 00 09 ef 	call  1000402c <_trap_table-0x304fbfd4>
    1874:	00 00 02 98 	unimp  0x298
    1878:	00 00 00 00 	unimp  0
    187c:	44 00 09 8b 	call  10003ea8 <_trap_table-0x304fc158>
    1880:	00 00 02 98 	unimp  0x298
    1884:	00 00 00 00 	unimp  0
    1888:	44 00 09 90 	call  10003ec8 <_trap_table-0x304fc138>
    188c:	00 00 02 a0 	unimp  0x2a0
    1890:	00 00 00 00 	unimp  0
    1894:	44 00 09 93 	call  10003ee0 <_trap_table-0x304fc120>
    1898:	00 00 02 ac 	unimp  0x2ac
    189c:	00 00 00 00 	unimp  0
    18a0:	44 00 09 94 	call  10003ef0 <_trap_table-0x304fc110>
    18a4:	00 00 02 b0 	unimp  0x2b0
    18a8:	00 00 00 00 	unimp  0
    18ac:	44 00 09 98 	call  10003f0c <_trap_table-0x304fc0f4>
    18b0:	00 00 02 b4 	unimp  0x2b4
    18b4:	00 00 00 00 	unimp  0
    18b8:	44 00 09 93 	call  10003f04 <_trap_table-0x304fc0fc>
    18bc:	00 00 02 b8 	unimp  0x2b8
    18c0:	00 00 00 00 	unimp  0
    18c4:	44 00 09 98 	call  10003f24 <_trap_table-0x304fc0dc>
    18c8:	00 00 02 b8 	unimp  0x2b8
    18cc:	00 00 00 00 	unimp  0
    18d0:	44 00 09 97 	call  10003f2c <_trap_table-0x304fc0d4>
    18d4:	00 00 02 cc 	unimp  0x2cc
    18d8:	00 00 00 00 	unimp  0
    18dc:	44 00 09 98 	call  10003f3c <_trap_table-0x304fc0c4>
    18e0:	00 00 02 cc 	unimp  0x2cc
    18e4:	00 00 00 00 	unimp  0
    18e8:	44 00 09 a0 	call  10003f68 <_trap_table-0x304fc098>
    18ec:	00 00 02 e0 	unimp  0x2e0
    18f0:	00 00 00 00 	unimp  0
    18f4:	44 00 09 9f 	call  10003f70 <_trap_table-0x304fc090>
    18f8:	00 00 02 e8 	unimp  0x2e8
    18fc:	00 00 00 00 	unimp  0
    1900:	44 00 09 a0 	call  10003f80 <_trap_table-0x304fc080>
    1904:	00 00 02 ec 	unimp  0x2ec
    1908:	00 00 00 00 	unimp  0
    190c:	44 00 09 a7 	call  10003fa8 <_trap_table-0x304fc058>
    1910:	00 00 02 f0 	unimp  0x2f0
    1914:	00 00 00 00 	unimp  0
    1918:	44 00 09 a9 	call  10003fbc <_trap_table-0x304fc044>
    191c:	00 00 02 f8 	unimp  0x2f8
    1920:	00 00 00 00 	unimp  0
    1924:	44 00 09 aa 	call  10003fcc <_trap_table-0x304fc034>
    1928:	00 00 02 fc 	unimp  0x2fc
    192c:	00 00 00 00 	unimp  0
    1930:	44 00 09 ac 	call  10003fe0 <_trap_table-0x304fc020>
    1934:	00 00 03 00 	unimp  0x300
    1938:	00 00 00 00 	unimp  0
    193c:	44 00 09 b9 	call  10004020 <_trap_table-0x304fbfe0>
    1940:	00 00 03 04 	unimp  0x304
    1944:	00 00 00 00 	unimp  0
    1948:	44 00 09 ac 	call  10003ff8 <_trap_table-0x304fc008>
    194c:	00 00 03 04 	unimp  0x304
    1950:	00 00 00 00 	unimp  0
    1954:	44 00 09 bb 	call  10004040 <_trap_table-0x304fbfc0>
    1958:	00 00 03 0c 	unimp  0x30c
    195c:	00 00 00 00 	unimp  0
    1960:	44 00 09 b9 	call  10004044 <_trap_table-0x304fbfbc>
    1964:	00 00 03 0c 	unimp  0x30c
    1968:	00 00 00 00 	unimp  0
    196c:	44 00 09 a7 	call  10004008 <_trap_table-0x304fbff8>
    1970:	00 00 03 14 	unimp  0x314
    1974:	00 00 00 00 	unimp  0
    1978:	44 00 09 a9 	call  1000401c <_trap_table-0x304fbfe4>
    197c:	00 00 03 1c 	unimp  0x31c
    1980:	00 00 00 00 	unimp  0
    1984:	44 00 09 a7 	call  10004020 <_trap_table-0x304fbfe0>
    1988:	00 00 03 1c 	unimp  0x31c
    198c:	00 00 00 00 	unimp  0
    1990:	44 00 09 cd 	call  100040c4 <_trap_table-0x304fbf3c>
    1994:	00 00 03 24 	unimp  0x324
    1998:	00 00 00 00 	unimp  0
    199c:	44 00 09 c4 	call  100040ac <_trap_table-0x304fbf54>
    19a0:	00 00 03 2c 	unimp  0x32c
    19a4:	00 00 00 00 	unimp  0
    19a8:	44 00 09 cd 	call  100040dc <_trap_table-0x304fbf24>
    19ac:	00 00 03 2c 	unimp  0x32c
    19b0:	00 00 00 00 	unimp  0
    19b4:	44 00 09 d3 	call  10004100 <_trap_table-0x304fbf00>
    19b8:	00 00 03 34 	unimp  0x334
    19bc:	00 00 00 00 	unimp  0
    19c0:	44 00 09 d9 	call  10004124 <_trap_table-0x304fbedc>
    19c4:	00 00 03 38 	unimp  0x338
    19c8:	00 00 00 00 	unimp  0
    19cc:	44 00 09 d8 	call  1000412c <_trap_table-0x304fbed4>
    19d0:	00 00 03 3c 	unimp  0x33c
    19d4:	00 00 00 00 	unimp  0
    19d8:	44 00 09 d3 	call  10004124 <_trap_table-0x304fbedc>
    19dc:	00 00 03 3c 	unimp  0x33c
    19e0:	00 00 00 00 	unimp  0
    19e4:	44 00 09 da 	call  1000414c <_trap_table-0x304fbeb4>
    19e8:	00 00 03 44 	unimp  0x344
    19ec:	00 00 00 00 	unimp  0
    19f0:	44 00 09 d3 	call  1000413c <_trap_table-0x304fbec4>
    19f4:	00 00 03 4c 	unimp  0x34c
    19f8:	00 00 00 00 	unimp  0
    19fc:	44 00 09 da 	call  10004164 <_trap_table-0x304fbe9c>
    1a00:	00 00 03 4c 	unimp  0x34c
    1a04:	00 00 00 00 	unimp  0
    1a08:	44 00 09 de 	call  10004180 <_trap_table-0x304fbe80>
    1a0c:	00 00 03 54 	unimp  0x354
    1a10:	00 00 00 00 	unimp  0
    1a14:	44 00 09 e3 	call  100041a0 <_trap_table-0x304fbe60>
    1a18:	00 00 03 6c 	unimp  0x36c
    1a1c:	00 00 00 00 	unimp  0
    1a20:	44 00 09 de 	call  10004198 <_trap_table-0x304fbe68>
    1a24:	00 00 03 6c 	unimp  0x36c
    1a28:	00 00 00 00 	unimp  0
    1a2c:	44 00 09 ef 	call  100041e8 <_trap_table-0x304fbe18>
    1a30:	00 00 03 74 	unimp  0x374
    1a34:	00 00 00 00 	unimp  0
    1a38:	44 00 09 e2 	call  100041c0 <_trap_table-0x304fbe40>
    1a3c:	00 00 03 7c 	unimp  0x37c
    1a40:	00 00 00 00 	unimp  0
    1a44:	44 00 09 e3 	call  100041d0 <_trap_table-0x304fbe30>
    1a48:	00 00 03 80 	unimp  0x380
    1a4c:	00 00 00 00 	unimp  0
    1a50:	44 00 09 a0 	call  100040d0 <_trap_table-0x304fbf30>
    1a54:	00 00 03 8c 	unimp  0x38c
    1a58:	00 00 00 00 	unimp  0
    1a5c:	44 00 09 6e 	call  10004014 <_trap_table-0x304fbfec>
    1a60:	00 00 03 94 	unimp  0x394
    1a64:	00 00 00 00 	unimp  0
    1a68:	44 00 09 6d 	call  1000401c <_trap_table-0x304fbfe4>
    1a6c:	00 00 03 98 	unimp  0x398
    1a70:	00 00 00 00 	unimp  0
    1a74:	44 00 09 6e 	call  1000402c <_trap_table-0x304fbfd4>
    1a78:	00 00 03 9c 	unimp  0x39c
    1a7c:	00 00 00 00 	unimp  0
    1a80:	44 00 09 6f 	call  1000403c <_trap_table-0x304fbfc4>
    1a84:	00 00 03 a0 	unimp  0x3a0
    1a88:	00 00 00 00 	unimp  0
    1a8c:	44 00 09 70 	call  1000404c <_trap_table-0x304fbfb4>
    1a90:	00 00 03 a8 	unimp  0x3a8
    1a94:	00 00 00 00 	unimp  0
    1a98:	44 00 09 71 	call  1000405c <_trap_table-0x304fbfa4>
    1a9c:	00 00 03 ac 	unimp  0x3ac
    1aa0:	00 00 00 00 	unimp  0
    1aa4:	44 00 09 6f 	call  10004060 <_trap_table-0x304fbfa0>
    1aa8:	00 00 03 b0 	unimp  0x3b0
    1aac:	00 00 00 00 	unimp  0
    1ab0:	44 00 09 70 	call  10004070 <_trap_table-0x304fbf90>
    1ab4:	00 00 03 b4 	unimp  0x3b4
    1ab8:	00 00 00 00 	unimp  0
    1abc:	44 00 09 6f 	call  10004078 <_trap_table-0x304fbf88>
    1ac0:	00 00 03 b8 	unimp  0x3b8
    1ac4:	00 00 00 00 	unimp  0
    1ac8:	44 00 09 ef 	call  10004284 <_trap_table-0x304fbd7c>
    1acc:	00 00 03 c0 	unimp  0x3c0
    1ad0:	00 00 00 00 	unimp  0
    1ad4:	44 00 09 f0 	call  10004294 <_trap_table-0x304fbd6c>
    1ad8:	00 00 03 d0 	unimp  0x3d0
    1adc:	00 00 00 00 	unimp  0
    1ae0:	44 00 09 ef 	call  1000429c <_trap_table-0x304fbd64>
    1ae4:	00 00 03 d8 	unimp  0x3d8
    1ae8:	00 00 00 00 	unimp  0
    1aec:	44 00 09 f0 	call  100042ac <_trap_table-0x304fbd54>
    1af0:	00 00 03 dc 	unimp  0x3dc
    1af4:	00 00 00 00 	unimp  0
    1af8:	44 00 08 5d 	call  10003c6c <_trap_table-0x304fc394>
    1afc:	00 00 03 ec 	unimp  0x3ec
    1b00:	00 00 00 00 	unimp  0
    1b04:	44 00 09 f0 	call  100042c4 <_trap_table-0x304fbd3c>
    1b08:	00 00 03 ec 	unimp  0x3ec
    1b0c:	00 00 00 00 	unimp  0
    1b10:	44 00 08 5d 	call  10003c84 <_trap_table-0x304fc37c>
    1b14:	00 00 03 f4 	unimp  0x3f4
    1b18:	00 00 00 00 	unimp  0
    1b1c:	44 00 08 64 	call  10003cac <_trap_table-0x304fc354>
    1b20:	00 00 03 f8 	unimp  0x3f8
    1b24:	00 00 00 00 	unimp  0
    1b28:	44 00 08 5d 	call  10003c9c <_trap_table-0x304fc364>
    1b2c:	00 00 03 fc 	unimp  0x3fc
    1b30:	00 00 00 00 	unimp  0
    1b34:	44 00 08 64 	call  10003cc4 <_trap_table-0x304fc33c>
    1b38:	00 00 04 00 	unimp  0x400
    1b3c:	00 00 00 00 	unimp  0
    1b40:	44 00 08 58 	call  10003ca0 <_trap_table-0x304fc360>
    1b44:	00 00 04 04 	unimp  0x404
    1b48:	00 00 00 00 	unimp  0
    1b4c:	44 00 08 64 	call  10003cdc <_trap_table-0x304fc324>
    1b50:	00 00 04 08 	unimp  0x408
    1b54:	00 00 00 00 	unimp  0
    1b58:	44 00 08 5d 	call  10003ccc <_trap_table-0x304fc334>
    1b5c:	00 00 04 0c 	unimp  0x40c
    1b60:	00 00 00 00 	unimp  0
    1b64:	44 00 08 59 	call  10003cc8 <_trap_table-0x304fc338>
    1b68:	00 00 04 10 	unimp  0x410
    1b6c:	00 00 00 00 	unimp  0
    1b70:	44 00 08 64 	call  10003d00 <_trap_table-0x304fc300>
    1b74:	00 00 04 10 	unimp  0x410
    1b78:	00 00 00 00 	unimp  0
    1b7c:	44 00 08 65 	call  10003d10 <_trap_table-0x304fc2f0>
    1b80:	00 00 04 18 	unimp  0x418
    1b84:	00 00 00 00 	unimp  0
    1b88:	44 00 08 67 	call  10003d24 <_trap_table-0x304fc2dc>
    1b8c:	00 00 04 20 	unimp  0x420
    1b90:	00 00 00 00 	unimp  0
    1b94:	44 00 08 6a 	call  10003d3c <_trap_table-0x304fc2c4>
    1b98:	00 00 04 2c 	unimp  0x42c
    1b9c:	00 00 00 00 	unimp  0
    1ba0:	44 00 08 67 	call  10003d3c <_trap_table-0x304fc2c4>
    1ba4:	00 00 04 30 	unimp  0x430
    1ba8:	00 00 00 00 	unimp  0
    1bac:	44 00 08 6a 	call  10003d54 <_trap_table-0x304fc2ac>
    1bb0:	00 00 04 30 	unimp  0x430
    1bb4:	00 00 00 00 	unimp  0
    1bb8:	44 00 08 6e 	call  10003d70 <_trap_table-0x304fc290>
    1bbc:	00 00 04 3c 	unimp  0x43c
    1bc0:	00 00 00 00 	unimp  0
    1bc4:	44 00 08 6a 	call  10003d6c <_trap_table-0x304fc294>
    1bc8:	00 00 04 3c 	unimp  0x43c
    1bcc:	00 00 00 00 	unimp  0
    1bd0:	44 00 08 6e 	call  10003d88 <_trap_table-0x304fc278>
    1bd4:	00 00 04 48 	unimp  0x448
    1bd8:	00 00 00 00 	unimp  0
    1bdc:	44 00 08 6a 	call  10003d84 <_trap_table-0x304fc27c>
    1be0:	00 00 04 48 	unimp  0x448
    1be4:	00 00 00 00 	unimp  0
    1be8:	44 00 09 ff 	call  100043e4 <_trap_table-0x304fbc1c>
    1bec:	00 00 04 50 	unimp  0x450
    1bf0:	00 00 00 00 	unimp  0
    1bf4:	44 00 0a 00 	call  100043f4 <_trap_table-0x304fbc0c>
    1bf8:	00 00 04 60 	unimp  0x460
    1bfc:	00 00 00 00 	unimp  0
    1c00:	44 00 09 ff 	call  100043fc <_trap_table-0x304fbc04>
    1c04:	00 00 04 68 	unimp  0x468
    1c08:	00 00 00 00 	unimp  0
    1c0c:	44 00 0a 00 	call  1000440c <_trap_table-0x304fbbf4>
    1c10:	00 00 04 6c 	unimp  0x46c
    1c14:	00 00 00 00 	unimp  0
    1c18:	44 00 0a 07 	call  10004434 <_trap_table-0x304fbbcc>
    1c1c:	00 00 04 88 	unimp  0x488
    1c20:	00 00 00 00 	unimp  0
    1c24:	44 00 0a 08 	call  10004444 <_trap_table-0x304fbbbc>
    1c28:	00 00 04 90 	unimp  0x490
    1c2c:	00 00 00 00 	unimp  0
    1c30:	44 00 0a 09 	call  10004454 <_trap_table-0x304fbbac>
    1c34:	00 00 04 98 	unimp  0x498
    1c38:	00 00 00 00 	unimp  0
    1c3c:	44 00 0a 0a 	call  10004464 <_trap_table-0x304fbb9c>
    1c40:	00 00 04 9c 	unimp  0x49c
    1c44:	00 00 00 00 	unimp  0
    1c48:	44 00 0a 09 	call  1000446c <_trap_table-0x304fbb94>
    1c4c:	00 00 04 a4 	unimp  0x4a4
    1c50:	00 00 00 00 	unimp  0
    1c54:	44 00 09 83 	call  10004260 <_trap_table-0x304fbda0>
    1c58:	00 00 04 ac 	unimp  0x4ac
    1c5c:	00 00 00 00 	unimp  0
    1c60:	44 00 09 f0 	call  10004420 <_trap_table-0x304fbbe0>
    1c64:	00 00 04 e8 	unimp  0x4e8
    1c68:	00 00 00 00 	unimp  0
    1c6c:	44 00 09 52 	call  100041b4 <_trap_table-0x304fbe4c>
    1c70:	00 00 04 f0 	unimp  0x4f0
    1c74:	00 00 00 00 	unimp  0
    1c78:	44 00 09 b0 	call  10004338 <_trap_table-0x304fbcc8>
    1c7c:	00 00 04 f8 	unimp  0x4f8
    1c80:	00 00 00 00 	unimp  0
    1c84:	44 00 09 af 	call  10004340 <_trap_table-0x304fbcc0>
    1c88:	00 00 05 00 	unimp  0x500
    1c8c:	00 00 00 00 	unimp  0
    1c90:	44 00 09 ae 	call  10004348 <_trap_table-0x304fbcb8>
    1c94:	00 00 05 04 	unimp  0x504
    1c98:	00 00 00 00 	unimp  0
    1c9c:	44 00 09 b1 	call  10004360 <_trap_table-0x304fbca0>
    1ca0:	00 00 05 08 	unimp  0x508
    1ca4:	00 00 00 00 	unimp  0
    1ca8:	44 00 09 b0 	call  10004368 <_trap_table-0x304fbc98>
    1cac:	00 00 05 0c 	unimp  0x50c
    1cb0:	00 00 00 00 	unimp  0
    1cb4:	44 00 09 af 	call  10004370 <_trap_table-0x304fbc90>
    1cb8:	00 00 05 14 	unimp  0x514
    1cbc:	00 00 00 00 	unimp  0
    1cc0:	44 00 09 b1 	call  10004384 <_trap_table-0x304fbc7c>
    1cc4:	00 00 05 18 	unimp  0x518
    1cc8:	00 00 00 00 	unimp  0
    1ccc:	44 00 09 b2 	call  10004394 <_trap_table-0x304fbc6c>
    1cd0:	00 00 05 20 	unimp  0x520
    1cd4:	00 00 00 00 	unimp  0
    1cd8:	44 00 09 b3 	call  100043a4 <_trap_table-0x304fbc5c>
    1cdc:	00 00 05 24 	unimp  0x524
    1ce0:	00 00 00 00 	unimp  0
    1ce4:	44 00 09 b1 	call  100043a8 <_trap_table-0x304fbc58>
    1ce8:	00 00 05 28 	unimp  0x528
    1cec:	00 00 00 00 	unimp  0
    1cf0:	44 00 09 b2 	call  100043b8 <_trap_table-0x304fbc48>
    1cf4:	00 00 05 2c 	unimp  0x52c
    1cf8:	00 00 00 00 	unimp  0
    1cfc:	44 00 09 b1 	call  100043c0 <_trap_table-0x304fbc40>
    1d00:	00 00 05 30 	unimp  0x530
    1d04:	00 00 00 00 	unimp  0
    1d08:	44 00 09 bb 	call  100043f4 <_trap_table-0x304fbc0c>
    1d0c:	00 00 05 38 	unimp  0x538
    1d10:	00 00 00 00 	unimp  0
    1d14:	44 00 09 bc 	call  10004404 <_trap_table-0x304fbbfc>
    1d18:	00 00 05 40 	unimp  0x540
    1d1c:	00 00 00 00 	unimp  0
    1d20:	44 00 09 bb 	call  1000440c <_trap_table-0x304fbbf4>
    1d24:	00 00 05 48 	unimp  0x548
    1d28:	00 00 00 00 	unimp  0
    1d2c:	44 00 09 bc 	call  1000441c <_trap_table-0x304fbbe4>
    1d30:	00 00 05 4c 	unimp  0x54c
    1d34:	00 00 00 00 	unimp  0
    1d38:	44 00 08 6e 	call  10003ef0 <_trap_table-0x304fc110>
    1d3c:	00 00 05 54 	unimp  0x554
    1d40:	00 00 00 00 	unimp  0
    1d44:	44 00 08 70 	call  10003f04 <_trap_table-0x304fc0fc>
    1d48:	00 00 05 5c 	unimp  0x55c
    1d4c:	00 00 00 00 	unimp  0
    1d50:	44 00 08 6e 	call  10003f08 <_trap_table-0x304fc0f8>
    1d54:	00 00 05 60 	unimp  0x560
    1d58:	00 00 00 00 	unimp  0
    1d5c:	44 00 08 70 	call  10003f1c <_trap_table-0x304fc0e4>
    1d60:	00 00 05 60 	unimp  0x560
    1d64:	00 00 00 00 	unimp  0
    1d68:	44 00 08 79 	call  10003f4c <_trap_table-0x304fc0b4>
    1d6c:	00 00 05 68 	unimp  0x568
    1d70:	00 00 00 00 	unimp  0
    1d74:	44 00 08 7c 	call  10003f64 <_trap_table-0x304fc09c>
    1d78:	00 00 05 70 	unimp  0x570
    1d7c:	00 00 00 00 	unimp  0
    1d80:	44 00 08 79 	call  10003f64 <_trap_table-0x304fc09c>
    1d84:	00 00 05 70 	unimp  0x570
    1d88:	00 00 00 00 	unimp  0
    1d8c:	44 00 08 7c 	call  10003f7c <_trap_table-0x304fc084>
    1d90:	00 00 05 78 	unimp  0x578
    1d94:	00 00 00 00 	unimp  0
    1d98:	44 00 08 80 	call  10003f98 <_trap_table-0x304fc068>
    1d9c:	00 00 05 84 	unimp  0x584
    1da0:	00 00 00 00 	unimp  0
    1da4:	44 00 08 86 	call  10003fbc <_trap_table-0x304fc044>
    1da8:	00 00 05 88 	unimp  0x588
    1dac:	00 00 00 00 	unimp  0
    1db0:	44 00 08 80 	call  10003fb0 <_trap_table-0x304fc050>
    1db4:	00 00 05 88 	unimp  0x588
    1db8:	00 00 00 00 	unimp  0
    1dbc:	44 00 08 82 	call  10003fc4 <_trap_table-0x304fc03c>
    1dc0:	00 00 05 90 	unimp  0x590
    1dc4:	00 00 00 00 	unimp  0
    1dc8:	44 00 08 83 	call  10003fd4 <_trap_table-0x304fc02c>
    1dcc:	00 00 05 98 	unimp  0x598
    1dd0:	00 00 00 00 	unimp  0
    1dd4:	44 00 08 89 	call  10003ff8 <_trap_table-0x304fc008>
    1dd8:	00 00 05 9c 	unimp  0x59c
    1ddc:	00 00 00 00 	unimp  0
    1de0:	44 00 08 8c 	call  10004010 <_trap_table-0x304fbff0>
    1de4:	00 00 05 b0 	unimp  0x5b0
    1de8:	00 00 00 00 	unimp  0
    1dec:	44 00 08 8d 	call  10004020 <_trap_table-0x304fbfe0>
    1df0:	00 00 05 bc 	unimp  0x5bc
    1df4:	00 00 00 00 	unimp  0
    1df8:	44 00 08 8f 	call  10004034 <_trap_table-0x304fbfcc>
    1dfc:	00 00 05 c0 	unimp  0x5c0
    1e00:	00 00 00 00 	unimp  0
    1e04:	44 00 08 8d 	call  10004038 <_trap_table-0x304fbfc8>
    1e08:	00 00 05 c0 	unimp  0x5c0
    1e0c:	00 00 00 00 	unimp  0
    1e10:	44 00 08 97 	call  1000406c <_trap_table-0x304fbf94>
    1e14:	00 00 05 c8 	unimp  0x5c8
    1e18:	00 00 00 00 	unimp  0
    1e1c:	44 00 08 96 	call  10004074 <_trap_table-0x304fbf8c>
    1e20:	00 00 05 d0 	unimp  0x5d0
    1e24:	00 00 00 00 	unimp  0
    1e28:	44 00 08 94 	call  10004078 <_trap_table-0x304fbf88>
    1e2c:	00 00 05 d4 	unimp  0x5d4
    1e30:	00 00 00 00 	unimp  0
    1e34:	44 00 08 9a 	call  1000409c <_trap_table-0x304fbf64>
    1e38:	00 00 05 dc 	unimp  0x5dc
    1e3c:	00 00 00 00 	unimp  0
    1e40:	44 00 08 96 	call  10004098 <_trap_table-0x304fbf68>
    1e44:	00 00 05 e0 	unimp  0x5e0
    1e48:	00 00 00 00 	unimp  0
    1e4c:	44 00 08 94 	call  1000409c <_trap_table-0x304fbf64>
    1e50:	00 00 05 e4 	unimp  0x5e4
    1e54:	00 00 00 00 	unimp  0
    1e58:	44 00 08 98 	call  100040b8 <_trap_table-0x304fbf48>
    1e5c:	00 00 05 e8 	unimp  0x5e8
    1e60:	00 00 00 00 	unimp  0
    1e64:	44 00 08 9a 	call  100040cc <_trap_table-0x304fbf34>
    1e68:	00 00 05 e8 	unimp  0x5e8
    1e6c:	00 00 00 00 	unimp  0
    1e70:	44 00 08 a1 	call  100040f4 <_trap_table-0x304fbf0c>
    1e74:	00 00 05 f0 	unimp  0x5f0
    1e78:	00 00 00 00 	unimp  0
    1e7c:	44 00 08 a3 	call  10004108 <_trap_table-0x304fbef8>
    1e80:	00 00 05 fc 	unimp  0x5fc
    1e84:	00 00 00 00 	unimp  0
    1e88:	44 00 08 a9 	call  1000412c <_trap_table-0x304fbed4>
    1e8c:	00 00 06 08 	unimp  0x608
    1e90:	00 00 00 00 	unimp  0
    1e94:	44 00 08 a8 	call  10004134 <_trap_table-0x304fbecc>
    1e98:	00 00 06 0c 	unimp  0x60c
    1e9c:	00 00 00 00 	unimp  0
    1ea0:	44 00 08 a9 	call  10004144 <_trap_table-0x304fbebc>
    1ea4:	00 00 06 14 	unimp  0x614
    1ea8:	00 00 00 00 	unimp  0
    1eac:	44 00 08 aa 	call  10004154 <_trap_table-0x304fbeac>
    1eb0:	00 00 06 20 	unimp  0x620
    1eb4:	00 00 00 00 	unimp  0
    1eb8:	44 00 08 ac 	call  10004168 <_trap_table-0x304fbe98>
    1ebc:	00 00 06 28 	unimp  0x628
    1ec0:	00 00 00 00 	unimp  0
    1ec4:	44 00 08 af 	call  10004180 <_trap_table-0x304fbe80>
    1ec8:	00 00 06 2c 	unimp  0x62c
    1ecc:	00 00 00 00 	unimp  0
    1ed0:	44 00 08 aa 	call  10004178 <_trap_table-0x304fbe88>
    1ed4:	00 00 06 30 	unimp  0x630
    1ed8:	00 00 00 00 	unimp  0
    1edc:	44 00 08 af 	call  10004198 <_trap_table-0x304fbe68>
    1ee0:	00 00 06 30 	unimp  0x630
    1ee4:	00 00 00 00 	unimp  0
    1ee8:	44 00 08 b4 	call  100041b8 <_trap_table-0x304fbe48>
    1eec:	00 00 06 38 	unimp  0x638
    1ef0:	00 00 00 00 	unimp  0
    1ef4:	44 00 08 b5 	call  100041c8 <_trap_table-0x304fbe38>
    1ef8:	00 00 06 48 	unimp  0x648
    1efc:	00 00 00 00 	unimp  0
    1f00:	44 00 08 b4 	call  100041d0 <_trap_table-0x304fbe30>
    1f04:	00 00 06 48 	unimp  0x648
    1f08:	00 00 00 00 	unimp  0
    1f0c:	44 00 08 ba 	call  100041f4 <_trap_table-0x304fbe0c>
    1f10:	00 00 06 50 	unimp  0x650
    1f14:	00 00 00 00 	unimp  0
    1f18:	44 00 08 bb 	call  10004204 <_trap_table-0x304fbdfc>
    1f1c:	00 00 06 5c 	unimp  0x65c
    1f20:	00 00 00 00 	unimp  0
    1f24:	44 00 08 ba 	call  1000420c <_trap_table-0x304fbdf4>
    1f28:	00 00 06 5c 	unimp  0x65c
    1f2c:	00 00 00 00 	unimp  0
    1f30:	44 00 09 ff 	call  1000472c <_trap_table-0x304fb8d4>
    1f34:	00 00 06 64 	unimp  0x664
    1f38:	00 00 00 00 	unimp  0
    1f3c:	44 00 09 83 	call  10004548 <_trap_table-0x304fbab8>
    1f40:	00 00 06 6c 	unimp  0x66c
    1f44:	00 00 00 00 	unimp  0
    1f48:	44 00 08 7a 	call  10004130 <_trap_table-0x304fbed0>
    1f4c:	00 00 06 84 	unimp  0x684
    1f50:	00 00 00 00 	unimp  0
    1f54:	44 00 09 d5 	call  100046a8 <_trap_table-0x304fb958>
    1f58:	00 00 06 8c 	unimp  0x68c
    1f5c:	00 00 00 00 	unimp  0
    1f60:	44 00 08 70 	call  10004120 <_trap_table-0x304fbee0>
    1f64:	00 00 06 9c 	unimp  0x69c
    1f68:	00 00 00 00 	unimp  0
    1f6c:	44 00 08 79 	call  10004150 <_trap_table-0x304fbeb0>
    1f70:	00 00 06 a0 	unimp  0x6a0
    1f74:	00 00 00 00 	unimp  0
    1f78:	44 00 08 70 	call  10004138 <_trap_table-0x304fbec8>
    1f7c:	00 00 06 a0 	unimp  0x6a0
    1f80:	00 00 00 00 	unimp  0
    1f84:	44 00 08 74 	call  10004154 <_trap_table-0x304fbeac>
    1f88:	00 00 06 a8 	unimp  0x6a8
    1f8c:	00 00 00 00 	unimp  0
    1f90:	44 00 08 75 	call  10004164 <_trap_table-0x304fbe9c>
    1f94:	00 00 06 ac 	unimp  0x6ac
    1f98:	00 00 00 00 	unimp  0
    1f9c:	44 00 08 91 	call  100041e0 <_trap_table-0x304fbe20>
    1fa0:	00 00 06 bc 	unimp  0x6bc
    1fa4:	00 00 00 00 	unimp  0
    1fa8:	44 00 08 b0 	call  10004268 <_trap_table-0x304fbd98>
    1fac:	00 00 06 cc 	unimp  0x6cc
    1fb0:	00 00 00 00 	unimp  0
    1fb4:	44 00 08 b4 	call  10004284 <_trap_table-0x304fbd7c>
    1fb8:	00 00 06 d8 	unimp  0x6d8
    1fbc:	00 00 00 00 	unimp  0
    1fc0:	44 00 0a 02 	call  100047c8 <_trap_table-0x304fb838>
    1fc4:	00 00 06 e0 	unimp  0x6e0
    1fc8:	00 00 00 00 	unimp  0
    1fcc:	44 00 0a 03 	call  100047d8 <_trap_table-0x304fb828>
    1fd0:	00 00 06 e8 	unimp  0x6e8
    1fd4:	00 00 21 f8 	unimp  0x21f8
    1fd8:	40 00 09 11 	call  441c <_trap_table-0x404fbbe4>
    1fdc:	00 00 00 18 	unimp  0x18
    1fe0:	00 00 22 07 	unimp  0x2207
    1fe4:	40 00 09 12 	call  442c <_trap_table-0x404fbbd4>
    1fe8:	00 00 00 0a 	unimp  0xa
    1fec:	00 00 22 1a 	unimp  0x221a
    1ff0:	40 00 09 13 	call  443c <_trap_table-0x404fbbc4>
    1ff4:	00 00 00 0f 	unimp  0xf
    1ff8:	00 00 22 25 	unimp  0x2225
    1ffc:	40 00 09 14 	call  444c <_trap_table-0x404fbbb4>
    2000:	00 00 00 0d 	unimp  0xd
    2004:	00 00 22 31 	unimp  0x2231
    2008:	40 00 09 15 	call  445c <_trap_table-0x404fbba4>
    200c:	00 00 00 0a 	unimp  0xa
    2010:	00 00 22 43 	unimp  0x2243
    2014:	40 00 09 16 	call  446c <_trap_table-0x404fbb94>
    2018:	00 00 00 0b 	unimp  0xb
    201c:	00 00 22 59 	unimp  0x2259
    2020:	40 00 09 17 	call  447c <_trap_table-0x404fbb84>
    2024:	00 00 00 0d 	unimp  0xd
    2028:	00 00 22 70 	unimp  0x2270
    202c:	40 00 09 18 	call  448c <_trap_table-0x404fbb74>
    2030:	00 00 00 09 	unimp  0x9
    2034:	00 00 22 7d 	unimp  0x227d
    2038:	40 00 09 19 	call  449c <_trap_table-0x404fbb64>
    203c:	00 00 00 08 	unimp  0x8
    2040:	00 00 22 8d 	unimp  0x228d
    2044:	40 00 09 1a 	call  44ac <_trap_table-0x404fbb54>
    2048:	00 00 00 09 	unimp  0x9
    204c:	00 00 22 99 	unimp  0x2299
    2050:	40 00 09 1b 	call  44bc <_trap_table-0x404fbb44>
    2054:	00 00 00 08 	unimp  0x8
    2058:	00 00 22 a5 	unimp  0x22a5
    205c:	40 00 09 1c 	call  44cc <_trap_table-0x404fbb34>
    2060:	00 00 00 0c 	unimp  0xc
    2064:	00 00 22 af 	unimp  0x22af
    2068:	40 00 09 1e 	call  44e0 <_trap_table-0x404fbb20>
    206c:	00 00 00 10 	unimp  0x10
    2070:	00 00 00 00 	unimp  0
    2074:	c0 00 00 00 	ld  [ %g0 ], %g0
    2078:	00 00 00 00 	unimp  0
    207c:	00 00 22 b9 	unimp  0x22b9
    2080:	40 00 08 50 	call  41c0 <_trap_table-0x404fbe40>
    2084:	00 00 00 19 	unimp  0x19
    2088:	00 00 22 c4 	unimp  0x22c4
    208c:	40 00 08 51 	call  41d0 <_trap_table-0x404fbe30>
    2090:	00 00 00 0d 	unimp  0xd
    2094:	00 00 22 da 	unimp  0x22da
    2098:	40 00 08 52 	call  41e0 <_trap_table-0x404fbe20>
    209c:	00 00 00 12 	unimp  0x12
    20a0:	00 00 22 ec 	unimp  0x22ec
    20a4:	40 00 08 54 	call  41f4 <_trap_table-0x404fbe0c>
    20a8:	00 00 00 08 	unimp  0x8
    20ac:	00 00 22 fb 	unimp  0x22fb
    20b0:	40 00 08 55 	call  4204 <_trap_table-0x404fbdfc>
    20b4:	00 00 00 08 	unimp  0x8
    20b8:	00 00 23 0b 	unimp  0x230b
    20bc:	40 00 08 58 	call  421c <_trap_table-0x404fbde4>
    20c0:	00 00 00 14 	unimp  0x14
    20c4:	00 00 23 1f 	unimp  0x231f
    20c8:	40 00 08 59 	call  422c <_trap_table-0x404fbdd4>
    20cc:	00 00 00 12 	unimp  0x12
    20d0:	00 00 23 2e 	unimp  0x232e
    20d4:	40 00 08 5d 	call  4248 <_trap_table-0x404fbdb8>
    20d8:	00 00 00 11 	unimp  0x11
    20dc:	00 00 23 3f 	unimp  0x233f
    20e0:	40 00 08 5e 	call  4258 <_trap_table-0x404fbda8>
    20e4:	00 00 00 01 	unimp  0x1
    20e8:	00 00 00 00 	unimp  0
    20ec:	c0 00 00 00 	ld  [ %g0 ], %g0
    20f0:	00 00 03 f4 	unimp  0x3f4
    20f4:	00 00 00 00 	unimp  0
    20f8:	e0 00 00 00 	ld  [ %g0 ], %l0
    20fc:	00 00 04 50 	unimp  0x450
    2100:	00 00 22 b9 	unimp  0x22b9
    2104:	40 00 08 50 	call  4244 <_trap_table-0x404fbdbc>
    2108:	00 00 00 19 	unimp  0x19
    210c:	00 00 22 c4 	unimp  0x22c4
    2110:	40 00 08 51 	call  4254 <_trap_table-0x404fbdac>
    2114:	00 00 00 0d 	unimp  0xd
    2118:	00 00 22 da 	unimp  0x22da
    211c:	40 00 08 52 	call  4264 <_trap_table-0x404fbd9c>
    2120:	00 00 00 12 	unimp  0x12
    2124:	00 00 22 ec 	unimp  0x22ec
    2128:	40 00 08 54 	call  4278 <_trap_table-0x404fbd88>
    212c:	00 00 00 08 	unimp  0x8
    2130:	00 00 22 fb 	unimp  0x22fb
    2134:	40 00 08 55 	call  4288 <_trap_table-0x404fbd78>
    2138:	00 00 00 08 	unimp  0x8
    213c:	00 00 23 0b 	unimp  0x230b
    2140:	40 00 08 58 	call  42a0 <_trap_table-0x404fbd60>
    2144:	00 00 00 14 	unimp  0x14
    2148:	00 00 23 1f 	unimp  0x231f
    214c:	40 00 08 59 	call  42b0 <_trap_table-0x404fbd50>
    2150:	00 00 00 12 	unimp  0x12
    2154:	00 00 23 2e 	unimp  0x232e
    2158:	40 00 08 5d 	call  42cc <_trap_table-0x404fbd34>
    215c:	00 00 00 11 	unimp  0x11
    2160:	00 00 23 3f 	unimp  0x233f
    2164:	40 00 08 5e 	call  42dc <_trap_table-0x404fbd24>
    2168:	00 00 00 01 	unimp  0x1
    216c:	00 00 00 00 	unimp  0
    2170:	c0 00 00 00 	ld  [ %g0 ], %g0
    2174:	00 00 05 54 	unimp  0x554
    2178:	00 00 00 00 	unimp  0
    217c:	e0 00 00 00 	ld  [ %g0 ], %l0
    2180:	00 00 06 6c 	unimp  0x66c
    2184:	00 00 22 b9 	unimp  0x22b9
    2188:	40 00 08 50 	call  42c8 <_trap_table-0x404fbd38>
    218c:	00 00 00 19 	unimp  0x19
    2190:	00 00 22 c4 	unimp  0x22c4
    2194:	40 00 08 51 	call  42d8 <_trap_table-0x404fbd28>
    2198:	00 00 00 0d 	unimp  0xd
    219c:	00 00 22 da 	unimp  0x22da
    21a0:	40 00 08 52 	call  42e8 <_trap_table-0x404fbd18>
    21a4:	00 00 00 12 	unimp  0x12
    21a8:	00 00 22 ec 	unimp  0x22ec
    21ac:	40 00 08 54 	call  42fc <_trap_table-0x404fbd04>
    21b0:	00 00 00 08 	unimp  0x8
    21b4:	00 00 22 fb 	unimp  0x22fb
    21b8:	40 00 08 55 	call  430c <_trap_table-0x404fbcf4>
    21bc:	00 00 00 08 	unimp  0x8
    21c0:	00 00 23 0b 	unimp  0x230b
    21c4:	40 00 08 58 	call  4324 <_trap_table-0x404fbcdc>
    21c8:	00 00 00 14 	unimp  0x14
    21cc:	00 00 23 1f 	unimp  0x231f
    21d0:	40 00 08 59 	call  4334 <_trap_table-0x404fbccc>
    21d4:	00 00 00 12 	unimp  0x12
    21d8:	00 00 23 2e 	unimp  0x232e
    21dc:	40 00 08 5d 	call  4350 <_trap_table-0x404fbcb0>
    21e0:	00 00 00 11 	unimp  0x11
    21e4:	00 00 23 3f 	unimp  0x233f
    21e8:	40 00 08 5e 	call  4360 <_trap_table-0x404fbca0>
    21ec:	00 00 00 01 	unimp  0x1
    21f0:	00 00 00 00 	unimp  0
    21f4:	c0 00 00 00 	ld  [ %g0 ], %g0
    21f8:	00 00 06 9c 	unimp  0x69c
    21fc:	00 00 00 00 	unimp  0
    2200:	e0 00 00 00 	ld  [ %g0 ], %l0
    2204:	00 00 06 e0 	unimp  0x6e0
    2208:	00 00 00 00 	unimp  0
    220c:	e0 00 00 00 	ld  [ %g0 ], %l0
    2210:	00 00 06 f4 	unimp  0x6f4
    2214:	00 00 00 00 	unimp  0
    2218:	24 00 00 00 	unknown
    221c:	00 00 06 f4 	unimp  0x6f4
    2220:	00 00 23 4d 	unimp  0x234d
    2224:	20 00 06 2f 	unknown
    2228:	00 00 00 00 	unimp  0
    222c:	00 00 23 78 	unimp  0x2378
    2230:	20 00 06 9a 	unknown
    2234:	00 00 00 00 	unimp  0
    2238:	00 00 23 97 	unimp  0x2397
    223c:	20 00 06 9b 	unknown
    2240:	00 00 00 00 	unimp  0
    2244:	00 00 23 af 	unimp  0x23af
    2248:	20 00 06 a2 	unknown
    224c:	00 00 00 00 	unimp  0
    2250:	00 00 23 c9 	unimp  0x23c9
    2254:	20 00 06 a5 	unknown
    2258:	00 00 00 00 	unimp  0
    225c:	00 00 23 e8 	unimp  0x23e8
    2260:	20 00 06 a8 	unknown
    2264:	00 00 00 00 	unimp  0
    2268:	00 00 24 06 	unimp  0x2406
    226c:	20 00 06 ab 	unknown
	...
    2278:	64 00 00 00 	call  90002278 <LEON_REG+0x10002278>
    227c:	40 50 19 b8 	call  140895c <_trap_table-0x3f0f76a4>
    2280:	00 00 00 8f 	unimp  0x8f
    2284:	64 00 00 00 	call  90002284 <LEON_REG+0x10002284>
    2288:	40 50 19 b8 	call  1408968 <_trap_table-0x3f0f7698>
    228c:	00 00 24 28 	unimp  0x2428
    2290:	64 00 00 00 	call  90002290 <LEON_REG+0x10002290>
    2294:	40 50 19 b8 	call  1408974 <_trap_table-0x3f0f768c>
    2298:	00 00 01 23 	unimp  0x123
    229c:	3c 00 00 00 	unknown
    22a0:	00 00 00 00 	unimp  0
    22a4:	00 00 01 32 	unimp  0x132
    22a8:	80 00 00 00 	add  %g0, %g0, %g0
    22ac:	00 00 00 00 	unimp  0
    22b0:	00 00 01 5c 	unimp  0x15c
    22b4:	80 00 00 00 	add  %g0, %g0, %g0
    22b8:	00 00 00 00 	unimp  0
    22bc:	00 00 01 76 	unimp  0x176
    22c0:	80 00 00 00 	add  %g0, %g0, %g0
    22c4:	00 00 00 00 	unimp  0
    22c8:	00 00 01 a5 	unimp  0x1a5
    22cc:	80 00 00 00 	add  %g0, %g0, %g0
    22d0:	00 00 00 00 	unimp  0
    22d4:	00 00 01 dd 	unimp  0x1dd
    22d8:	80 00 00 00 	add  %g0, %g0, %g0
    22dc:	00 00 00 00 	unimp  0
    22e0:	00 00 02 1a 	unimp  0x21a
    22e4:	80 00 00 00 	add  %g0, %g0, %g0
    22e8:	00 00 00 00 	unimp  0
    22ec:	00 00 02 6b 	unimp  0x26b
    22f0:	80 00 00 00 	add  %g0, %g0, %g0
    22f4:	00 00 00 00 	unimp  0
    22f8:	00 00 02 bc 	unimp  0x2bc
    22fc:	80 00 00 00 	add  %g0, %g0, %g0
    2300:	00 00 00 00 	unimp  0
    2304:	00 00 02 e7 	unimp  0x2e7
    2308:	80 00 00 00 	add  %g0, %g0, %g0
    230c:	00 00 00 00 	unimp  0
    2310:	00 00 03 16 	unimp  0x316
    2314:	80 00 00 00 	add  %g0, %g0, %g0
    2318:	00 00 00 00 	unimp  0
    231c:	00 00 03 40 	unimp  0x340
    2320:	80 00 00 00 	add  %g0, %g0, %g0
    2324:	00 00 00 00 	unimp  0
    2328:	00 00 03 69 	unimp  0x369
    232c:	80 00 00 00 	add  %g0, %g0, %g0
    2330:	00 00 00 00 	unimp  0
    2334:	00 00 03 83 	unimp  0x383
    2338:	80 00 00 00 	add  %g0, %g0, %g0
    233c:	00 00 00 00 	unimp  0
    2340:	00 00 03 9e 	unimp  0x39e
    2344:	80 00 00 00 	add  %g0, %g0, %g0
    2348:	00 00 00 00 	unimp  0
    234c:	00 00 03 be 	unimp  0x3be
    2350:	80 00 00 00 	add  %g0, %g0, %g0
    2354:	00 00 00 00 	unimp  0
    2358:	00 00 03 f7 	unimp  0x3f7
    235c:	80 00 00 00 	add  %g0, %g0, %g0
    2360:	00 00 00 00 	unimp  0
    2364:	00 00 04 15 	unimp  0x415
    2368:	80 00 00 00 	add  %g0, %g0, %g0
    236c:	00 00 00 00 	unimp  0
    2370:	00 00 04 35 	unimp  0x435
    2374:	80 00 00 00 	add  %g0, %g0, %g0
    2378:	00 00 00 00 	unimp  0
    237c:	00 00 04 5a 	unimp  0x45a
    2380:	80 00 00 00 	add  %g0, %g0, %g0
    2384:	00 00 00 00 	unimp  0
    2388:	00 00 04 6e 	unimp  0x46e
    238c:	80 00 00 00 	add  %g0, %g0, %g0
    2390:	00 00 00 00 	unimp  0
    2394:	00 00 04 90 	unimp  0x490
    2398:	80 00 00 00 	add  %g0, %g0, %g0
    239c:	00 00 00 00 	unimp  0
    23a0:	00 00 1a 75 	unimp  0x1a75
    23a4:	c2 00 00 00 	ld  [ %g0 ], %g1
    23a8:	00 00 39 c3 	unimp  0x39c3
    23ac:	00 00 05 64 	unimp  0x564
    23b0:	c2 00 00 00 	ld  [ %g0 ], %g1
    23b4:	00 02 bf 15 	unimp  0x2bf15
    23b8:	00 00 05 ad 	unimp  0x5ad
    23bc:	c2 00 00 00 	ld  [ %g0 ], %g1
    23c0:	00 00 3b 70 	unimp  0x3b70
    23c4:	00 00 05 f7 	unimp  0x5f7
    23c8:	c2 00 00 00 	ld  [ %g0 ], %g1
    23cc:	00 00 1f b7 	unimp  0x1fb7
    23d0:	00 00 06 5e 	unimp  0x65e
    23d4:	c2 00 00 00 	ld  [ %g0 ], %g1
    23d8:	00 00 bc 67 	unimp  0xbc67
    23dc:	00 00 04 ed 	unimp  0x4ed
    23e0:	c2 00 00 00 	ld  [ %g0 ], %g1
    23e4:	00 00 04 de 	unimp  0x4de
    23e8:	00 00 04 ed 	unimp  0x4ed
    23ec:	82 00 00 00 	add  %g0, %g0, %g1
    23f0:	00 00 04 d8 	unimp  0x4d8
    23f4:	00 00 24 5f 	unimp  0x245f
    23f8:	80 00 00 d5 	unknown
	...
    2404:	a2 00 00 00 	add  %g0, %g0, %l1
    2408:	00 00 00 00 	unimp  0
    240c:	00 00 24 73 	unimp  0x2473
    2410:	24 00 00 31 	unknown
    2414:	40 50 19 b8 	call  1408af4 <_trap_table-0x3f0f750c>
    2418:	00 00 24 89 	unimp  0x2489
    241c:	40 00 00 30 	call  24dc <_trap_table-0x404fdb24>
    2420:	00 00 00 08 	unimp  0x8
    2424:	00 00 00 00 	unimp  0
    2428:	44 00 00 31 	call  100024ec <_trap_table-0x304fdb14>
    242c:	00 00 00 00 	unimp  0
    2430:	00 00 00 00 	unimp  0
    2434:	44 00 00 33 	call  10002500 <_trap_table-0x304fdb00>
    2438:	00 00 00 00 	unimp  0
    243c:	00 00 00 00 	unimp  0
    2440:	24 00 00 00 	unknown
    2444:	00 00 00 18 	unimp  0x18
    2448:	00 00 24 95 	unimp  0x2495
    244c:	24 00 00 3a 	unknown
    2450:	40 50 19 d0 	call  1408b90 <_trap_table-0x3f0f7470>
    2454:	00 00 24 89 	unimp  0x2489
    2458:	40 00 00 39 	call  253c <_trap_table-0x404fdac4>
    245c:	00 00 00 08 	unimp  0x8
    2460:	00 00 00 00 	unimp  0
    2464:	44 00 00 3a 	call  1000254c <_trap_table-0x304fdab4>
    2468:	00 00 00 00 	unimp  0
    246c:	00 00 00 00 	unimp  0
    2470:	44 00 00 3c 	call  10002560 <_trap_table-0x304fdaa0>
    2474:	00 00 00 00 	unimp  0
    2478:	00 00 00 00 	unimp  0
    247c:	24 00 00 00 	unknown
    2480:	00 00 00 18 	unimp  0x18
    2484:	00 00 24 ad 	unimp  0x24ad
    2488:	26 00 00 2b 	unknown
    248c:	40 50 3a e8 	call  141102c <_trap_table-0x3f0eefd4>
    2490:	00 00 00 00 	unimp  0
    2494:	64 00 00 00 	call  90002494 <LEON_REG+0x10002494>
    2498:	40 50 19 e8 	call  1408c38 <_trap_table-0x3f0f73c8>
    249c:	00 00 19 1f 	unimp  0x191f
    24a0:	64 00 00 00 	call  900024a0 <LEON_REG+0x100024a0>
    24a4:	40 50 19 e8 	call  1408c44 <_trap_table-0x3f0f73bc>
    24a8:	00 00 24 c9 	unimp  0x24c9
    24ac:	64 00 00 00 	call  900024ac <LEON_REG+0x100024ac>
    24b0:	40 50 19 e8 	call  1408c50 <_trap_table-0x3f0f73b0>
    24b4:	00 00 01 23 	unimp  0x123
    24b8:	3c 00 00 00 	unknown
    24bc:	00 00 00 00 	unimp  0
    24c0:	00 00 01 32 	unimp  0x132
    24c4:	80 00 00 00 	add  %g0, %g0, %g0
    24c8:	00 00 00 00 	unimp  0
    24cc:	00 00 01 5c 	unimp  0x15c
    24d0:	80 00 00 00 	add  %g0, %g0, %g0
    24d4:	00 00 00 00 	unimp  0
    24d8:	00 00 01 76 	unimp  0x176
    24dc:	80 00 00 00 	add  %g0, %g0, %g0
    24e0:	00 00 00 00 	unimp  0
    24e4:	00 00 01 a5 	unimp  0x1a5
    24e8:	80 00 00 00 	add  %g0, %g0, %g0
    24ec:	00 00 00 00 	unimp  0
    24f0:	00 00 01 dd 	unimp  0x1dd
    24f4:	80 00 00 00 	add  %g0, %g0, %g0
    24f8:	00 00 00 00 	unimp  0
    24fc:	00 00 02 1a 	unimp  0x21a
    2500:	80 00 00 00 	add  %g0, %g0, %g0
    2504:	00 00 00 00 	unimp  0
    2508:	00 00 02 6b 	unimp  0x26b
    250c:	80 00 00 00 	add  %g0, %g0, %g0
    2510:	00 00 00 00 	unimp  0
    2514:	00 00 02 bc 	unimp  0x2bc
    2518:	80 00 00 00 	add  %g0, %g0, %g0
    251c:	00 00 00 00 	unimp  0
    2520:	00 00 02 e7 	unimp  0x2e7
    2524:	80 00 00 00 	add  %g0, %g0, %g0
    2528:	00 00 00 00 	unimp  0
    252c:	00 00 03 16 	unimp  0x316
    2530:	80 00 00 00 	add  %g0, %g0, %g0
    2534:	00 00 00 00 	unimp  0
    2538:	00 00 03 40 	unimp  0x340
    253c:	80 00 00 00 	add  %g0, %g0, %g0
    2540:	00 00 00 00 	unimp  0
    2544:	00 00 03 69 	unimp  0x369
    2548:	80 00 00 00 	add  %g0, %g0, %g0
    254c:	00 00 00 00 	unimp  0
    2550:	00 00 03 83 	unimp  0x383
    2554:	80 00 00 00 	add  %g0, %g0, %g0
    2558:	00 00 00 00 	unimp  0
    255c:	00 00 03 9e 	unimp  0x39e
    2560:	80 00 00 00 	add  %g0, %g0, %g0
    2564:	00 00 00 00 	unimp  0
    2568:	00 00 03 be 	unimp  0x3be
    256c:	80 00 00 00 	add  %g0, %g0, %g0
    2570:	00 00 00 00 	unimp  0
    2574:	00 00 03 f7 	unimp  0x3f7
    2578:	80 00 00 00 	add  %g0, %g0, %g0
    257c:	00 00 00 00 	unimp  0
    2580:	00 00 04 15 	unimp  0x415
    2584:	80 00 00 00 	add  %g0, %g0, %g0
    2588:	00 00 00 00 	unimp  0
    258c:	00 00 04 35 	unimp  0x435
    2590:	80 00 00 00 	add  %g0, %g0, %g0
    2594:	00 00 00 00 	unimp  0
    2598:	00 00 04 5a 	unimp  0x45a
    259c:	80 00 00 00 	add  %g0, %g0, %g0
    25a0:	00 00 00 00 	unimp  0
    25a4:	00 00 04 6e 	unimp  0x46e
    25a8:	80 00 00 00 	add  %g0, %g0, %g0
    25ac:	00 00 00 00 	unimp  0
    25b0:	00 00 04 90 	unimp  0x490
    25b4:	80 00 00 00 	add  %g0, %g0, %g0
    25b8:	00 00 00 00 	unimp  0
    25bc:	00 00 17 e7 	unimp  0x17e7
    25c0:	c2 00 00 00 	ld  [ %g0 ], %g1
    25c4:	00 00 00 00 	unimp  0
    25c8:	00 00 05 64 	unimp  0x564
    25cc:	c2 00 00 00 	ld  [ %g0 ], %g1
    25d0:	00 02 bf 15 	unimp  0x2bf15
    25d4:	00 00 05 ad 	unimp  0x5ad
    25d8:	c2 00 00 00 	ld  [ %g0 ], %g1
    25dc:	00 00 3b 70 	unimp  0x3b70
    25e0:	00 00 05 f7 	unimp  0x5f7
    25e4:	c2 00 00 00 	ld  [ %g0 ], %g1
    25e8:	00 00 1f b7 	unimp  0x1fb7
    25ec:	00 00 06 5e 	unimp  0x65e
    25f0:	c2 00 00 00 	ld  [ %g0 ], %g1
    25f4:	00 00 bc 67 	unimp  0xbc67
    25f8:	00 00 04 ed 	unimp  0x4ed
    25fc:	c2 00 00 00 	ld  [ %g0 ], %g1
    2600:	00 00 04 de 	unimp  0x4de
    2604:	00 00 18 2c 	unimp  0x182c
    2608:	c2 00 00 00 	ld  [ %g0 ], %g1
    260c:	00 00 0f b1 	unimp  0xfb1
    2610:	00 00 04 ed 	unimp  0x4ed
    2614:	c2 00 00 00 	ld  [ %g0 ], %g1
    2618:	00 00 0a e2 	unimp  0xae2
    261c:	00 00 24 ff 	unimp  0x24ff
    2620:	82 00 00 00 	add  %g0, %g0, %g1
    2624:	00 00 00 00 	unimp  0
    2628:	00 00 25 45 	unimp  0x2545
    262c:	82 00 00 00 	add  %g0, %g0, %g1
    2630:	00 00 00 00 	unimp  0
    2634:	00 00 1c bb 	unimp  0x1cbb
    2638:	c2 00 00 00 	ld  [ %g0 ], %g1
    263c:	00 00 c7 75 	unimp  0xc775
    2640:	00 00 04 ed 	unimp  0x4ed
    2644:	c2 00 00 00 	ld  [ %g0 ], %g1
    2648:	00 00 05 31 	unimp  0x531
    264c:	00 00 00 00 	unimp  0
    2650:	a2 00 00 00 	add  %g0, %g0, %l1
	...
    265c:	a2 00 00 00 	add  %g0, %g0, %l1
    2660:	00 00 00 00 	unimp  0
    2664:	00 00 25 8f 	unimp  0x258f
    2668:	24 00 00 37 	unknown
    266c:	40 50 19 e8 	call  1408e0c <_trap_table-0x3f0f71f4>
    2670:	00 00 24 89 	unimp  0x2489
    2674:	40 00 00 34 	call  2744 <_trap_table-0x404fd8bc>
    2678:	00 00 00 18 	unimp  0x18
    267c:	00 00 25 9f 	unimp  0x259f
    2680:	40 00 00 34 	call  2750 <_trap_table-0x404fd8b0>
    2684:	00 00 00 19 	unimp  0x19
    2688:	00 00 00 00 	unimp  0
    268c:	44 00 00 37 	call  10002768 <_trap_table-0x304fd898>
    2690:	00 00 00 00 	unimp  0
    2694:	00 00 00 00 	unimp  0
    2698:	44 00 00 3b 	call  10002784 <_trap_table-0x304fd87c>
    269c:	00 00 00 04 	unimp  0x4
    26a0:	00 00 00 00 	unimp  0
    26a4:	44 00 00 3c 	call  10002794 <_trap_table-0x304fd86c>
    26a8:	00 00 00 0c 	unimp  0xc
    26ac:	00 00 00 00 	unimp  0
    26b0:	44 00 00 3c 	call  100027a0 <_trap_table-0x304fd860>
    26b4:	00 00 00 20 	unimp  0x20
    26b8:	00 00 00 00 	unimp  0
    26bc:	44 00 00 3d 	call  100027b0 <_trap_table-0x304fd850>
    26c0:	00 00 00 2c 	unimp  0x2c
    26c4:	00 00 25 ab 	unimp  0x25ab
    26c8:	40 00 00 38 	call  27a8 <_trap_table-0x404fd858>
    26cc:	00 00 00 08 	unimp  0x8
    26d0:	00 00 00 00 	unimp  0
    26d4:	c0 00 00 00 	ld  [ %g0 ], %g0
	...
    26e0:	e0 00 00 00 	ld  [ %g0 ], %l0
    26e4:	00 00 00 38 	unimp  0x38
    26e8:	00 00 00 00 	unimp  0
    26ec:	24 00 00 00 	unknown
    26f0:	00 00 00 38 	unimp  0x38
    26f4:	00 00 00 00 	unimp  0
    26f8:	64 00 00 00 	call  900026f8 <LEON_REG+0x100026f8>
    26fc:	40 50 1a 20 	call  1408f7c <_trap_table-0x3f0f7084>
    2700:	00 00 00 8f 	unimp  0x8f
    2704:	64 00 00 00 	call  90002704 <LEON_REG+0x10002704>
    2708:	40 50 1a 20 	call  1408f88 <_trap_table-0x3f0f7078>
    270c:	00 00 1b d2 	unimp  0x1bd2
    2710:	64 00 00 00 	call  90002710 <LEON_REG+0x10002710>
    2714:	40 50 1a 20 	call  1408f94 <_trap_table-0x3f0f706c>
    2718:	00 00 01 23 	unimp  0x123
    271c:	3c 00 00 00 	unknown
    2720:	00 00 00 00 	unimp  0
    2724:	00 00 01 32 	unimp  0x132
    2728:	80 00 00 00 	add  %g0, %g0, %g0
    272c:	00 00 00 00 	unimp  0
    2730:	00 00 01 5c 	unimp  0x15c
    2734:	80 00 00 00 	add  %g0, %g0, %g0
    2738:	00 00 00 00 	unimp  0
    273c:	00 00 01 76 	unimp  0x176
    2740:	80 00 00 00 	add  %g0, %g0, %g0
    2744:	00 00 00 00 	unimp  0
    2748:	00 00 01 a5 	unimp  0x1a5
    274c:	80 00 00 00 	add  %g0, %g0, %g0
    2750:	00 00 00 00 	unimp  0
    2754:	00 00 01 dd 	unimp  0x1dd
    2758:	80 00 00 00 	add  %g0, %g0, %g0
    275c:	00 00 00 00 	unimp  0
    2760:	00 00 02 1a 	unimp  0x21a
    2764:	80 00 00 00 	add  %g0, %g0, %g0
    2768:	00 00 00 00 	unimp  0
    276c:	00 00 02 6b 	unimp  0x26b
    2770:	80 00 00 00 	add  %g0, %g0, %g0
    2774:	00 00 00 00 	unimp  0
    2778:	00 00 02 bc 	unimp  0x2bc
    277c:	80 00 00 00 	add  %g0, %g0, %g0
    2780:	00 00 00 00 	unimp  0
    2784:	00 00 02 e7 	unimp  0x2e7
    2788:	80 00 00 00 	add  %g0, %g0, %g0
    278c:	00 00 00 00 	unimp  0
    2790:	00 00 03 16 	unimp  0x316
    2794:	80 00 00 00 	add  %g0, %g0, %g0
    2798:	00 00 00 00 	unimp  0
    279c:	00 00 03 40 	unimp  0x340
    27a0:	80 00 00 00 	add  %g0, %g0, %g0
    27a4:	00 00 00 00 	unimp  0
    27a8:	00 00 03 69 	unimp  0x369
    27ac:	80 00 00 00 	add  %g0, %g0, %g0
    27b0:	00 00 00 00 	unimp  0
    27b4:	00 00 03 83 	unimp  0x383
    27b8:	80 00 00 00 	add  %g0, %g0, %g0
    27bc:	00 00 00 00 	unimp  0
    27c0:	00 00 03 9e 	unimp  0x39e
    27c4:	80 00 00 00 	add  %g0, %g0, %g0
    27c8:	00 00 00 00 	unimp  0
    27cc:	00 00 03 be 	unimp  0x3be
    27d0:	80 00 00 00 	add  %g0, %g0, %g0
    27d4:	00 00 00 00 	unimp  0
    27d8:	00 00 03 f7 	unimp  0x3f7
    27dc:	80 00 00 00 	add  %g0, %g0, %g0
    27e0:	00 00 00 00 	unimp  0
    27e4:	00 00 04 15 	unimp  0x415
    27e8:	80 00 00 00 	add  %g0, %g0, %g0
    27ec:	00 00 00 00 	unimp  0
    27f0:	00 00 04 35 	unimp  0x435
    27f4:	80 00 00 00 	add  %g0, %g0, %g0
    27f8:	00 00 00 00 	unimp  0
    27fc:	00 00 04 5a 	unimp  0x45a
    2800:	80 00 00 00 	add  %g0, %g0, %g0
    2804:	00 00 00 00 	unimp  0
    2808:	00 00 04 6e 	unimp  0x46e
    280c:	80 00 00 00 	add  %g0, %g0, %g0
    2810:	00 00 00 00 	unimp  0
    2814:	00 00 04 90 	unimp  0x490
    2818:	80 00 00 00 	add  %g0, %g0, %g0
    281c:	00 00 00 00 	unimp  0
    2820:	00 00 04 ed 	unimp  0x4ed
    2824:	c2 00 00 00 	ld  [ %g0 ], %g1
    2828:	00 00 10 15 	unimp  0x1015
    282c:	00 00 1c 0b 	unimp  0x1c0b
    2830:	c2 00 00 00 	ld  [ %g0 ], %g1
    2834:	00 00 08 a9 	unimp  0x8a9
    2838:	00 00 1c 50 	unimp  0x1c50
    283c:	c2 00 00 00 	ld  [ %g0 ], %g1
    2840:	00 00 08 34 	unimp  0x834
    2844:	00 00 05 64 	unimp  0x564
    2848:	c2 00 00 00 	ld  [ %g0 ], %g1
    284c:	00 02 bf 15 	unimp  0x2bf15
    2850:	00 00 05 ad 	unimp  0x5ad
    2854:	c2 00 00 00 	ld  [ %g0 ], %g1
    2858:	00 00 3b 70 	unimp  0x3b70
    285c:	00 00 05 f7 	unimp  0x5f7
    2860:	c2 00 00 00 	ld  [ %g0 ], %g1
    2864:	00 00 1f b7 	unimp  0x1fb7
    2868:	00 00 06 5e 	unimp  0x65e
    286c:	c2 00 00 00 	ld  [ %g0 ], %g1
    2870:	00 00 bc 67 	unimp  0xbc67
    2874:	00 00 04 ed 	unimp  0x4ed
    2878:	c2 00 00 00 	ld  [ %g0 ], %g1
    287c:	00 00 04 de 	unimp  0x4de
    2880:	00 00 1c bb 	unimp  0x1cbb
    2884:	c2 00 00 00 	ld  [ %g0 ], %g1
    2888:	00 00 c7 75 	unimp  0xc775
    288c:	00 00 18 2c 	unimp  0x182c
    2890:	c2 00 00 00 	ld  [ %g0 ], %g1
    2894:	00 00 0f b1 	unimp  0xfb1
    2898:	00 00 20 4f 	unimp  0x204f
    289c:	80 00 00 00 	add  %g0, %g0, %g0
    28a0:	00 00 00 00 	unimp  0
    28a4:	00 00 21 2f 	unimp  0x212f
    28a8:	80 00 00 00 	add  %g0, %g0, %g0
    28ac:	00 00 00 00 	unimp  0
    28b0:	00 00 21 97 	unimp  0x2197
    28b4:	80 00 04 e3 	unknown
    28b8:	00 00 00 00 	unimp  0
    28bc:	00 00 21 b0 	unimp  0x21b0
    28c0:	80 00 06 0f 	unknown
    28c4:	00 00 00 00 	unimp  0
    28c8:	00 00 25 b6 	unimp  0x25b6
    28cc:	24 00 0c d6 	unknown
    28d0:	40 50 1a 20 	call  1409150 <_trap_table-0x3f0f6eb0>
    28d4:	00 00 21 d9 	unimp  0x21d9
    28d8:	40 00 0c d2 	call  5c20 <_trap_table-0x404fa3e0>
    28dc:	00 00 00 18 	unimp  0x18
    28e0:	00 00 25 cc 	unimp  0x25cc
    28e4:	40 00 0c d2 	call  5c2c <_trap_table-0x404fa3d4>
    28e8:	00 00 00 19 	unimp  0x19
    28ec:	00 00 00 00 	unimp  0
    28f0:	44 00 0c d6 	call  10005c48 <_trap_table-0x304fa3b8>
    28f4:	00 00 00 00 	unimp  0
    28f8:	00 00 00 00 	unimp  0
    28fc:	44 00 0c de 	call  10005c74 <_trap_table-0x304fa38c>
    2900:	00 00 00 04 	unimp  0x4
    2904:	00 00 00 00 	unimp  0
    2908:	44 00 0c e0 	call  10005c88 <_trap_table-0x304fa378>
    290c:	00 00 00 0c 	unimp  0xc
    2910:	00 00 00 00 	unimp  0
    2914:	44 00 0c e1 	call  10005c98 <_trap_table-0x304fa368>
    2918:	00 00 00 20 	unimp  0x20
    291c:	00 00 00 00 	unimp  0
    2920:	44 00 0c ec 	call  10005cd0 <_trap_table-0x304fa330>
    2924:	00 00 00 30 	unimp  0x30
    2928:	00 00 00 00 	unimp  0
    292c:	44 00 0c e3 	call  10005cb8 <_trap_table-0x304fa348>
    2930:	00 00 00 34 	unimp  0x34
    2934:	00 00 00 00 	unimp  0
    2938:	44 00 0c ec 	call  10005ce8 <_trap_table-0x304fa318>
    293c:	00 00 00 38 	unimp  0x38
    2940:	00 00 00 00 	unimp  0
    2944:	44 00 0c e3 	call  10005cd0 <_trap_table-0x304fa330>
    2948:	00 00 00 38 	unimp  0x38
    294c:	00 00 00 00 	unimp  0
    2950:	44 00 0c ec 	call  10005d00 <_trap_table-0x304fa300>
    2954:	00 00 00 40 	unimp  0x40
    2958:	00 00 00 00 	unimp  0
    295c:	44 00 0c ed 	call  10005d10 <_trap_table-0x304fa2f0>
    2960:	00 00 00 48 	unimp  0x48
    2964:	00 00 00 00 	unimp  0
    2968:	44 00 0c f5 	call  10005d3c <_trap_table-0x304fa2c4>
    296c:	00 00 00 54 	unimp  0x54
    2970:	00 00 00 00 	unimp  0
    2974:	44 00 0c ef 	call  10005d30 <_trap_table-0x304fa2d0>
    2978:	00 00 00 58 	unimp  0x58
    297c:	00 00 00 00 	unimp  0
    2980:	44 00 0c ed 	call  10005d34 <_trap_table-0x304fa2cc>
    2984:	00 00 00 58 	unimp  0x58
    2988:	00 00 00 00 	unimp  0
    298c:	44 00 0d 03 	call  10005d98 <_trap_table-0x304fa268>
    2990:	00 00 00 60 	unimp  0x60
    2994:	00 00 00 00 	unimp  0
    2998:	44 00 0d 02 	call  10005da0 <_trap_table-0x304fa260>
    299c:	00 00 00 60 	unimp  0x60
    29a0:	00 00 00 00 	unimp  0
    29a4:	44 00 0c f5 	call  10005d78 <_trap_table-0x304fa288>
    29a8:	00 00 00 6c 	unimp  0x6c
    29ac:	00 00 00 00 	unimp  0
    29b0:	44 00 0d 09 	call  10005dd4 <_trap_table-0x304fa22c>
    29b4:	00 00 00 74 	unimp  0x74
    29b8:	00 00 00 00 	unimp  0
    29bc:	44 00 0c f7 	call  10005d98 <_trap_table-0x304fa268>
    29c0:	00 00 00 78 	unimp  0x78
    29c4:	00 00 00 00 	unimp  0
    29c8:	44 00 0d 09 	call  10005dec <_trap_table-0x304fa214>
    29cc:	00 00 00 7c 	unimp  0x7c
    29d0:	00 00 00 00 	unimp  0
    29d4:	44 00 0c fa 	call  10005dbc <_trap_table-0x304fa244>
    29d8:	00 00 00 80 	unimp  0x80
    29dc:	00 00 00 00 	unimp  0
    29e0:	44 00 0d 0a 	call  10005e08 <_trap_table-0x304fa1f8>
    29e4:	00 00 00 84 	unimp  0x84
    29e8:	00 00 00 00 	unimp  0
    29ec:	44 00 0c fa 	call  10005dd4 <_trap_table-0x304fa22c>
    29f0:	00 00 00 88 	unimp  0x88
    29f4:	00 00 00 00 	unimp  0
    29f8:	44 00 0c f7 	call  10005dd4 <_trap_table-0x304fa22c>
    29fc:	00 00 00 88 	unimp  0x88
    2a00:	00 00 00 00 	unimp  0
    2a04:	44 00 0d 09 	call  10005e28 <_trap_table-0x304fa1d8>
    2a08:	00 00 00 90 	unimp  0x90
    2a0c:	00 00 00 00 	unimp  0
    2a10:	44 00 0d 0a 	call  10005e38 <_trap_table-0x304fa1c8>
    2a14:	00 00 00 98 	unimp  0x98
    2a18:	00 00 00 00 	unimp  0
    2a1c:	44 00 0d 0c 	call  10005e4c <_trap_table-0x304fa1b4>
    2a20:	00 00 00 a0 	unimp  0xa0
    2a24:	00 00 00 00 	unimp  0
    2a28:	44 00 0d 0a 	call  10005e50 <_trap_table-0x304fa1b0>
    2a2c:	00 00 00 a4 	unimp  0xa4
    2a30:	00 00 00 00 	unimp  0
    2a34:	44 00 0d 0c 	call  10005e64 <_trap_table-0x304fa19c>
    2a38:	00 00 00 a4 	unimp  0xa4
    2a3c:	00 00 00 00 	unimp  0
    2a40:	44 00 0d 0d 	call  10005e74 <_trap_table-0x304fa18c>
    2a44:	00 00 00 ac 	unimp  0xac
    2a48:	00 00 00 00 	unimp  0
    2a4c:	44 00 0c fa 	call  10005e34 <_trap_table-0x304fa1cc>
    2a50:	00 00 00 b4 	unimp  0xb4
    2a54:	00 00 00 00 	unimp  0
    2a58:	44 00 0c fb 	call  10005e44 <_trap_table-0x304fa1bc>
    2a5c:	00 00 00 c0 	unimp  0xc0
    2a60:	00 00 00 00 	unimp  0
    2a64:	44 00 0d 02 	call  10005e6c <_trap_table-0x304fa194>
    2a68:	00 00 00 c8 	unimp  0xc8
    2a6c:	00 00 00 00 	unimp  0
    2a70:	44 00 0c fc 	call  10005e60 <_trap_table-0x304fa1a0>
    2a74:	00 00 00 cc 	unimp  0xcc
    2a78:	00 00 00 00 	unimp  0
    2a7c:	44 00 0c ff 	call  10005e78 <_trap_table-0x304fa188>
    2a80:	00 00 00 d0 	unimp  0xd0
    2a84:	00 00 00 00 	unimp  0
    2a88:	44 00 0c fc 	call  10005e78 <_trap_table-0x304fa188>
    2a8c:	00 00 00 d0 	unimp  0xd0
    2a90:	00 00 00 00 	unimp  0
    2a94:	44 00 0c fe 	call  10005e8c <_trap_table-0x304fa174>
    2a98:	00 00 00 d8 	unimp  0xd8
    2a9c:	00 00 00 00 	unimp  0
    2aa0:	44 00 0c ff 	call  10005e9c <_trap_table-0x304fa164>
    2aa4:	00 00 00 ec 	unimp  0xec
    2aa8:	00 00 25 d7 	unimp  0x25d7
    2aac:	40 00 0c d7 	call  5e08 <_trap_table-0x404fa1f8>
    2ab0:	00 00 00 10 	unimp  0x10
    2ab4:	00 00 25 e7 	unimp  0x25e7
    2ab8:	40 00 0c d8 	call  5e18 <_trap_table-0x404fa1e8>
    2abc:	00 00 00 19 	unimp  0x19
    2ac0:	00 00 25 f4 	unimp  0x25f4
    2ac4:	40 00 0c d9 	call  5e28 <_trap_table-0x404fa1d8>
    2ac8:	00 00 00 0c 	unimp  0xc
    2acc:	00 00 00 00 	unimp  0
    2ad0:	c0 00 00 00 	ld  [ %g0 ], %g0
	...
    2adc:	e0 00 00 00 	ld  [ %g0 ], %l0
    2ae0:	00 00 00 fc 	unimp  0xfc
    2ae4:	00 00 00 00 	unimp  0
    2ae8:	24 00 00 00 	unknown
    2aec:	00 00 00 fc 	unimp  0xfc
    2af0:	00 00 26 07 	unimp  0x2607
    2af4:	24 00 0a 31 	unknown
    2af8:	40 50 1b 1c 	call  1409768 <_trap_table-0x3f0f6898>
    2afc:	00 00 21 d9 	unimp  0x21d9
    2b00:	40 00 0a 2d 	call  53b4 <_trap_table-0x404fac4c>
    2b04:	00 00 00 12 	unimp  0x12
    2b08:	00 00 26 17 	unimp  0x2617
    2b0c:	40 00 0a 2d 	call  53c0 <_trap_table-0x404fac40>
    2b10:	00 00 00 19 	unimp  0x19
    2b14:	00 00 00 00 	unimp  0
    2b18:	44 00 0a 31 	call  100053dc <_trap_table-0x304fac24>
    2b1c:	00 00 00 00 	unimp  0
    2b20:	00 00 00 00 	unimp  0
    2b24:	44 00 0a 43 	call  10005430 <_trap_table-0x304fabd0>
    2b28:	00 00 00 04 	unimp  0x4
    2b2c:	00 00 00 00 	unimp  0
    2b30:	44 00 0a 31 	call  100053f4 <_trap_table-0x304fac0c>
    2b34:	00 00 00 08 	unimp  0x8
    2b38:	00 00 00 00 	unimp  0
    2b3c:	44 00 0a 43 	call  10005448 <_trap_table-0x304fabb8>
    2b40:	00 00 00 08 	unimp  0x8
    2b44:	00 00 00 00 	unimp  0
    2b48:	44 00 0a 46 	call  10005460 <_trap_table-0x304faba0>
    2b4c:	00 00 00 10 	unimp  0x10
    2b50:	00 00 00 00 	unimp  0
    2b54:	44 00 0a 48 	call  10005474 <_trap_table-0x304fab8c>
    2b58:	00 00 00 18 	unimp  0x18
    2b5c:	00 00 00 00 	unimp  0
    2b60:	44 00 0a 49 	call  10005484 <_trap_table-0x304fab7c>
    2b64:	00 00 00 1c 	unimp  0x1c
    2b68:	00 00 00 00 	unimp  0
    2b6c:	44 00 0a 56 	call  100054c4 <_trap_table-0x304fab3c>
    2b70:	00 00 00 20 	unimp  0x20
    2b74:	00 00 00 00 	unimp  0
    2b78:	44 00 0a 5a 	call  100054e0 <_trap_table-0x304fab20>
    2b7c:	00 00 00 24 	unimp  0x24
    2b80:	00 00 00 00 	unimp  0
    2b84:	44 00 0a 57 	call  100054e0 <_trap_table-0x304fab20>
    2b88:	00 00 00 28 	unimp  0x28
    2b8c:	00 00 00 00 	unimp  0
    2b90:	44 00 0a 5a 	call  100054f8 <_trap_table-0x304fab08>
    2b94:	00 00 00 2c 	unimp  0x2c
    2b98:	00 00 00 00 	unimp  0
    2b9c:	44 00 0a 58 	call  100054fc <_trap_table-0x304fab04>
    2ba0:	00 00 00 30 	unimp  0x30
    2ba4:	00 00 00 00 	unimp  0
    2ba8:	44 00 0a 5a 	call  10005510 <_trap_table-0x304faaf0>
    2bac:	00 00 00 34 	unimp  0x34
    2bb0:	00 00 00 00 	unimp  0
    2bb4:	44 00 0a 58 	call  10005514 <_trap_table-0x304faaec>
    2bb8:	00 00 00 3c 	unimp  0x3c
    2bbc:	00 00 00 00 	unimp  0
    2bc0:	44 00 0a 5a 	call  10005528 <_trap_table-0x304faad8>
    2bc4:	00 00 00 3c 	unimp  0x3c
    2bc8:	00 00 00 00 	unimp  0
    2bcc:	44 00 0a 72 	call  10005594 <_trap_table-0x304faa6c>
    2bd0:	00 00 00 44 	unimp  0x44
    2bd4:	00 00 00 00 	unimp  0
    2bd8:	44 00 0a 6e 	call  10005590 <_trap_table-0x304faa70>
    2bdc:	00 00 00 48 	unimp  0x48
    2be0:	00 00 00 00 	unimp  0
    2be4:	44 00 0a 70 	call  100055a4 <_trap_table-0x304faa5c>
    2be8:	00 00 00 4c 	unimp  0x4c
    2bec:	00 00 00 00 	unimp  0
    2bf0:	44 00 0a 72 	call  100055b8 <_trap_table-0x304faa48>
    2bf4:	00 00 00 4c 	unimp  0x4c
    2bf8:	00 00 00 00 	unimp  0
    2bfc:	44 00 0a 74 	call  100055cc <_trap_table-0x304faa34>
    2c00:	00 00 00 54 	unimp  0x54
    2c04:	00 00 00 00 	unimp  0
    2c08:	44 00 0a 75 	call  100055dc <_trap_table-0x304faa24>
    2c0c:	00 00 00 58 	unimp  0x58
    2c10:	00 00 00 00 	unimp  0
    2c14:	44 00 0a 78 	call  100055f4 <_trap_table-0x304faa0c>
    2c18:	00 00 00 5c 	unimp  0x5c
    2c1c:	00 00 00 00 	unimp  0
    2c20:	44 00 0a 76 	call  100055f8 <_trap_table-0x304faa08>
    2c24:	00 00 00 68 	unimp  0x68
    2c28:	00 00 00 00 	unimp  0
    2c2c:	44 00 0a 78 	call  1000560c <_trap_table-0x304fa9f4>
    2c30:	00 00 00 68 	unimp  0x68
    2c34:	00 00 00 00 	unimp  0
    2c38:	44 00 0a 7b 	call  10005624 <_trap_table-0x304fa9dc>
    2c3c:	00 00 00 70 	unimp  0x70
    2c40:	00 00 00 00 	unimp  0
    2c44:	44 00 0a 7e 	call  1000563c <_trap_table-0x304fa9c4>
    2c48:	00 00 00 7c 	unimp  0x7c
    2c4c:	00 00 00 00 	unimp  0
    2c50:	44 00 0a 8c 	call  10005680 <_trap_table-0x304fa980>
    2c54:	00 00 00 88 	unimp  0x88
    2c58:	00 00 00 00 	unimp  0
    2c5c:	44 00 0a 7e 	call  10005654 <_trap_table-0x304fa9ac>
    2c60:	00 00 00 88 	unimp  0x88
    2c64:	00 00 00 00 	unimp  0
    2c68:	44 00 0a 82 	call  10005670 <_trap_table-0x304fa990>
    2c6c:	00 00 00 90 	unimp  0x90
    2c70:	00 00 00 00 	unimp  0
    2c74:	44 00 0a 80 	call  10005674 <_trap_table-0x304fa98c>
    2c78:	00 00 00 94 	unimp  0x94
    2c7c:	00 00 00 00 	unimp  0
    2c80:	44 00 0a 82 	call  10005688 <_trap_table-0x304fa978>
    2c84:	00 00 00 94 	unimp  0x94
    2c88:	00 00 00 00 	unimp  0
    2c8c:	44 00 0a 88 	call  100056ac <_trap_table-0x304fa954>
    2c90:	00 00 00 a0 	unimp  0xa0
    2c94:	00 00 00 00 	unimp  0
    2c98:	44 00 0a 8c 	call  100056c8 <_trap_table-0x304fa938>
    2c9c:	00 00 00 ac 	unimp  0xac
    2ca0:	00 00 00 00 	unimp  0
    2ca4:	44 00 0a 8e 	call  100056dc <_trap_table-0x304fa924>
    2ca8:	00 00 00 b4 	unimp  0xb4
    2cac:	00 00 00 00 	unimp  0
    2cb0:	44 00 0a 8d 	call  100056e4 <_trap_table-0x304fa91c>
    2cb4:	00 00 00 b8 	unimp  0xb8
    2cb8:	00 00 00 00 	unimp  0
    2cbc:	44 00 0a 8e 	call  100056f4 <_trap_table-0x304fa90c>
    2cc0:	00 00 00 b8 	unimp  0xb8
    2cc4:	00 00 00 00 	unimp  0
    2cc8:	44 00 0a 91 	call  1000570c <_trap_table-0x304fa8f4>
    2ccc:	00 00 00 c0 	unimp  0xc0
    2cd0:	00 00 00 00 	unimp  0
    2cd4:	44 00 0a 8f 	call  10005710 <_trap_table-0x304fa8f0>
    2cd8:	00 00 00 cc 	unimp  0xcc
    2cdc:	00 00 00 00 	unimp  0
    2ce0:	44 00 0a 91 	call  10005724 <_trap_table-0x304fa8dc>
    2ce4:	00 00 01 14 	unimp  0x114
    2ce8:	00 00 00 00 	unimp  0
    2cec:	44 00 0a 82 	call  100056f4 <_trap_table-0x304fa90c>
    2cf0:	00 00 01 1c 	unimp  0x11c
    2cf4:	00 00 00 00 	unimp  0
    2cf8:	44 00 0a 88 	call  10005718 <_trap_table-0x304fa8e8>
    2cfc:	00 00 01 2c 	unimp  0x12c
    2d00:	00 00 00 00 	unimp  0
    2d04:	44 00 0a 82 	call  1000570c <_trap_table-0x304fa8f4>
    2d08:	00 00 01 2c 	unimp  0x12c
    2d0c:	00 00 00 00 	unimp  0
    2d10:	44 00 0a 85 	call  10005724 <_trap_table-0x304fa8dc>
    2d14:	00 00 01 34 	unimp  0x134
    2d18:	00 00 00 00 	unimp  0
    2d1c:	44 00 0a 84 	call  1000572c <_trap_table-0x304fa8d4>
    2d20:	00 00 01 44 	unimp  0x144
    2d24:	00 00 00 00 	unimp  0
    2d28:	44 00 0a 5e 	call  100056a0 <_trap_table-0x304fa960>
    2d2c:	00 00 01 4c 	unimp  0x14c
    2d30:	00 00 00 00 	unimp  0
    2d34:	44 00 0a 5c 	call  100056a4 <_trap_table-0x304fa95c>
    2d38:	00 00 01 50 	unimp  0x150
    2d3c:	00 00 00 00 	unimp  0
    2d40:	44 00 0a 5e 	call  100056b8 <_trap_table-0x304fa948>
    2d44:	00 00 01 50 	unimp  0x150
    2d48:	00 00 00 00 	unimp  0
    2d4c:	44 00 0a 60 	call  100056cc <_trap_table-0x304fa934>
    2d50:	00 00 01 58 	unimp  0x158
    2d54:	00 00 00 00 	unimp  0
    2d58:	44 00 0a 61 	call  100056dc <_trap_table-0x304fa924>
    2d5c:	00 00 01 5c 	unimp  0x15c
    2d60:	00 00 00 00 	unimp  0
    2d64:	44 00 0a 63 	call  100056f0 <_trap_table-0x304fa910>
    2d68:	00 00 01 60 	unimp  0x160
    2d6c:	00 00 00 00 	unimp  0
    2d70:	44 00 0a 62 	call  100056f8 <_trap_table-0x304fa908>
    2d74:	00 00 01 6c 	unimp  0x16c
    2d78:	00 00 00 00 	unimp  0
    2d7c:	44 00 0a 63 	call  10005708 <_trap_table-0x304fa8f8>
    2d80:	00 00 01 70 	unimp  0x170
    2d84:	00 00 00 00 	unimp  0
    2d88:	44 00 0a 68 	call  10005728 <_trap_table-0x304fa8d8>
    2d8c:	00 00 01 74 	unimp  0x174
    2d90:	00 00 00 00 	unimp  0
    2d94:	44 00 0a 66 	call  1000572c <_trap_table-0x304fa8d4>
    2d98:	00 00 01 7c 	unimp  0x17c
    2d9c:	00 00 00 00 	unimp  0
    2da0:	44 00 0a 67 	call  1000573c <_trap_table-0x304fa8c4>
    2da4:	00 00 01 80 	unimp  0x180
    2da8:	00 00 00 00 	unimp  0
    2dac:	44 00 0a 68 	call  1000574c <_trap_table-0x304fa8b4>
    2db0:	00 00 01 84 	unimp  0x184
    2db4:	00 00 00 00 	unimp  0
    2db8:	44 00 0a 66 	call  10005750 <_trap_table-0x304fa8b0>
    2dbc:	00 00 01 88 	unimp  0x188
    2dc0:	00 00 00 00 	unimp  0
    2dc4:	44 00 0a 68 	call  10005764 <_trap_table-0x304fa89c>
    2dc8:	00 00 01 88 	unimp  0x188
    2dcc:	00 00 00 00 	unimp  0
    2dd0:	44 00 0a 69 	call  10005774 <_trap_table-0x304fa88c>
    2dd4:	00 00 01 90 	unimp  0x190
    2dd8:	00 00 00 00 	unimp  0
    2ddc:	44 00 0a 91 	call  10005820 <_trap_table-0x304fa7e0>
    2de0:	00 00 01 a0 	unimp  0x1a0
    2de4:	00 00 00 00 	unimp  0
    2de8:	44 00 0a 8f 	call  10005824 <_trap_table-0x304fa7dc>
    2dec:	00 00 01 a8 	unimp  0x1a8
    2df0:	00 00 00 00 	unimp  0
    2df4:	44 00 0a 79 	call  100057d8 <_trap_table-0x304fa828>
    2df8:	00 00 02 5c 	unimp  0x25c
    2dfc:	00 00 00 00 	unimp  0
    2e00:	44 00 0a 8f 	call  1000583c <_trap_table-0x304fa7c4>
    2e04:	00 00 02 64 	unimp  0x264
    2e08:	00 00 26 23 	unimp  0x2623
    2e0c:	40 00 0a 38 	call  56ec <_trap_table-0x404fa914>
    2e10:	00 00 00 10 	unimp  0x10
    2e14:	00 00 26 2d 	unimp  0x262d
    2e18:	40 00 0a 39 	call  56fc <_trap_table-0x404fa904>
    2e1c:	00 00 00 0b 	unimp  0xb
    2e20:	00 00 26 37 	unimp  0x2637
    2e24:	40 00 0a 3a 	call  570c <_trap_table-0x404fa8f4>
    2e28:	00 00 00 08 	unimp  0x8
    2e2c:	00 00 22 1a 	unimp  0x221a
    2e30:	40 00 0a 3b 	call  571c <_trap_table-0x404fa8e4>
    2e34:	00 00 00 0d 	unimp  0xd
    2e38:	00 00 26 41 	unimp  0x2641
    2e3c:	40 00 0a 3c 	call  572c <_trap_table-0x404fa8d4>
    2e40:	00 00 00 0a 	unimp  0xa
    2e44:	00 00 26 4e 	unimp  0x264e
    2e48:	40 00 0a 3d 	call  573c <_trap_table-0x404fa8c4>
    2e4c:	00 00 00 0f 	unimp  0xf
    2e50:	00 00 26 5c 	unimp  0x265c
    2e54:	40 00 0a 3e 	call  574c <_trap_table-0x404fa8b4>
    2e58:	00 00 00 19 	unimp  0x19
    2e5c:	00 00 22 99 	unimp  0x2299
    2e60:	40 00 0a 3f 	call  575c <_trap_table-0x404fa8a4>
    2e64:	00 00 00 09 	unimp  0x9
    2e68:	00 00 22 8d 	unimp  0x228d
    2e6c:	40 00 0a 40 	call  576c <_trap_table-0x404fa894>
    2e70:	00 00 00 0b 	unimp  0xb
    2e74:	00 00 26 6a 	unimp  0x266a
    2e78:	40 00 0a 41 	call  577c <_trap_table-0x404fa884>
    2e7c:	00 00 00 18 	unimp  0x18
    2e80:	00 00 00 00 	unimp  0
    2e84:	c0 00 00 00 	ld  [ %g0 ], %g0
	...
    2e90:	e0 00 00 00 	ld  [ %g0 ], %l0
    2e94:	00 00 02 84 	unimp  0x284
    2e98:	00 00 00 00 	unimp  0
    2e9c:	24 00 00 00 	unknown
    2ea0:	00 00 02 84 	unimp  0x284
    2ea4:	00 00 00 00 	unimp  0
    2ea8:	64 00 00 00 	call  90002ea8 <LEON_REG+0x10002ea8>
    2eac:	40 50 1d a0 	call  140a52c <_trap_table-0x3f0f5ad4>
    2eb0:	00 00 19 1f 	unimp  0x191f
    2eb4:	64 00 00 00 	call  90002eb4 <LEON_REG+0x10002eb4>
    2eb8:	40 50 1d a0 	call  140a538 <_trap_table-0x3f0f5ac8>
    2ebc:	00 00 26 76 	unimp  0x2676
    2ec0:	64 00 00 00 	call  90002ec0 <LEON_REG+0x10002ec0>
    2ec4:	40 50 1d a0 	call  140a544 <_trap_table-0x3f0f5abc>
    2ec8:	00 00 01 23 	unimp  0x123
    2ecc:	3c 00 00 00 	unknown
    2ed0:	00 00 00 00 	unimp  0
    2ed4:	00 00 01 32 	unimp  0x132
    2ed8:	80 00 00 00 	add  %g0, %g0, %g0
    2edc:	00 00 00 00 	unimp  0
    2ee0:	00 00 01 5c 	unimp  0x15c
    2ee4:	80 00 00 00 	add  %g0, %g0, %g0
    2ee8:	00 00 00 00 	unimp  0
    2eec:	00 00 01 76 	unimp  0x176
    2ef0:	80 00 00 00 	add  %g0, %g0, %g0
    2ef4:	00 00 00 00 	unimp  0
    2ef8:	00 00 01 a5 	unimp  0x1a5
    2efc:	80 00 00 00 	add  %g0, %g0, %g0
    2f00:	00 00 00 00 	unimp  0
    2f04:	00 00 01 dd 	unimp  0x1dd
    2f08:	80 00 00 00 	add  %g0, %g0, %g0
    2f0c:	00 00 00 00 	unimp  0
    2f10:	00 00 02 1a 	unimp  0x21a
    2f14:	80 00 00 00 	add  %g0, %g0, %g0
    2f18:	00 00 00 00 	unimp  0
    2f1c:	00 00 02 6b 	unimp  0x26b
    2f20:	80 00 00 00 	add  %g0, %g0, %g0
    2f24:	00 00 00 00 	unimp  0
    2f28:	00 00 02 bc 	unimp  0x2bc
    2f2c:	80 00 00 00 	add  %g0, %g0, %g0
    2f30:	00 00 00 00 	unimp  0
    2f34:	00 00 02 e7 	unimp  0x2e7
    2f38:	80 00 00 00 	add  %g0, %g0, %g0
    2f3c:	00 00 00 00 	unimp  0
    2f40:	00 00 03 16 	unimp  0x316
    2f44:	80 00 00 00 	add  %g0, %g0, %g0
    2f48:	00 00 00 00 	unimp  0
    2f4c:	00 00 03 40 	unimp  0x340
    2f50:	80 00 00 00 	add  %g0, %g0, %g0
    2f54:	00 00 00 00 	unimp  0
    2f58:	00 00 03 69 	unimp  0x369
    2f5c:	80 00 00 00 	add  %g0, %g0, %g0
    2f60:	00 00 00 00 	unimp  0
    2f64:	00 00 03 83 	unimp  0x383
    2f68:	80 00 00 00 	add  %g0, %g0, %g0
    2f6c:	00 00 00 00 	unimp  0
    2f70:	00 00 03 9e 	unimp  0x39e
    2f74:	80 00 00 00 	add  %g0, %g0, %g0
    2f78:	00 00 00 00 	unimp  0
    2f7c:	00 00 03 be 	unimp  0x3be
    2f80:	80 00 00 00 	add  %g0, %g0, %g0
    2f84:	00 00 00 00 	unimp  0
    2f88:	00 00 03 f7 	unimp  0x3f7
    2f8c:	80 00 00 00 	add  %g0, %g0, %g0
    2f90:	00 00 00 00 	unimp  0
    2f94:	00 00 04 15 	unimp  0x415
    2f98:	80 00 00 00 	add  %g0, %g0, %g0
    2f9c:	00 00 00 00 	unimp  0
    2fa0:	00 00 04 35 	unimp  0x435
    2fa4:	80 00 00 00 	add  %g0, %g0, %g0
    2fa8:	00 00 00 00 	unimp  0
    2fac:	00 00 04 5a 	unimp  0x45a
    2fb0:	80 00 00 00 	add  %g0, %g0, %g0
    2fb4:	00 00 00 00 	unimp  0
    2fb8:	00 00 04 6e 	unimp  0x46e
    2fbc:	80 00 00 00 	add  %g0, %g0, %g0
    2fc0:	00 00 00 00 	unimp  0
    2fc4:	00 00 04 90 	unimp  0x490
    2fc8:	80 00 00 00 	add  %g0, %g0, %g0
    2fcc:	00 00 00 00 	unimp  0
    2fd0:	00 00 04 a7 	unimp  0x4a7
    2fd4:	c2 00 00 00 	ld  [ %g0 ], %g1
    2fd8:	00 00 28 45 	unimp  0x2845
    2fdc:	00 00 04 ed 	unimp  0x4ed
    2fe0:	c2 00 00 00 	ld  [ %g0 ], %g1
    2fe4:	00 00 0a 0a 	unimp  0xa0a
    2fe8:	00 00 05 64 	unimp  0x564
    2fec:	c2 00 00 00 	ld  [ %g0 ], %g1
    2ff0:	00 02 bf 15 	unimp  0x2bf15
    2ff4:	00 00 05 ad 	unimp  0x5ad
    2ff8:	c2 00 00 00 	ld  [ %g0 ], %g1
    2ffc:	00 00 3b 70 	unimp  0x3b70
    3000:	00 00 05 f7 	unimp  0x5f7
    3004:	c2 00 00 00 	ld  [ %g0 ], %g1
    3008:	00 00 1f b7 	unimp  0x1fb7
    300c:	00 00 06 5e 	unimp  0x65e
    3010:	c2 00 00 00 	ld  [ %g0 ], %g1
    3014:	00 00 bc 67 	unimp  0xbc67
    3018:	00 00 04 ed 	unimp  0x4ed
    301c:	c2 00 00 00 	ld  [ %g0 ], %g1
    3020:	00 00 04 de 	unimp  0x4de
    3024:	00 00 17 e7 	unimp  0x17e7
    3028:	c2 00 00 00 	ld  [ %g0 ], %g1
    302c:	00 00 00 00 	unimp  0
    3030:	00 00 18 2c 	unimp  0x182c
    3034:	c2 00 00 00 	ld  [ %g0 ], %g1
    3038:	00 00 0f b1 	unimp  0xfb1
    303c:	00 00 04 ed 	unimp  0x4ed
    3040:	82 00 00 00 	add  %g0, %g0, %g1
    3044:	00 00 06 09 	unimp  0x609
    3048:	00 00 26 ac 	unimp  0x26ac
    304c:	80 00 00 97 	unknown
	...
    3058:	a2 00 00 00 	add  %g0, %g0, %l1
    305c:	00 00 00 00 	unimp  0
    3060:	00 00 26 c4 	unimp  0x26c4
    3064:	24 00 00 24 	unknown
    3068:	40 50 1d a0 	call  140a6e8 <_trap_table-0x3f0f5918>
    306c:	00 00 26 d9 	unimp  0x26d9
    3070:	40 00 00 21 	call  30f4 <_trap_table-0x404fcf0c>
    3074:	00 00 00 08 	unimp  0x8
    3078:	00 00 26 e5 	unimp  0x26e5
    307c:	40 00 00 21 	call  3100 <_trap_table-0x404fcf00>
    3080:	00 00 00 19 	unimp  0x19
    3084:	00 00 00 00 	unimp  0
    3088:	44 00 00 24 	call  10003118 <_trap_table-0x304fcee8>
    308c:	00 00 00 00 	unimp  0
    3090:	00 00 00 00 	unimp  0
    3094:	44 00 00 26 	call  1000312c <_trap_table-0x304fced4>
    3098:	00 00 00 04 	unimp  0x4
    309c:	00 00 00 00 	unimp  0
    30a0:	44 00 00 24 	call  10003130 <_trap_table-0x304fced0>
    30a4:	00 00 00 0c 	unimp  0xc
    30a8:	00 00 00 00 	unimp  0
    30ac:	44 00 00 26 	call  10003144 <_trap_table-0x304fcebc>
    30b0:	00 00 00 0c 	unimp  0xc
    30b4:	00 00 00 00 	unimp  0
    30b8:	44 00 00 29 	call  1000315c <_trap_table-0x304fcea4>
    30bc:	00 00 00 14 	unimp  0x14
    30c0:	00 00 00 00 	unimp  0
    30c4:	44 00 00 27 	call  10003160 <_trap_table-0x304fcea0>
    30c8:	00 00 00 1c 	unimp  0x1c
    30cc:	00 00 00 00 	unimp  0
    30d0:	44 00 00 29 	call  10003174 <_trap_table-0x304fce8c>
    30d4:	00 00 00 24 	unimp  0x24
    30d8:	00 00 00 00 	unimp  0
    30dc:	24 00 00 00 	unknown
    30e0:	00 00 00 30 	unimp  0x30
    30e4:	00 00 26 f2 	unimp  0x26f2
    30e8:	24 00 00 2f 	unknown
    30ec:	40 50 1d d0 	call  140a82c <_trap_table-0x3f0f57d4>
    30f0:	00 00 26 d9 	unimp  0x26d9
    30f4:	40 00 00 2d 	call  31a8 <_trap_table-0x404fce58>
    30f8:	00 00 00 18 	unimp  0x18
    30fc:	00 00 00 00 	unimp  0
    3100:	44 00 00 2f 	call  100031bc <_trap_table-0x304fce44>
    3104:	00 00 00 00 	unimp  0
    3108:	00 00 00 00 	unimp  0
    310c:	44 00 00 30 	call  100031cc <_trap_table-0x304fce34>
    3110:	00 00 00 04 	unimp  0x4
    3114:	00 00 00 00 	unimp  0
    3118:	44 00 00 36 	call  100031f0 <_trap_table-0x304fce10>
    311c:	00 00 00 18 	unimp  0x18
    3120:	00 00 00 00 	unimp  0
    3124:	44 00 00 39 	call  10003208 <_trap_table-0x304fcdf8>
    3128:	00 00 00 20 	unimp  0x20
    312c:	00 00 00 00 	unimp  0
    3130:	44 00 00 36 	call  10003208 <_trap_table-0x304fcdf8>
    3134:	00 00 00 20 	unimp  0x20
    3138:	00 00 00 00 	unimp  0
    313c:	44 00 00 58 	call  1000329c <_trap_table-0x304fcd64>
    3140:	00 00 00 28 	unimp  0x28
    3144:	00 00 00 00 	unimp  0
    3148:	44 00 00 64 	call  100032d8 <_trap_table-0x304fcd28>
    314c:	00 00 00 30 	unimp  0x30
    3150:	00 00 00 00 	unimp  0
    3154:	44 00 00 58 	call  100032b4 <_trap_table-0x304fcd4c>
    3158:	00 00 00 30 	unimp  0x30
    315c:	00 00 00 00 	unimp  0
    3160:	44 00 00 64 	call  100032f0 <_trap_table-0x304fcd10>
    3164:	00 00 00 40 	unimp  0x40
    3168:	00 00 00 00 	unimp  0
    316c:	44 00 00 58 	call  100032cc <_trap_table-0x304fcd34>
    3170:	00 00 00 40 	unimp  0x40
    3174:	00 00 00 00 	unimp  0
    3178:	44 00 00 5b 	call  100032e4 <_trap_table-0x304fcd1c>
    317c:	00 00 00 48 	unimp  0x48
    3180:	00 00 00 00 	unimp  0
    3184:	44 00 00 5e 	call  100032fc <_trap_table-0x304fcd04>
    3188:	00 00 00 50 	unimp  0x50
    318c:	00 00 00 00 	unimp  0
    3190:	44 00 00 5f 	call  1000330c <_trap_table-0x304fccf4>
    3194:	00 00 00 54 	unimp  0x54
    3198:	00 00 00 00 	unimp  0
    319c:	44 00 00 5b 	call  10003308 <_trap_table-0x304fccf8>
    31a0:	00 00 00 5c 	unimp  0x5c
    31a4:	00 00 00 00 	unimp  0
    31a8:	44 00 00 5d 	call  1000331c <_trap_table-0x304fcce4>
    31ac:	00 00 00 60 	unimp  0x60
    31b0:	00 00 00 00 	unimp  0
    31b4:	44 00 00 5b 	call  10003320 <_trap_table-0x304fcce0>
    31b8:	00 00 00 60 	unimp  0x60
    31bc:	00 00 00 00 	unimp  0
    31c0:	44 00 00 64 	call  10003350 <_trap_table-0x304fccb0>
    31c4:	00 00 00 68 	unimp  0x68
    31c8:	00 00 00 00 	unimp  0
    31cc:	44 00 00 67 	call  10003368 <_trap_table-0x304fcc98>
    31d0:	00 00 00 78 	unimp  0x78
    31d4:	00 00 00 00 	unimp  0
    31d8:	44 00 00 6b 	call  10003384 <_trap_table-0x304fcc7c>
    31dc:	00 00 00 88 	unimp  0x88
    31e0:	00 00 00 00 	unimp  0
    31e4:	44 00 00 39 	call  100032c8 <_trap_table-0x304fcd38>
    31e8:	00 00 00 90 	unimp  0x90
    31ec:	00 00 00 00 	unimp  0
    31f0:	44 00 00 46 	call  10003308 <_trap_table-0x304fccf8>
    31f4:	00 00 00 94 	unimp  0x94
    31f8:	00 00 00 00 	unimp  0
    31fc:	44 00 00 39 	call  100032e0 <_trap_table-0x304fcd20>
    3200:	00 00 00 94 	unimp  0x94
    3204:	00 00 00 00 	unimp  0
    3208:	44 00 00 3d 	call  100032fc <_trap_table-0x304fcd04>
    320c:	00 00 00 a0 	unimp  0xa0
    3210:	00 00 00 00 	unimp  0
    3214:	44 00 00 41 	call  10003318 <_trap_table-0x304fcce8>
    3218:	00 00 00 ac 	unimp  0xac
    321c:	00 00 00 00 	unimp  0
    3220:	44 00 00 42 	call  10003328 <_trap_table-0x304fccd8>
    3224:	00 00 00 b0 	unimp  0xb0
    3228:	00 00 00 00 	unimp  0
    322c:	44 00 00 40 	call  1000332c <_trap_table-0x304fccd4>
    3230:	00 00 00 bc 	unimp  0xbc
    3234:	00 00 00 00 	unimp  0
    3238:	44 00 00 42 	call  10003340 <_trap_table-0x304fccc0>
    323c:	00 00 00 bc 	unimp  0xbc
    3240:	00 00 00 00 	unimp  0
    3244:	44 00 00 39 	call  10003328 <_trap_table-0x304fccd8>
    3248:	00 00 00 c4 	unimp  0xc4
    324c:	00 00 00 00 	unimp  0
    3250:	44 00 00 6b 	call  100033fc <_trap_table-0x304fcc04>
    3254:	00 00 00 cc 	unimp  0xcc
    3258:	00 00 00 00 	unimp  0
    325c:	44 00 00 6d 	call  10003410 <_trap_table-0x304fcbf0>
    3260:	00 00 00 d4 	unimp  0xd4
    3264:	00 00 00 00 	unimp  0
    3268:	44 00 00 6e 	call  10003420 <_trap_table-0x304fcbe0>
    326c:	00 00 00 e4 	unimp  0xe4
    3270:	00 00 00 00 	unimp  0
    3274:	44 00 00 65 	call  10003408 <_trap_table-0x304fcbf8>
    3278:	00 00 00 ec 	unimp  0xec
    327c:	00 00 00 00 	unimp  0
    3280:	44 00 00 67 	call  1000341c <_trap_table-0x304fcbe4>
    3284:	00 00 00 f4 	unimp  0xf4
    3288:	00 00 00 00 	unimp  0
    328c:	44 00 00 46 	call  100033a4 <_trap_table-0x304fcc5c>
    3290:	00 00 00 fc 	unimp  0xfc
    3294:	00 00 00 00 	unimp  0
    3298:	44 00 00 58 	call  100033f8 <_trap_table-0x304fcc08>
    329c:	00 00 01 04 	unimp  0x104
    32a0:	00 00 19 0a 	unimp  0x190a
    32a4:	40 00 00 5a 	call  340c <_trap_table-0x404fcbf4>
    32a8:	00 00 00 19 	unimp  0x19
    32ac:	00 00 27 09 	unimp  0x2709
    32b0:	40 00 00 5a 	call  3418 <_trap_table-0x404fcbe8>
    32b4:	00 00 00 09 	unimp  0x9
    32b8:	00 00 00 00 	unimp  0
    32bc:	c0 00 00 00 	ld  [ %g0 ], %g0
    32c0:	00 00 00 50 	unimp  0x50
    32c4:	00 00 00 00 	unimp  0
    32c8:	e0 00 00 00 	ld  [ %g0 ], %l0
    32cc:	00 00 00 68 	unimp  0x68
    32d0:	00 00 27 12 	unimp  0x2712
    32d4:	40 00 00 38 	call  33b4 <_trap_table-0x404fcc4c>
    32d8:	00 00 00 10 	unimp  0x10
    32dc:	00 00 00 00 	unimp  0
    32e0:	c0 00 00 00 	ld  [ %g0 ], %g0
    32e4:	00 00 00 90 	unimp  0x90
    32e8:	00 00 27 1b 	unimp  0x271b
    32ec:	40 00 00 3b 	call  33d8 <_trap_table-0x404fcc28>
    32f0:	00 00 00 09 	unimp  0x9
    32f4:	00 00 27 2a 	unimp  0x272a
    32f8:	40 00 00 3b 	call  33e4 <_trap_table-0x404fcc1c>
    32fc:	00 00 00 19 	unimp  0x19
    3300:	00 00 00 00 	unimp  0
    3304:	c0 00 00 00 	ld  [ %g0 ], %g0
    3308:	00 00 00 a0 	unimp  0xa0
    330c:	00 00 00 00 	unimp  0
    3310:	e0 00 00 00 	ld  [ %g0 ], %l0
    3314:	00 00 00 cc 	unimp  0xcc
    3318:	00 00 00 00 	unimp  0
    331c:	e0 00 00 00 	ld  [ %g0 ], %l0
    3320:	00 00 00 cc 	unimp  0xcc
    3324:	00 00 27 12 	unimp  0x2712
    3328:	40 00 00 38 	call  3408 <_trap_table-0x404fcbf8>
    332c:	00 00 00 10 	unimp  0x10
    3330:	00 00 00 00 	unimp  0
    3334:	c0 00 00 00 	ld  [ %g0 ], %g0
    3338:	00 00 00 fc 	unimp  0xfc
    333c:	00 00 00 00 	unimp  0
    3340:	e0 00 00 00 	ld  [ %g0 ], %l0
    3344:	00 00 01 0c 	unimp  0x10c
    3348:	00 00 00 00 	unimp  0
    334c:	24 00 00 00 	unknown
    3350:	00 00 01 14 	unimp  0x114
    3354:	00 00 27 39 	unimp  0x2739
    3358:	24 00 00 7f 	unknown
    335c:	40 50 1e e4 	call  140aeec <_trap_table-0x3f0f5114>
    3360:	00 00 26 d9 	unimp  0x26d9
    3364:	40 00 00 7e 	call  355c <_trap_table-0x404fcaa4>
    3368:	00 00 00 18 	unimp  0x18
    336c:	00 00 00 00 	unimp  0
    3370:	44 00 00 7f 	call  1000356c <_trap_table-0x304fca94>
    3374:	00 00 00 00 	unimp  0
    3378:	00 00 00 00 	unimp  0
    337c:	44 00 00 83 	call  10003588 <_trap_table-0x304fca78>
    3380:	00 00 00 04 	unimp  0x4
    3384:	00 00 00 00 	unimp  0
    3388:	44 00 00 84 	call  10003598 <_trap_table-0x304fca68>
    338c:	00 00 00 08 	unimp  0x8
    3390:	00 00 00 00 	unimp  0
    3394:	44 00 00 83 	call  100035a0 <_trap_table-0x304fca60>
    3398:	00 00 00 08 	unimp  0x8
    339c:	00 00 00 00 	unimp  0
    33a0:	44 00 00 8a 	call  100035c8 <_trap_table-0x304fca38>
    33a4:	00 00 00 10 	unimp  0x10
    33a8:	00 00 00 00 	unimp  0
    33ac:	44 00 00 8e 	call  100035e4 <_trap_table-0x304fca1c>
    33b0:	00 00 00 18 	unimp  0x18
    33b4:	00 00 00 00 	unimp  0
    33b8:	44 00 00 8a 	call  100035e0 <_trap_table-0x304fca20>
    33bc:	00 00 00 18 	unimp  0x18
    33c0:	00 00 00 00 	unimp  0
    33c4:	44 00 00 8b 	call  100035f0 <_trap_table-0x304fca10>
    33c8:	00 00 00 20 	unimp  0x20
    33cc:	00 00 00 00 	unimp  0
    33d0:	44 00 00 8c 	call  10003600 <_trap_table-0x304fca00>
    33d4:	00 00 00 38 	unimp  0x38
    33d8:	00 00 00 00 	unimp  0
    33dc:	44 00 00 8b 	call  10003608 <_trap_table-0x304fc9f8>
    33e0:	00 00 00 3c 	unimp  0x3c
    33e4:	00 00 00 00 	unimp  0
    33e8:	44 00 00 8c 	call  10003618 <_trap_table-0x304fc9e8>
    33ec:	00 00 00 3c 	unimp  0x3c
    33f0:	00 00 00 00 	unimp  0
    33f4:	44 00 00 8b 	call  10003620 <_trap_table-0x304fc9e0>
    33f8:	00 00 00 44 	unimp  0x44
    33fc:	00 00 00 00 	unimp  0
    3400:	44 00 00 8c 	call  10003630 <_trap_table-0x304fc9d0>
    3404:	00 00 00 48 	unimp  0x48
    3408:	00 00 00 00 	unimp  0
    340c:	44 00 00 8b 	call  10003638 <_trap_table-0x304fc9c8>
    3410:	00 00 00 48 	unimp  0x48
    3414:	00 00 00 00 	unimp  0
    3418:	44 00 00 8a 	call  10003640 <_trap_table-0x304fc9c0>
    341c:	00 00 00 50 	unimp  0x50
    3420:	00 00 00 00 	unimp  0
    3424:	44 00 00 8b 	call  10003650 <_trap_table-0x304fc9b0>
    3428:	00 00 00 58 	unimp  0x58
    342c:	00 00 00 00 	unimp  0
    3430:	44 00 00 8a 	call  10003658 <_trap_table-0x304fc9a8>
    3434:	00 00 00 58 	unimp  0x58
    3438:	00 00 00 00 	unimp  0
    343c:	44 00 00 8e 	call  10003674 <_trap_table-0x304fc98c>
    3440:	00 00 00 60 	unimp  0x60
    3444:	00 00 00 00 	unimp  0
    3448:	44 00 00 8f 	call  10003684 <_trap_table-0x304fc97c>
    344c:	00 00 00 70 	unimp  0x70
    3450:	00 00 00 00 	unimp  0
    3454:	44 00 00 84 	call  10003664 <_trap_table-0x304fc99c>
    3458:	00 00 00 7c 	unimp  0x7c
    345c:	00 00 19 0a 	unimp  0x190a
    3460:	40 00 00 80 	call  3660 <_trap_table-0x404fc9a0>
    3464:	00 00 00 12 	unimp  0x12
    3468:	00 00 27 4f 	unimp  0x274f
    346c:	40 00 00 81 	call  3670 <_trap_table-0x404fc990>
    3470:	00 00 00 11 	unimp  0x11
    3474:	00 00 00 00 	unimp  0
    3478:	c0 00 00 00 	ld  [ %g0 ], %g0
	...
    3484:	e0 00 00 00 	ld  [ %g0 ], %l0
    3488:	00 00 00 8c 	unimp  0x8c
    348c:	00 00 00 00 	unimp  0
    3490:	24 00 00 00 	unknown
    3494:	00 00 00 8c 	unimp  0x8c
    3498:	00 00 27 58 	unimp  0x2758
    349c:	20 00 00 1a 	unknown
	...
    34a8:	64 00 00 00 	call  900034a8 <LEON_REG+0x100034a8>
    34ac:	40 50 1f 70 	call  140b26c <_trap_table-0x3f0f4d94>
    34b0:	00 00 27 65 	unimp  0x2765
    34b4:	64 00 00 00 	call  900034b4 <LEON_REG+0x100034b4>
    34b8:	40 50 1f 70 	call  140b278 <_trap_table-0x3f0f4d88>
    34bc:	00 00 27 75 	unimp  0x2775
    34c0:	84 00 00 00 	add  %g0, %g0, %g2
    34c4:	40 50 1f 70 	call  140b284 <_trap_table-0x3f0f4d7c>
    34c8:	00 00 00 00 	unimp  0
    34cc:	44 00 00 0e 	call  10003504 <_trap_table-0x304fcafc>
    34d0:	40 50 1f 70 	call  140b290 <_trap_table-0x3f0f4d70>
    34d4:	00 00 00 00 	unimp  0
    34d8:	44 00 00 0f 	call  10003514 <_trap_table-0x304fcaec>
    34dc:	40 50 1f 74 	call  140b2ac <_trap_table-0x3f0f4d54>
    34e0:	00 00 00 00 	unimp  0
    34e4:	44 00 00 10 	call  10003524 <_trap_table-0x304fcadc>
    34e8:	40 50 1f 78 	call  140b2c8 <_trap_table-0x3f0f4d38>
    34ec:	00 00 00 00 	unimp  0
    34f0:	44 00 00 11 	call  10003534 <_trap_table-0x304fcacc>
    34f4:	40 50 1f 7c 	call  140b2e4 <_trap_table-0x3f0f4d1c>
    34f8:	00 00 00 00 	unimp  0
    34fc:	44 00 00 12 	call  10003544 <_trap_table-0x304fcabc>
    3500:	40 50 1f 80 	call  140b300 <_trap_table-0x3f0f4d00>
    3504:	00 00 00 00 	unimp  0
    3508:	44 00 00 16 	call  10003560 <_trap_table-0x304fcaa0>
    350c:	40 50 1f 84 	call  140b31c <_trap_table-0x3f0f4ce4>
    3510:	00 00 00 00 	unimp  0
    3514:	44 00 00 17 	call  10003570 <_trap_table-0x304fca90>
    3518:	40 50 1f 88 	call  140b338 <_trap_table-0x3f0f4cc8>
    351c:	00 00 00 00 	unimp  0
    3520:	44 00 00 18 	call  10003580 <_trap_table-0x304fca80>
    3524:	40 50 1f 8c 	call  140b354 <_trap_table-0x3f0f4cac>
    3528:	00 00 00 00 	unimp  0
    352c:	44 00 00 19 	call  10003590 <_trap_table-0x304fca70>
    3530:	40 50 1f 90 	call  140b370 <_trap_table-0x3f0f4c90>
    3534:	00 00 00 00 	unimp  0
    3538:	44 00 00 1a 	call  100035a0 <_trap_table-0x304fca60>
    353c:	40 50 1f 94 	call  140b38c <_trap_table-0x3f0f4c74>
    3540:	00 00 00 00 	unimp  0
    3544:	44 00 00 1b 	call  100035b0 <_trap_table-0x304fca50>
    3548:	40 50 1f 98 	call  140b3a8 <_trap_table-0x3f0f4c58>
    354c:	00 00 00 00 	unimp  0
    3550:	44 00 00 1c 	call  100035c0 <_trap_table-0x304fca40>
    3554:	40 50 1f 9c 	call  140b3c4 <_trap_table-0x3f0f4c3c>
    3558:	00 00 00 00 	unimp  0
    355c:	44 00 00 1d 	call  100035d0 <_trap_table-0x304fca30>
    3560:	40 50 1f a0 	call  140b3e0 <_trap_table-0x3f0f4c20>
    3564:	00 00 00 00 	unimp  0
    3568:	44 00 00 1e 	call  100035e0 <_trap_table-0x304fca20>
    356c:	40 50 1f a4 	call  140b3fc <_trap_table-0x3f0f4c04>
    3570:	00 00 00 00 	unimp  0
    3574:	44 00 00 1f 	call  100035f0 <_trap_table-0x304fca10>
    3578:	40 50 1f a8 	call  140b418 <_trap_table-0x3f0f4be8>
    357c:	00 00 00 00 	unimp  0
    3580:	44 00 00 20 	call  10003600 <_trap_table-0x304fca00>
    3584:	40 50 1f ac 	call  140b434 <_trap_table-0x3f0f4bcc>
    3588:	00 00 00 00 	unimp  0
    358c:	44 00 00 21 	call  10003610 <_trap_table-0x304fc9f0>
    3590:	40 50 1f b0 	call  140b450 <_trap_table-0x3f0f4bb0>
    3594:	00 00 00 00 	unimp  0
    3598:	44 00 00 22 	call  10003620 <_trap_table-0x304fc9e0>
    359c:	40 50 1f b4 	call  140b46c <_trap_table-0x3f0f4b94>
    35a0:	00 00 00 00 	unimp  0
    35a4:	44 00 00 23 	call  10003630 <_trap_table-0x304fc9d0>
    35a8:	40 50 1f b8 	call  140b488 <_trap_table-0x3f0f4b78>
    35ac:	00 00 00 00 	unimp  0
    35b0:	44 00 00 24 	call  10003640 <_trap_table-0x304fc9c0>
    35b4:	40 50 1f bc 	call  140b4a4 <_trap_table-0x3f0f4b5c>
    35b8:	00 00 00 00 	unimp  0
    35bc:	44 00 00 25 	call  10003650 <_trap_table-0x304fc9b0>
    35c0:	40 50 1f c0 	call  140b4c0 <_trap_table-0x3f0f4b40>
    35c4:	00 00 00 00 	unimp  0
    35c8:	44 00 00 26 	call  10003660 <_trap_table-0x304fc9a0>
    35cc:	40 50 1f c4 	call  140b4dc <_trap_table-0x3f0f4b24>
    35d0:	00 00 00 00 	unimp  0
    35d4:	44 00 00 27 	call  10003670 <_trap_table-0x304fc990>
    35d8:	40 50 1f c8 	call  140b4f8 <_trap_table-0x3f0f4b08>
    35dc:	00 00 00 00 	unimp  0
    35e0:	44 00 00 28 	call  10003680 <_trap_table-0x304fc980>
    35e4:	40 50 1f cc 	call  140b514 <_trap_table-0x3f0f4aec>
    35e8:	00 00 00 00 	unimp  0
    35ec:	44 00 00 29 	call  10003690 <_trap_table-0x304fc970>
    35f0:	40 50 1f d0 	call  140b530 <_trap_table-0x3f0f4ad0>
    35f4:	00 00 00 00 	unimp  0
    35f8:	44 00 00 2a 	call  100036a0 <_trap_table-0x304fc960>
    35fc:	40 50 1f d4 	call  140b54c <_trap_table-0x3f0f4ab4>
    3600:	00 00 00 00 	unimp  0
    3604:	44 00 00 2b 	call  100036b0 <_trap_table-0x304fc950>
    3608:	40 50 1f d8 	call  140b568 <_trap_table-0x3f0f4a98>
    360c:	00 00 00 00 	unimp  0
    3610:	44 00 00 2c 	call  100036c0 <_trap_table-0x304fc940>
    3614:	40 50 1f dc 	call  140b584 <_trap_table-0x3f0f4a7c>
    3618:	00 00 00 00 	unimp  0
    361c:	44 00 00 2d 	call  100036d0 <_trap_table-0x304fc930>
    3620:	40 50 1f e0 	call  140b5a0 <_trap_table-0x3f0f4a60>
    3624:	00 00 00 00 	unimp  0
    3628:	44 00 00 2e 	call  100036e0 <_trap_table-0x304fc920>
    362c:	40 50 1f e4 	call  140b5bc <_trap_table-0x3f0f4a44>
    3630:	00 00 00 00 	unimp  0
    3634:	44 00 00 2f 	call  100036f0 <_trap_table-0x304fc910>
    3638:	40 50 1f e8 	call  140b5d8 <_trap_table-0x3f0f4a28>
    363c:	00 00 00 00 	unimp  0
    3640:	44 00 00 30 	call  10003700 <_trap_table-0x304fc900>
    3644:	40 50 1f ec 	call  140b5f4 <_trap_table-0x3f0f4a0c>
    3648:	00 00 00 00 	unimp  0
    364c:	44 00 00 31 	call  10003710 <_trap_table-0x304fc8f0>
    3650:	40 50 1f f0 	call  140b610 <_trap_table-0x3f0f49f0>
    3654:	00 00 00 00 	unimp  0
    3658:	44 00 00 32 	call  10003720 <_trap_table-0x304fc8e0>
    365c:	40 50 1f f4 	call  140b62c <_trap_table-0x3f0f49d4>
    3660:	00 00 00 00 	unimp  0
    3664:	44 00 00 33 	call  10003730 <_trap_table-0x304fc8d0>
    3668:	40 50 1f f8 	call  140b648 <_trap_table-0x3f0f49b8>
    366c:	00 00 00 00 	unimp  0
    3670:	44 00 00 34 	call  10003740 <_trap_table-0x304fc8c0>
    3674:	40 50 1f fc 	call  140b664 <_trap_table-0x3f0f499c>
    3678:	00 00 00 00 	unimp  0
    367c:	44 00 00 35 	call  10003750 <_trap_table-0x304fc8b0>
    3680:	40 50 20 00 	call  140b680 <_trap_table-0x3f0f4980>
    3684:	00 00 00 00 	unimp  0
    3688:	44 00 00 36 	call  10003760 <_trap_table-0x304fc8a0>
    368c:	40 50 20 04 	call  140b69c <_trap_table-0x3f0f4964>
    3690:	00 00 00 00 	unimp  0
    3694:	44 00 00 38 	call  10003774 <_trap_table-0x304fc88c>
    3698:	40 50 20 08 	call  140b6b8 <_trap_table-0x3f0f4948>
    369c:	00 00 00 00 	unimp  0
    36a0:	44 00 00 39 	call  10003784 <_trap_table-0x304fc87c>
    36a4:	40 50 20 0c 	call  140b6d4 <_trap_table-0x3f0f492c>
    36a8:	00 00 00 00 	unimp  0
    36ac:	44 00 00 3e 	call  100037a4 <_trap_table-0x304fc85c>
    36b0:	40 50 20 10 	call  140b6f0 <_trap_table-0x3f0f4910>
    36b4:	00 00 00 00 	unimp  0
    36b8:	44 00 00 3f 	call  100037b4 <_trap_table-0x304fc84c>
    36bc:	40 50 20 14 	call  140b70c <_trap_table-0x3f0f48f4>
    36c0:	00 00 00 00 	unimp  0
    36c4:	44 00 00 40 	call  100037c4 <_trap_table-0x304fc83c>
    36c8:	40 50 20 18 	call  140b728 <_trap_table-0x3f0f48d8>
    36cc:	00 00 00 00 	unimp  0
    36d0:	44 00 00 41 	call  100037d4 <_trap_table-0x304fc82c>
    36d4:	40 50 20 1c 	call  140b744 <_trap_table-0x3f0f48bc>
    36d8:	00 00 00 00 	unimp  0
    36dc:	44 00 00 42 	call  100037e4 <_trap_table-0x304fc81c>
    36e0:	40 50 20 20 	call  140b760 <_trap_table-0x3f0f48a0>
    36e4:	00 00 00 00 	unimp  0
    36e8:	44 00 00 43 	call  100037f4 <_trap_table-0x304fc80c>
    36ec:	40 50 20 24 	call  140b77c <_trap_table-0x3f0f4884>
    36f0:	00 00 00 00 	unimp  0
    36f4:	44 00 00 44 	call  10003804 <_trap_table-0x304fc7fc>
    36f8:	40 50 20 28 	call  140b798 <_trap_table-0x3f0f4868>
    36fc:	00 00 00 00 	unimp  0
    3700:	44 00 00 45 	call  10003814 <_trap_table-0x304fc7ec>
    3704:	40 50 20 2c 	call  140b7b4 <_trap_table-0x3f0f484c>
    3708:	00 00 00 00 	unimp  0
    370c:	44 00 00 46 	call  10003824 <_trap_table-0x304fc7dc>
    3710:	40 50 20 30 	call  140b7d0 <_trap_table-0x3f0f4830>
    3714:	00 00 00 00 	unimp  0
    3718:	44 00 00 47 	call  10003834 <_trap_table-0x304fc7cc>
    371c:	40 50 20 34 	call  140b7ec <_trap_table-0x3f0f4814>
    3720:	00 00 00 00 	unimp  0
    3724:	44 00 00 48 	call  10003844 <_trap_table-0x304fc7bc>
    3728:	40 50 20 38 	call  140b808 <_trap_table-0x3f0f47f8>
    372c:	00 00 00 00 	unimp  0
    3730:	44 00 00 49 	call  10003854 <_trap_table-0x304fc7ac>
    3734:	40 50 20 3c 	call  140b824 <_trap_table-0x3f0f47dc>
    3738:	00 00 00 00 	unimp  0
    373c:	44 00 00 4a 	call  10003864 <_trap_table-0x304fc79c>
    3740:	40 50 20 40 	call  140b840 <_trap_table-0x3f0f47c0>
    3744:	00 00 00 00 	unimp  0
    3748:	44 00 00 4b 	call  10003874 <_trap_table-0x304fc78c>
    374c:	40 50 20 44 	call  140b85c <_trap_table-0x3f0f47a4>
    3750:	00 00 00 00 	unimp  0
    3754:	44 00 00 4c 	call  10003884 <_trap_table-0x304fc77c>
    3758:	40 50 20 48 	call  140b878 <_trap_table-0x3f0f4788>
    375c:	00 00 00 00 	unimp  0
    3760:	44 00 00 4d 	call  10003894 <_trap_table-0x304fc76c>
    3764:	40 50 20 4c 	call  140b894 <_trap_table-0x3f0f476c>
    3768:	00 00 00 00 	unimp  0
    376c:	44 00 00 4e 	call  100038a4 <_trap_table-0x304fc75c>
    3770:	40 50 20 50 	call  140b8b0 <_trap_table-0x3f0f4750>
    3774:	00 00 00 00 	unimp  0
    3778:	44 00 00 4f 	call  100038b4 <_trap_table-0x304fc74c>
    377c:	40 50 20 54 	call  140b8cc <_trap_table-0x3f0f4734>
    3780:	00 00 27 a1 	unimp  0x27a1
    3784:	64 00 00 00 	call  90003784 <LEON_REG+0x10003784>
    3788:	40 50 20 58 	call  140b8e8 <_trap_table-0x3f0f4718>
    378c:	00 00 27 75 	unimp  0x2775
    3790:	84 00 00 00 	add  %g0, %g0, %g2
    3794:	40 50 20 58 	call  140b8f4 <_trap_table-0x3f0f470c>
    3798:	00 00 00 00 	unimp  0
    379c:	44 00 00 7b 	call  10003988 <_trap_table-0x304fc678>
    37a0:	40 50 20 58 	call  140b900 <_trap_table-0x3f0f4700>
    37a4:	00 00 00 00 	unimp  0
    37a8:	44 00 00 7c 	call  10003998 <_trap_table-0x304fc668>
    37ac:	40 50 20 5c 	call  140b91c <_trap_table-0x3f0f46e4>
    37b0:	00 00 00 00 	unimp  0
    37b4:	44 00 00 84 	call  100039c4 <_trap_table-0x304fc63c>
    37b8:	40 50 20 60 	call  140b938 <_trap_table-0x3f0f46c8>
    37bc:	00 00 00 00 	unimp  0
    37c0:	44 00 00 85 	call  100039d4 <_trap_table-0x304fc62c>
    37c4:	40 50 20 64 	call  140b954 <_trap_table-0x3f0f46ac>
    37c8:	00 00 00 00 	unimp  0
    37cc:	44 00 00 86 	call  100039e4 <_trap_table-0x304fc61c>
    37d0:	40 50 20 68 	call  140b970 <_trap_table-0x3f0f4690>
    37d4:	00 00 00 00 	unimp  0
    37d8:	44 00 00 87 	call  100039f4 <_trap_table-0x304fc60c>
    37dc:	40 50 20 6c 	call  140b98c <_trap_table-0x3f0f4674>
    37e0:	00 00 00 00 	unimp  0
    37e4:	44 00 00 88 	call  10003a04 <_trap_table-0x304fc5fc>
    37e8:	40 50 20 70 	call  140b9a8 <_trap_table-0x3f0f4658>
    37ec:	00 00 00 00 	unimp  0
    37f0:	44 00 00 89 	call  10003a14 <_trap_table-0x304fc5ec>
    37f4:	40 50 20 74 	call  140b9c4 <_trap_table-0x3f0f463c>
    37f8:	00 00 00 00 	unimp  0
    37fc:	44 00 00 8b 	call  10003a28 <_trap_table-0x304fc5d8>
    3800:	40 50 20 78 	call  140b9e0 <_trap_table-0x3f0f4620>
    3804:	00 00 00 00 	unimp  0
    3808:	44 00 00 8c 	call  10003a38 <_trap_table-0x304fc5c8>
    380c:	40 50 20 7c 	call  140b9fc <_trap_table-0x3f0f4604>
    3810:	00 00 00 00 	unimp  0
    3814:	44 00 00 8e 	call  10003a4c <_trap_table-0x304fc5b4>
    3818:	40 50 20 80 	call  140ba18 <_trap_table-0x3f0f45e8>
    381c:	00 00 00 00 	unimp  0
    3820:	44 00 00 94 	call  10003a70 <_trap_table-0x304fc590>
    3824:	40 50 20 84 	call  140ba34 <_trap_table-0x3f0f45cc>
    3828:	00 00 00 00 	unimp  0
    382c:	44 00 00 95 	call  10003a80 <_trap_table-0x304fc580>
    3830:	40 50 20 88 	call  140ba50 <_trap_table-0x3f0f45b0>
    3834:	00 00 00 00 	unimp  0
    3838:	44 00 00 96 	call  10003a90 <_trap_table-0x304fc570>
    383c:	40 50 20 8c 	call  140ba6c <_trap_table-0x3f0f4594>
    3840:	00 00 00 00 	unimp  0
    3844:	44 00 00 9a 	call  10003aac <_trap_table-0x304fc554>
    3848:	40 50 20 90 	call  140ba88 <_trap_table-0x3f0f4578>
    384c:	00 00 00 00 	unimp  0
    3850:	44 00 00 9b 	call  10003abc <_trap_table-0x304fc544>
    3854:	40 50 20 94 	call  140baa4 <_trap_table-0x3f0f455c>
    3858:	00 00 00 00 	unimp  0
    385c:	44 00 00 9c 	call  10003acc <_trap_table-0x304fc534>
    3860:	40 50 20 98 	call  140bac0 <_trap_table-0x3f0f4540>
    3864:	00 00 00 00 	unimp  0
    3868:	44 00 00 9f 	call  10003ae4 <_trap_table-0x304fc51c>
    386c:	40 50 20 9c 	call  140badc <_trap_table-0x3f0f4524>
    3870:	00 00 00 00 	unimp  0
    3874:	44 00 00 a0 	call  10003af4 <_trap_table-0x304fc50c>
    3878:	40 50 20 a0 	call  140baf8 <_trap_table-0x3f0f4508>
    387c:	00 00 00 00 	unimp  0
    3880:	44 00 00 a1 	call  10003b04 <_trap_table-0x304fc4fc>
    3884:	40 50 20 a4 	call  140bb14 <_trap_table-0x3f0f44ec>
    3888:	00 00 00 00 	unimp  0
    388c:	44 00 00 a2 	call  10003b14 <_trap_table-0x304fc4ec>
    3890:	40 50 20 a8 	call  140bb30 <_trap_table-0x3f0f44d0>
    3894:	00 00 00 00 	unimp  0
    3898:	44 00 00 a3 	call  10003b24 <_trap_table-0x304fc4dc>
    389c:	40 50 20 ac 	call  140bb4c <_trap_table-0x3f0f44b4>
    38a0:	00 00 00 00 	unimp  0
    38a4:	44 00 00 a4 	call  10003b34 <_trap_table-0x304fc4cc>
    38a8:	40 50 20 b0 	call  140bb68 <_trap_table-0x3f0f4498>
    38ac:	00 00 00 00 	unimp  0
    38b0:	44 00 00 a5 	call  10003b44 <_trap_table-0x304fc4bc>
    38b4:	40 50 20 b4 	call  140bb84 <_trap_table-0x3f0f447c>
    38b8:	00 00 00 00 	unimp  0
    38bc:	44 00 00 ad 	call  10003b70 <_trap_table-0x304fc490>
    38c0:	40 50 20 b8 	call  140bba0 <_trap_table-0x3f0f4460>
    38c4:	00 00 00 00 	unimp  0
    38c8:	44 00 00 ae 	call  10003b80 <_trap_table-0x304fc480>
    38cc:	40 50 20 bc 	call  140bbbc <_trap_table-0x3f0f4444>
    38d0:	00 00 00 00 	unimp  0
    38d4:	44 00 00 af 	call  10003b90 <_trap_table-0x304fc470>
    38d8:	40 50 20 c0 	call  140bbd8 <_trap_table-0x3f0f4428>
    38dc:	00 00 00 00 	unimp  0
    38e0:	44 00 00 b0 	call  10003ba0 <_trap_table-0x304fc460>
    38e4:	40 50 20 c4 	call  140bbf4 <_trap_table-0x3f0f440c>
    38e8:	00 00 00 00 	unimp  0
    38ec:	44 00 00 b1 	call  10003bb0 <_trap_table-0x304fc450>
    38f0:	40 50 20 c8 	call  140bc10 <_trap_table-0x3f0f43f0>
    38f4:	00 00 00 00 	unimp  0
    38f8:	44 00 00 b2 	call  10003bc0 <_trap_table-0x304fc440>
    38fc:	40 50 20 cc 	call  140bc2c <_trap_table-0x3f0f43d4>
    3900:	00 00 00 00 	unimp  0
    3904:	44 00 00 b5 	call  10003bd8 <_trap_table-0x304fc428>
    3908:	40 50 20 d0 	call  140bc48 <_trap_table-0x3f0f43b8>
    390c:	00 00 00 00 	unimp  0
    3910:	44 00 00 b6 	call  10003be8 <_trap_table-0x304fc418>
    3914:	40 50 20 d4 	call  140bc64 <_trap_table-0x3f0f439c>
    3918:	00 00 00 00 	unimp  0
    391c:	44 00 00 b7 	call  10003bf8 <_trap_table-0x304fc408>
    3920:	40 50 20 d8 	call  140bc80 <_trap_table-0x3f0f4380>
    3924:	00 00 00 00 	unimp  0
    3928:	44 00 00 bc 	call  10003c18 <_trap_table-0x304fc3e8>
    392c:	40 50 20 dc 	call  140bc9c <_trap_table-0x3f0f4364>
    3930:	00 00 00 00 	unimp  0
    3934:	44 00 00 bd 	call  10003c28 <_trap_table-0x304fc3d8>
    3938:	40 50 20 e0 	call  140bcb8 <_trap_table-0x3f0f4348>
    393c:	00 00 00 00 	unimp  0
    3940:	44 00 00 be 	call  10003c38 <_trap_table-0x304fc3c8>
    3944:	40 50 20 e4 	call  140bcd4 <_trap_table-0x3f0f432c>
    3948:	00 00 00 00 	unimp  0
    394c:	44 00 00 bf 	call  10003c48 <_trap_table-0x304fc3b8>
    3950:	40 50 20 e8 	call  140bcf0 <_trap_table-0x3f0f4310>
    3954:	00 00 00 00 	unimp  0
    3958:	44 00 00 c0 	call  10003c58 <_trap_table-0x304fc3a8>
    395c:	40 50 20 ec 	call  140bd0c <_trap_table-0x3f0f42f4>
    3960:	00 00 00 00 	unimp  0
    3964:	44 00 00 c3 	call  10003c70 <_trap_table-0x304fc390>
    3968:	40 50 20 f0 	call  140bd28 <_trap_table-0x3f0f42d8>
    396c:	00 00 00 00 	unimp  0
    3970:	44 00 00 c4 	call  10003c80 <_trap_table-0x304fc380>
    3974:	40 50 20 f4 	call  140bd44 <_trap_table-0x3f0f42bc>
    3978:	00 00 00 00 	unimp  0
    397c:	44 00 00 c5 	call  10003c90 <_trap_table-0x304fc370>
    3980:	40 50 20 f8 	call  140bd60 <_trap_table-0x3f0f42a0>
    3984:	00 00 00 00 	unimp  0
    3988:	44 00 00 c6 	call  10003ca0 <_trap_table-0x304fc360>
    398c:	40 50 20 fc 	call  140bd7c <_trap_table-0x3f0f4284>
    3990:	00 00 00 00 	unimp  0
    3994:	44 00 00 c7 	call  10003cb0 <_trap_table-0x304fc350>
    3998:	40 50 21 00 	call  140bd98 <_trap_table-0x3f0f4268>
    399c:	00 00 00 00 	unimp  0
    39a0:	44 00 00 d6 	call  10003cf8 <_trap_table-0x304fc308>
    39a4:	40 50 21 04 	call  140bdb4 <_trap_table-0x3f0f424c>
    39a8:	00 00 00 00 	unimp  0
    39ac:	44 00 00 d7 	call  10003d08 <_trap_table-0x304fc2f8>
    39b0:	40 50 21 08 	call  140bdd0 <_trap_table-0x3f0f4230>
    39b4:	00 00 00 00 	unimp  0
    39b8:	44 00 00 d8 	call  10003d18 <_trap_table-0x304fc2e8>
    39bc:	40 50 21 0c 	call  140bdec <_trap_table-0x3f0f4214>
    39c0:	00 00 00 00 	unimp  0
    39c4:	44 00 00 d9 	call  10003d28 <_trap_table-0x304fc2d8>
    39c8:	40 50 21 10 	call  140be08 <_trap_table-0x3f0f41f8>
    39cc:	00 00 00 00 	unimp  0
    39d0:	44 00 00 da 	call  10003d38 <_trap_table-0x304fc2c8>
    39d4:	40 50 21 14 	call  140be24 <_trap_table-0x3f0f41dc>
    39d8:	00 00 00 00 	unimp  0
    39dc:	44 00 00 db 	call  10003d48 <_trap_table-0x304fc2b8>
    39e0:	40 50 21 18 	call  140be40 <_trap_table-0x3f0f41c0>
    39e4:	00 00 00 00 	unimp  0
    39e8:	44 00 00 dc 	call  10003d58 <_trap_table-0x304fc2a8>
    39ec:	40 50 21 1c 	call  140be5c <_trap_table-0x3f0f41a4>
    39f0:	00 00 00 00 	unimp  0
    39f4:	44 00 00 de 	call  10003d6c <_trap_table-0x304fc294>
    39f8:	40 50 21 20 	call  140be78 <_trap_table-0x3f0f4188>
    39fc:	00 00 00 00 	unimp  0
    3a00:	44 00 00 df 	call  10003d7c <_trap_table-0x304fc284>
    3a04:	40 50 21 24 	call  140be94 <_trap_table-0x3f0f416c>
    3a08:	00 00 00 00 	unimp  0
    3a0c:	44 00 00 e0 	call  10003d8c <_trap_table-0x304fc274>
    3a10:	40 50 21 28 	call  140beb0 <_trap_table-0x3f0f4150>
    3a14:	00 00 00 00 	unimp  0
    3a18:	44 00 00 e2 	call  10003da0 <_trap_table-0x304fc260>
    3a1c:	40 50 21 2c 	call  140becc <_trap_table-0x3f0f4134>
    3a20:	00 00 00 00 	unimp  0
    3a24:	44 00 00 e3 	call  10003db0 <_trap_table-0x304fc250>
    3a28:	40 50 21 30 	call  140bee8 <_trap_table-0x3f0f4118>
    3a2c:	00 00 00 00 	unimp  0
    3a30:	44 00 00 e4 	call  10003dc0 <_trap_table-0x304fc240>
    3a34:	40 50 21 34 	call  140bf04 <_trap_table-0x3f0f40fc>
    3a38:	00 00 00 00 	unimp  0
    3a3c:	44 00 00 e6 	call  10003dd4 <_trap_table-0x304fc22c>
    3a40:	40 50 21 38 	call  140bf20 <_trap_table-0x3f0f40e0>
    3a44:	00 00 00 00 	unimp  0
    3a48:	44 00 00 e7 	call  10003de4 <_trap_table-0x304fc21c>
    3a4c:	40 50 21 3c 	call  140bf3c <_trap_table-0x3f0f40c4>
    3a50:	00 00 00 00 	unimp  0
    3a54:	44 00 00 ea 	call  10003dfc <_trap_table-0x304fc204>
    3a58:	40 50 21 40 	call  140bf58 <_trap_table-0x3f0f40a8>
    3a5c:	00 00 00 00 	unimp  0
    3a60:	44 00 00 eb 	call  10003e0c <_trap_table-0x304fc1f4>
    3a64:	40 50 21 44 	call  140bf74 <_trap_table-0x3f0f408c>
    3a68:	00 00 00 00 	unimp  0
    3a6c:	44 00 00 ec 	call  10003e1c <_trap_table-0x304fc1e4>
    3a70:	40 50 21 48 	call  140bf90 <_trap_table-0x3f0f4070>
    3a74:	00 00 00 00 	unimp  0
    3a78:	44 00 00 ed 	call  10003e2c <_trap_table-0x304fc1d4>
    3a7c:	40 50 21 4c 	call  140bfac <_trap_table-0x3f0f4054>
    3a80:	00 00 00 00 	unimp  0
    3a84:	44 00 00 f1 	call  10003e48 <_trap_table-0x304fc1b8>
    3a88:	40 50 21 50 	call  140bfc8 <_trap_table-0x3f0f4038>
    3a8c:	00 00 00 00 	unimp  0
    3a90:	44 00 00 f2 	call  10003e58 <_trap_table-0x304fc1a8>
    3a94:	40 50 21 54 	call  140bfe4 <_trap_table-0x3f0f401c>
    3a98:	00 00 00 00 	unimp  0
    3a9c:	44 00 00 f3 	call  10003e68 <_trap_table-0x304fc198>
    3aa0:	40 50 21 58 	call  140c000 <_trap_table-0x3f0f4000>
    3aa4:	00 00 00 00 	unimp  0
    3aa8:	44 00 00 f4 	call  10003e78 <_trap_table-0x304fc188>
    3aac:	40 50 21 5c 	call  140c01c <_trap_table-0x3f0f3fe4>
    3ab0:	00 00 00 00 	unimp  0
    3ab4:	44 00 00 f5 	call  10003e88 <_trap_table-0x304fc178>
    3ab8:	40 50 21 60 	call  140c038 <_trap_table-0x3f0f3fc8>
    3abc:	00 00 00 00 	unimp  0
    3ac0:	44 00 00 f6 	call  10003e98 <_trap_table-0x304fc168>
    3ac4:	40 50 21 64 	call  140c054 <_trap_table-0x3f0f3fac>
    3ac8:	00 00 00 00 	unimp  0
    3acc:	44 00 00 f8 	call  10003eac <_trap_table-0x304fc154>
    3ad0:	40 50 21 68 	call  140c070 <_trap_table-0x3f0f3f90>
    3ad4:	00 00 00 00 	unimp  0
    3ad8:	44 00 00 fa 	call  10003ec0 <_trap_table-0x304fc140>
    3adc:	40 50 21 6c 	call  140c08c <_trap_table-0x3f0f3f74>
    3ae0:	00 00 00 00 	unimp  0
    3ae4:	44 00 00 fc 	call  10003ed4 <_trap_table-0x304fc12c>
    3ae8:	40 50 21 70 	call  140c0a8 <_trap_table-0x3f0f3f58>
    3aec:	00 00 00 00 	unimp  0
    3af0:	44 00 00 fd 	call  10003ee4 <_trap_table-0x304fc11c>
    3af4:	40 50 21 74 	call  140c0c4 <_trap_table-0x3f0f3f3c>
    3af8:	00 00 00 00 	unimp  0
    3afc:	44 00 00 ff 	call  10003ef8 <_trap_table-0x304fc108>
    3b00:	40 50 21 78 	call  140c0e0 <_trap_table-0x3f0f3f20>
    3b04:	00 00 00 00 	unimp  0
    3b08:	44 00 01 01 	call  10003f0c <_trap_table-0x304fc0f4>
    3b0c:	40 50 21 7c 	call  140c0fc <_trap_table-0x3f0f3f04>
    3b10:	00 00 00 00 	unimp  0
    3b14:	44 00 01 02 	call  10003f1c <_trap_table-0x304fc0e4>
    3b18:	40 50 21 80 	call  140c118 <_trap_table-0x3f0f3ee8>
    3b1c:	00 00 00 00 	unimp  0
    3b20:	44 00 01 04 	call  10003f30 <_trap_table-0x304fc0d0>
    3b24:	40 50 21 84 	call  140c134 <_trap_table-0x3f0f3ecc>
    3b28:	00 00 00 00 	unimp  0
    3b2c:	44 00 01 06 	call  10003f44 <_trap_table-0x304fc0bc>
    3b30:	40 50 21 88 	call  140c150 <_trap_table-0x3f0f3eb0>
    3b34:	00 00 00 00 	unimp  0
    3b38:	44 00 01 07 	call  10003f54 <_trap_table-0x304fc0ac>
    3b3c:	40 50 21 8c 	call  140c16c <_trap_table-0x3f0f3e94>
    3b40:	00 00 00 00 	unimp  0
    3b44:	44 00 01 09 	call  10003f68 <_trap_table-0x304fc098>
    3b48:	40 50 21 90 	call  140c188 <_trap_table-0x3f0f3e78>
    3b4c:	00 00 00 00 	unimp  0
    3b50:	44 00 01 0b 	call  10003f7c <_trap_table-0x304fc084>
    3b54:	40 50 21 94 	call  140c1a4 <_trap_table-0x3f0f3e5c>
    3b58:	00 00 00 00 	unimp  0
    3b5c:	44 00 01 0c 	call  10003f8c <_trap_table-0x304fc074>
    3b60:	40 50 21 98 	call  140c1c0 <_trap_table-0x3f0f3e40>
    3b64:	00 00 00 00 	unimp  0
    3b68:	44 00 01 0e 	call  10003fa0 <_trap_table-0x304fc060>
    3b6c:	40 50 21 9c 	call  140c1dc <_trap_table-0x3f0f3e24>
    3b70:	00 00 00 00 	unimp  0
    3b74:	44 00 01 0f 	call  10003fb0 <_trap_table-0x304fc050>
    3b78:	40 50 21 a0 	call  140c1f8 <_trap_table-0x3f0f3e08>
    3b7c:	00 00 00 00 	unimp  0
    3b80:	44 00 01 10 	call  10003fc0 <_trap_table-0x304fc040>
    3b84:	40 50 21 a4 	call  140c214 <_trap_table-0x3f0f3dec>
    3b88:	00 00 00 00 	unimp  0
    3b8c:	44 00 01 14 	call  10003fdc <_trap_table-0x304fc024>
    3b90:	40 50 21 a8 	call  140c230 <_trap_table-0x3f0f3dd0>
    3b94:	00 00 00 00 	unimp  0
    3b98:	44 00 01 15 	call  10003fec <_trap_table-0x304fc014>
    3b9c:	40 50 21 ac 	call  140c24c <_trap_table-0x3f0f3db4>
    3ba0:	00 00 00 00 	unimp  0
    3ba4:	44 00 01 16 	call  10003ffc <_trap_table-0x304fc004>
    3ba8:	40 50 21 b0 	call  140c268 <_trap_table-0x3f0f3d98>
    3bac:	00 00 00 00 	unimp  0
    3bb0:	44 00 01 1b 	call  1000401c <_trap_table-0x304fbfe4>
    3bb4:	40 50 21 b4 	call  140c284 <_trap_table-0x3f0f3d7c>
    3bb8:	00 00 00 00 	unimp  0
    3bbc:	44 00 01 1d 	call  10004030 <_trap_table-0x304fbfd0>
    3bc0:	40 50 21 b8 	call  140c2a0 <_trap_table-0x3f0f3d60>
    3bc4:	00 00 00 00 	unimp  0
    3bc8:	44 00 01 1e 	call  10004040 <_trap_table-0x304fbfc0>
    3bcc:	40 50 21 bc 	call  140c2bc <_trap_table-0x3f0f3d44>
    3bd0:	00 00 00 00 	unimp  0
    3bd4:	44 00 01 20 	call  10004054 <_trap_table-0x304fbfac>
    3bd8:	40 50 21 c0 	call  140c2d8 <_trap_table-0x3f0f3d28>
    3bdc:	00 00 00 00 	unimp  0
    3be0:	44 00 01 21 	call  10004064 <_trap_table-0x304fbf9c>
    3be4:	40 50 21 c4 	call  140c2f4 <_trap_table-0x3f0f3d0c>
    3be8:	00 00 00 00 	unimp  0
    3bec:	44 00 01 22 	call  10004074 <_trap_table-0x304fbf8c>
    3bf0:	40 50 21 c8 	call  140c310 <_trap_table-0x3f0f3cf0>
    3bf4:	00 00 00 00 	unimp  0
    3bf8:	44 00 01 26 	call  10004090 <_trap_table-0x304fbf70>
    3bfc:	40 50 21 cc 	call  140c32c <_trap_table-0x3f0f3cd4>
    3c00:	00 00 00 00 	unimp  0
    3c04:	44 00 01 27 	call  100040a0 <_trap_table-0x304fbf60>
    3c08:	40 50 21 d0 	call  140c348 <_trap_table-0x3f0f3cb8>
    3c0c:	00 00 00 00 	unimp  0
    3c10:	44 00 01 28 	call  100040b0 <_trap_table-0x304fbf50>
    3c14:	40 50 21 d4 	call  140c364 <_trap_table-0x3f0f3c9c>
    3c18:	00 00 00 00 	unimp  0
    3c1c:	44 00 01 2c 	call  100040cc <_trap_table-0x304fbf34>
    3c20:	40 50 21 d8 	call  140c380 <_trap_table-0x3f0f3c80>
    3c24:	00 00 00 00 	unimp  0
    3c28:	44 00 01 2e 	call  100040e0 <_trap_table-0x304fbf20>
    3c2c:	40 50 21 dc 	call  140c39c <_trap_table-0x3f0f3c64>
    3c30:	00 00 00 00 	unimp  0
    3c34:	44 00 01 2f 	call  100040f0 <_trap_table-0x304fbf10>
    3c38:	40 50 21 e0 	call  140c3b8 <_trap_table-0x3f0f3c48>
    3c3c:	00 00 00 00 	unimp  0
    3c40:	44 00 01 31 	call  10004104 <_trap_table-0x304fbefc>
    3c44:	40 50 21 e4 	call  140c3d4 <_trap_table-0x3f0f3c2c>
    3c48:	00 00 00 00 	unimp  0
    3c4c:	44 00 01 33 	call  10004118 <_trap_table-0x304fbee8>
    3c50:	40 50 21 e8 	call  140c3f0 <_trap_table-0x3f0f3c10>
    3c54:	00 00 00 00 	unimp  0
    3c58:	44 00 01 34 	call  10004128 <_trap_table-0x304fbed8>
    3c5c:	40 50 21 ec 	call  140c40c <_trap_table-0x3f0f3bf4>
    3c60:	00 00 00 00 	unimp  0
    3c64:	44 00 01 36 	call  1000413c <_trap_table-0x304fbec4>
    3c68:	40 50 21 f0 	call  140c428 <_trap_table-0x3f0f3bd8>
    3c6c:	00 00 00 00 	unimp  0
    3c70:	44 00 01 37 	call  1000414c <_trap_table-0x304fbeb4>
    3c74:	40 50 21 f4 	call  140c444 <_trap_table-0x3f0f3bbc>
    3c78:	00 00 00 00 	unimp  0
    3c7c:	44 00 01 38 	call  1000415c <_trap_table-0x304fbea4>
    3c80:	40 50 21 f8 	call  140c460 <_trap_table-0x3f0f3ba0>
    3c84:	00 00 00 00 	unimp  0
    3c88:	44 00 01 3c 	call  10004178 <_trap_table-0x304fbe88>
    3c8c:	40 50 21 fc 	call  140c47c <_trap_table-0x3f0f3b84>
    3c90:	00 00 00 00 	unimp  0
    3c94:	44 00 01 3d 	call  10004188 <_trap_table-0x304fbe78>
    3c98:	40 50 22 00 	call  140c498 <_trap_table-0x3f0f3b68>
    3c9c:	00 00 00 00 	unimp  0
    3ca0:	44 00 01 3e 	call  10004198 <_trap_table-0x304fbe68>
    3ca4:	40 50 22 04 	call  140c4b4 <_trap_table-0x3f0f3b4c>
    3ca8:	00 00 00 00 	unimp  0
    3cac:	44 00 01 42 	call  100041b4 <_trap_table-0x304fbe4c>
    3cb0:	40 50 22 08 	call  140c4d0 <_trap_table-0x3f0f3b30>
    3cb4:	00 00 00 00 	unimp  0
    3cb8:	44 00 01 44 	call  100041c8 <_trap_table-0x304fbe38>
    3cbc:	40 50 22 0c 	call  140c4ec <_trap_table-0x3f0f3b14>
    3cc0:	00 00 00 00 	unimp  0
    3cc4:	44 00 01 45 	call  100041d8 <_trap_table-0x304fbe28>
    3cc8:	40 50 22 10 	call  140c508 <_trap_table-0x3f0f3af8>
    3ccc:	00 00 00 00 	unimp  0
    3cd0:	44 00 01 47 	call  100041ec <_trap_table-0x304fbe14>
    3cd4:	40 50 22 14 	call  140c524 <_trap_table-0x3f0f3adc>
    3cd8:	00 00 00 00 	unimp  0
    3cdc:	44 00 01 48 	call  100041fc <_trap_table-0x304fbe04>
    3ce0:	40 50 22 18 	call  140c540 <_trap_table-0x3f0f3ac0>
    3ce4:	00 00 00 00 	unimp  0
    3ce8:	44 00 01 49 	call  1000420c <_trap_table-0x304fbdf4>
    3cec:	40 50 22 1c 	call  140c55c <_trap_table-0x3f0f3aa4>
    3cf0:	00 00 00 00 	unimp  0
    3cf4:	44 00 01 4d 	call  10004228 <_trap_table-0x304fbdd8>
    3cf8:	40 50 22 20 	call  140c578 <_trap_table-0x3f0f3a88>
    3cfc:	00 00 00 00 	unimp  0
    3d00:	44 00 01 4e 	call  10004238 <_trap_table-0x304fbdc8>
    3d04:	40 50 22 24 	call  140c594 <_trap_table-0x3f0f3a6c>
    3d08:	00 00 00 00 	unimp  0
    3d0c:	44 00 01 4f 	call  10004248 <_trap_table-0x304fbdb8>
    3d10:	40 50 22 28 	call  140c5b0 <_trap_table-0x3f0f3a50>
    3d14:	00 00 00 00 	unimp  0
    3d18:	44 00 01 53 	call  10004264 <_trap_table-0x304fbd9c>
    3d1c:	40 50 22 2c 	call  140c5cc <_trap_table-0x3f0f3a34>
    3d20:	00 00 00 00 	unimp  0
    3d24:	44 00 01 55 	call  10004278 <_trap_table-0x304fbd88>
    3d28:	40 50 22 30 	call  140c5e8 <_trap_table-0x3f0f3a18>
    3d2c:	00 00 00 00 	unimp  0
    3d30:	44 00 01 56 	call  10004288 <_trap_table-0x304fbd78>
    3d34:	40 50 22 34 	call  140c604 <_trap_table-0x3f0f39fc>
    3d38:	00 00 00 00 	unimp  0
    3d3c:	44 00 01 58 	call  1000429c <_trap_table-0x304fbd64>
    3d40:	40 50 22 38 	call  140c620 <_trap_table-0x3f0f39e0>
    3d44:	00 00 00 00 	unimp  0
    3d48:	44 00 01 5a 	call  100042b0 <_trap_table-0x304fbd50>
    3d4c:	40 50 22 3c 	call  140c63c <_trap_table-0x3f0f39c4>
    3d50:	00 00 00 00 	unimp  0
    3d54:	44 00 01 5b 	call  100042c0 <_trap_table-0x304fbd40>
    3d58:	40 50 22 40 	call  140c658 <_trap_table-0x3f0f39a8>
    3d5c:	00 00 00 00 	unimp  0
    3d60:	44 00 01 5d 	call  100042d4 <_trap_table-0x304fbd2c>
    3d64:	40 50 22 44 	call  140c674 <_trap_table-0x3f0f398c>
    3d68:	00 00 00 00 	unimp  0
    3d6c:	44 00 01 5f 	call  100042e8 <_trap_table-0x304fbd18>
    3d70:	40 50 22 48 	call  140c690 <_trap_table-0x3f0f3970>
    3d74:	00 00 00 00 	unimp  0
    3d78:	44 00 01 60 	call  100042f8 <_trap_table-0x304fbd08>
    3d7c:	40 50 22 4c 	call  140c6ac <_trap_table-0x3f0f3954>
    3d80:	00 00 00 00 	unimp  0
    3d84:	44 00 01 62 	call  1000430c <_trap_table-0x304fbcf4>
    3d88:	40 50 22 50 	call  140c6c8 <_trap_table-0x3f0f3938>
    3d8c:	00 00 00 00 	unimp  0
    3d90:	44 00 01 63 	call  1000431c <_trap_table-0x304fbce4>
    3d94:	40 50 22 54 	call  140c6e4 <_trap_table-0x3f0f391c>
    3d98:	00 00 00 00 	unimp  0
    3d9c:	44 00 01 64 	call  1000432c <_trap_table-0x304fbcd4>
    3da0:	40 50 22 58 	call  140c700 <_trap_table-0x3f0f3900>
    3da4:	00 00 00 00 	unimp  0
    3da8:	44 00 01 68 	call  10004348 <_trap_table-0x304fbcb8>
    3dac:	40 50 22 5c 	call  140c71c <_trap_table-0x3f0f38e4>
    3db0:	00 00 00 00 	unimp  0
    3db4:	44 00 01 69 	call  10004358 <_trap_table-0x304fbca8>
    3db8:	40 50 22 60 	call  140c738 <_trap_table-0x3f0f38c8>
    3dbc:	00 00 00 00 	unimp  0
    3dc0:	44 00 01 6a 	call  10004368 <_trap_table-0x304fbc98>
    3dc4:	40 50 22 64 	call  140c754 <_trap_table-0x3f0f38ac>
    3dc8:	00 00 00 00 	unimp  0
    3dcc:	44 00 01 6e 	call  10004384 <_trap_table-0x304fbc7c>
    3dd0:	40 50 22 68 	call  140c770 <_trap_table-0x3f0f3890>
    3dd4:	00 00 00 00 	unimp  0
    3dd8:	44 00 01 70 	call  10004398 <_trap_table-0x304fbc68>
    3ddc:	40 50 22 6c 	call  140c78c <_trap_table-0x3f0f3874>
    3de0:	00 00 00 00 	unimp  0
    3de4:	44 00 01 71 	call  100043a8 <_trap_table-0x304fbc58>
    3de8:	40 50 22 70 	call  140c7a8 <_trap_table-0x3f0f3858>
    3dec:	00 00 00 00 	unimp  0
    3df0:	44 00 01 73 	call  100043bc <_trap_table-0x304fbc44>
    3df4:	40 50 22 74 	call  140c7c4 <_trap_table-0x3f0f383c>
    3df8:	00 00 00 00 	unimp  0
    3dfc:	44 00 01 74 	call  100043cc <_trap_table-0x304fbc34>
    3e00:	40 50 22 78 	call  140c7e0 <_trap_table-0x3f0f3820>
    3e04:	00 00 00 00 	unimp  0
    3e08:	44 00 01 75 	call  100043dc <_trap_table-0x304fbc24>
    3e0c:	40 50 22 7c 	call  140c7fc <_trap_table-0x3f0f3804>
    3e10:	00 00 00 00 	unimp  0
    3e14:	44 00 01 79 	call  100043f8 <_trap_table-0x304fbc08>
    3e18:	40 50 22 80 	call  140c818 <_trap_table-0x3f0f37e8>
    3e1c:	00 00 00 00 	unimp  0
    3e20:	44 00 01 7a 	call  10004408 <_trap_table-0x304fbbf8>
    3e24:	40 50 22 84 	call  140c834 <_trap_table-0x3f0f37cc>
    3e28:	00 00 00 00 	unimp  0
    3e2c:	44 00 01 7b 	call  10004418 <_trap_table-0x304fbbe8>
    3e30:	40 50 22 88 	call  140c850 <_trap_table-0x3f0f37b0>
    3e34:	00 00 00 00 	unimp  0
    3e38:	44 00 01 7f 	call  10004434 <_trap_table-0x304fbbcc>
    3e3c:	40 50 22 8c 	call  140c86c <_trap_table-0x3f0f3794>
    3e40:	00 00 00 00 	unimp  0
    3e44:	44 00 01 81 	call  10004448 <_trap_table-0x304fbbb8>
    3e48:	40 50 22 90 	call  140c888 <_trap_table-0x3f0f3778>
    3e4c:	00 00 00 00 	unimp  0
    3e50:	44 00 01 82 	call  10004458 <_trap_table-0x304fbba8>
    3e54:	40 50 22 94 	call  140c8a4 <_trap_table-0x3f0f375c>
    3e58:	00 00 00 00 	unimp  0
    3e5c:	44 00 01 84 	call  1000446c <_trap_table-0x304fbb94>
    3e60:	40 50 22 98 	call  140c8c0 <_trap_table-0x3f0f3740>
    3e64:	00 00 00 00 	unimp  0
    3e68:	44 00 01 86 	call  10004480 <_trap_table-0x304fbb80>
    3e6c:	40 50 22 9c 	call  140c8dc <_trap_table-0x3f0f3724>
    3e70:	00 00 00 00 	unimp  0
    3e74:	44 00 01 87 	call  10004490 <_trap_table-0x304fbb70>
    3e78:	40 50 22 a0 	call  140c8f8 <_trap_table-0x3f0f3708>
    3e7c:	00 00 00 00 	unimp  0
    3e80:	44 00 01 89 	call  100044a4 <_trap_table-0x304fbb5c>
    3e84:	40 50 22 a4 	call  140c914 <_trap_table-0x3f0f36ec>
    3e88:	00 00 00 00 	unimp  0
    3e8c:	44 00 01 8a 	call  100044b4 <_trap_table-0x304fbb4c>
    3e90:	40 50 22 a8 	call  140c930 <_trap_table-0x3f0f36d0>
    3e94:	00 00 00 00 	unimp  0
    3e98:	44 00 01 8b 	call  100044c4 <_trap_table-0x304fbb3c>
    3e9c:	40 50 22 ac 	call  140c94c <_trap_table-0x3f0f36b4>
    3ea0:	00 00 00 00 	unimp  0
    3ea4:	44 00 01 8f 	call  100044e0 <_trap_table-0x304fbb20>
    3ea8:	40 50 22 b0 	call  140c968 <_trap_table-0x3f0f3698>
    3eac:	00 00 00 00 	unimp  0
    3eb0:	44 00 01 90 	call  100044f0 <_trap_table-0x304fbb10>
    3eb4:	40 50 22 b4 	call  140c984 <_trap_table-0x3f0f367c>
    3eb8:	00 00 00 00 	unimp  0
    3ebc:	44 00 01 91 	call  10004500 <_trap_table-0x304fbb00>
    3ec0:	40 50 22 b8 	call  140c9a0 <_trap_table-0x3f0f3660>
    3ec4:	00 00 00 00 	unimp  0
    3ec8:	44 00 01 95 	call  1000451c <_trap_table-0x304fbae4>
    3ecc:	40 50 22 bc 	call  140c9bc <_trap_table-0x3f0f3644>
    3ed0:	00 00 00 00 	unimp  0
    3ed4:	44 00 01 97 	call  10004530 <_trap_table-0x304fbad0>
    3ed8:	40 50 22 c0 	call  140c9d8 <_trap_table-0x3f0f3628>
    3edc:	00 00 00 00 	unimp  0
    3ee0:	44 00 01 98 	call  10004540 <_trap_table-0x304fbac0>
    3ee4:	40 50 22 c4 	call  140c9f4 <_trap_table-0x3f0f360c>
    3ee8:	00 00 00 00 	unimp  0
    3eec:	44 00 01 9a 	call  10004554 <_trap_table-0x304fbaac>
    3ef0:	40 50 22 c8 	call  140ca10 <_trap_table-0x3f0f35f0>
    3ef4:	00 00 00 00 	unimp  0
    3ef8:	44 00 01 9b 	call  10004564 <_trap_table-0x304fba9c>
    3efc:	40 50 22 cc 	call  140ca2c <_trap_table-0x3f0f35d4>
    3f00:	00 00 00 00 	unimp  0
    3f04:	44 00 01 9c 	call  10004574 <_trap_table-0x304fba8c>
    3f08:	40 50 22 d0 	call  140ca48 <_trap_table-0x3f0f35b8>
    3f0c:	00 00 00 00 	unimp  0
    3f10:	44 00 01 a0 	call  10004590 <_trap_table-0x304fba70>
    3f14:	40 50 22 d4 	call  140ca64 <_trap_table-0x3f0f359c>
    3f18:	00 00 00 00 	unimp  0
    3f1c:	44 00 01 a1 	call  100045a0 <_trap_table-0x304fba60>
    3f20:	40 50 22 d8 	call  140ca80 <_trap_table-0x3f0f3580>
    3f24:	00 00 00 00 	unimp  0
    3f28:	44 00 01 a2 	call  100045b0 <_trap_table-0x304fba50>
    3f2c:	40 50 22 dc 	call  140ca9c <_trap_table-0x3f0f3564>
    3f30:	00 00 00 00 	unimp  0
    3f34:	44 00 01 a6 	call  100045cc <_trap_table-0x304fba34>
    3f38:	40 50 22 e0 	call  140cab8 <_trap_table-0x3f0f3548>
    3f3c:	00 00 00 00 	unimp  0
    3f40:	44 00 01 a7 	call  100045dc <_trap_table-0x304fba24>
    3f44:	40 50 22 e4 	call  140cad4 <_trap_table-0x3f0f352c>
    3f48:	00 00 00 00 	unimp  0
    3f4c:	44 00 01 a8 	call  100045ec <_trap_table-0x304fba14>
    3f50:	40 50 22 e8 	call  140caf0 <_trap_table-0x3f0f3510>
    3f54:	00 00 00 00 	unimp  0
    3f58:	44 00 01 a9 	call  100045fc <_trap_table-0x304fba04>
    3f5c:	40 50 22 ec 	call  140cb0c <_trap_table-0x3f0f34f4>
    3f60:	00 00 00 00 	unimp  0
    3f64:	44 00 01 ab 	call  10004610 <_trap_table-0x304fb9f0>
    3f68:	40 50 22 f0 	call  140cb28 <_trap_table-0x3f0f34d8>
    3f6c:	00 00 00 00 	unimp  0
    3f70:	44 00 01 b0 	call  10004630 <_trap_table-0x304fb9d0>
    3f74:	40 50 22 f4 	call  140cb44 <_trap_table-0x3f0f34bc>
    3f78:	00 00 00 00 	unimp  0
    3f7c:	44 00 01 b1 	call  10004640 <_trap_table-0x304fb9c0>
    3f80:	40 50 22 f8 	call  140cb60 <_trap_table-0x3f0f34a0>
    3f84:	00 00 00 00 	unimp  0
    3f88:	44 00 01 b2 	call  10004650 <_trap_table-0x304fb9b0>
    3f8c:	40 50 22 fc 	call  140cb7c <_trap_table-0x3f0f3484>
    3f90:	00 00 00 00 	unimp  0
    3f94:	44 00 01 b4 	call  10004664 <_trap_table-0x304fb99c>
    3f98:	40 50 23 00 	call  140cb98 <_trap_table-0x3f0f3468>
    3f9c:	00 00 00 00 	unimp  0
    3fa0:	44 00 01 b5 	call  10004674 <_trap_table-0x304fb98c>
    3fa4:	40 50 23 04 	call  140cbb4 <_trap_table-0x3f0f344c>
    3fa8:	00 00 27 b1 	unimp  0x27b1
    3fac:	64 00 00 00 	call  90003fac <LEON_REG+0x10003fac>
    3fb0:	40 50 23 08 	call  140cbd0 <_trap_table-0x3f0f3430>
    3fb4:	00 00 28 0e 	unimp  0x280e
    3fb8:	64 00 00 00 	call  90003fb8 <LEON_REG+0x10003fb8>
    3fbc:	40 50 23 08 	call  140cbdc <_trap_table-0x3f0f3424>
    3fc0:	00 00 01 23 	unimp  0x123
    3fc4:	3c 00 00 00 	unknown
    3fc8:	00 00 00 00 	unimp  0
    3fcc:	00 00 01 32 	unimp  0x132
    3fd0:	80 00 00 00 	add  %g0, %g0, %g0
    3fd4:	00 00 00 00 	unimp  0
    3fd8:	00 00 01 5c 	unimp  0x15c
    3fdc:	80 00 00 00 	add  %g0, %g0, %g0
    3fe0:	00 00 00 00 	unimp  0
    3fe4:	00 00 01 76 	unimp  0x176
    3fe8:	80 00 00 00 	add  %g0, %g0, %g0
    3fec:	00 00 00 00 	unimp  0
    3ff0:	00 00 01 a5 	unimp  0x1a5
    3ff4:	80 00 00 00 	add  %g0, %g0, %g0
    3ff8:	00 00 00 00 	unimp  0
    3ffc:	00 00 01 dd 	unimp  0x1dd
    4000:	80 00 00 00 	add  %g0, %g0, %g0
    4004:	00 00 00 00 	unimp  0
    4008:	00 00 02 1a 	unimp  0x21a
    400c:	80 00 00 00 	add  %g0, %g0, %g0
    4010:	00 00 00 00 	unimp  0
    4014:	00 00 02 6b 	unimp  0x26b
    4018:	80 00 00 00 	add  %g0, %g0, %g0
    401c:	00 00 00 00 	unimp  0
    4020:	00 00 02 bc 	unimp  0x2bc
    4024:	80 00 00 00 	add  %g0, %g0, %g0
    4028:	00 00 00 00 	unimp  0
    402c:	00 00 02 e7 	unimp  0x2e7
    4030:	80 00 00 00 	add  %g0, %g0, %g0
    4034:	00 00 00 00 	unimp  0
    4038:	00 00 03 16 	unimp  0x316
    403c:	80 00 00 00 	add  %g0, %g0, %g0
    4040:	00 00 00 00 	unimp  0
    4044:	00 00 03 40 	unimp  0x340
    4048:	80 00 00 00 	add  %g0, %g0, %g0
    404c:	00 00 00 00 	unimp  0
    4050:	00 00 03 69 	unimp  0x369
    4054:	80 00 00 00 	add  %g0, %g0, %g0
    4058:	00 00 00 00 	unimp  0
    405c:	00 00 03 83 	unimp  0x383
    4060:	80 00 00 00 	add  %g0, %g0, %g0
    4064:	00 00 00 00 	unimp  0
    4068:	00 00 03 9e 	unimp  0x39e
    406c:	80 00 00 00 	add  %g0, %g0, %g0
    4070:	00 00 00 00 	unimp  0
    4074:	00 00 03 be 	unimp  0x3be
    4078:	80 00 00 00 	add  %g0, %g0, %g0
    407c:	00 00 00 00 	unimp  0
    4080:	00 00 03 f7 	unimp  0x3f7
    4084:	80 00 00 00 	add  %g0, %g0, %g0
    4088:	00 00 00 00 	unimp  0
    408c:	00 00 04 15 	unimp  0x415
    4090:	80 00 00 00 	add  %g0, %g0, %g0
    4094:	00 00 00 00 	unimp  0
    4098:	00 00 04 35 	unimp  0x435
    409c:	80 00 00 00 	add  %g0, %g0, %g0
    40a0:	00 00 00 00 	unimp  0
    40a4:	00 00 04 5a 	unimp  0x45a
    40a8:	80 00 00 00 	add  %g0, %g0, %g0
    40ac:	00 00 00 00 	unimp  0
    40b0:	00 00 04 6e 	unimp  0x46e
    40b4:	80 00 00 00 	add  %g0, %g0, %g0
    40b8:	00 00 00 00 	unimp  0
    40bc:	00 00 04 90 	unimp  0x490
    40c0:	80 00 00 00 	add  %g0, %g0, %g0
    40c4:	00 00 00 00 	unimp  0
    40c8:	00 00 28 45 	unimp  0x2845
    40cc:	82 00 00 00 	add  %g0, %g0, %g1
    40d0:	00 00 05 44 	unimp  0x544
    40d4:	00 00 28 8a 	unimp  0x288a
    40d8:	80 00 00 05 	add  %g0, %g5, %g0
    40dc:	00 00 00 00 	unimp  0
    40e0:	00 00 28 9f 	unimp  0x289f
    40e4:	82 00 00 00 	add  %g0, %g0, %g1
    40e8:	00 00 00 00 	unimp  0
    40ec:	00 00 05 64 	unimp  0x564
    40f0:	c2 00 00 00 	ld  [ %g0 ], %g1
    40f4:	00 02 bf 15 	unimp  0x2bf15
    40f8:	00 00 05 ad 	unimp  0x5ad
    40fc:	c2 00 00 00 	ld  [ %g0 ], %g1
    4100:	00 00 3b 70 	unimp  0x3b70
    4104:	00 00 28 e8 	unimp  0x28e8
    4108:	82 00 00 00 	add  %g0, %g0, %g1
    410c:	00 00 1f b7 	unimp  0x1fb7
    4110:	00 00 29 0f 	unimp  0x290f
    4114:	82 00 00 00 	add  %g0, %g0, %g1
    4118:	00 00 bc 67 	unimp  0xbc67
    411c:	00 00 06 d2 	unimp  0x6d2
    4120:	80 00 00 27 	unknown
    4124:	00 00 00 00 	unimp  0
    4128:	00 00 06 f2 	unimp  0x6f2
    412c:	80 00 00 00 	add  %g0, %g0, %g0
    4130:	00 00 00 00 	unimp  0
    4134:	00 00 07 6b 	unimp  0x76b
    4138:	80 00 00 29 	unknown
    413c:	00 00 00 00 	unimp  0
    4140:	00 00 07 8f 	unimp  0x78f
    4144:	80 00 00 00 	add  %g0, %g0, %g0
    4148:	00 00 00 00 	unimp  0
    414c:	00 00 09 12 	unimp  0x912
    4150:	80 00 00 38 	unknown
    4154:	00 00 00 00 	unimp  0
    4158:	00 00 09 30 	unimp  0x930
    415c:	80 00 00 3e 	unknown
	...
    4168:	a2 00 00 00 	add  %g0, %g0, %l1
    416c:	00 00 00 00 	unimp  0
    4170:	00 00 09 96 	unimp  0x996
    4174:	80 00 00 61 	unknown
    4178:	00 00 00 00 	unimp  0
    417c:	00 00 09 b2 	unimp  0x9b2
    4180:	80 00 00 62 	unknown
    4184:	00 00 00 00 	unimp  0
    4188:	00 00 09 d8 	unimp  0x9d8
    418c:	80 00 00 df 	unknown
    4190:	00 00 00 00 	unimp  0
    4194:	00 00 09 ed 	unimp  0x9ed
    4198:	80 00 00 e0 	unknown
	...
    41a4:	a2 00 00 00 	add  %g0, %g0, %l1
    41a8:	00 00 00 00 	unimp  0
    41ac:	00 00 04 ed 	unimp  0x4ed
    41b0:	c2 00 00 00 	ld  [ %g0 ], %g1
    41b4:	00 00 04 de 	unimp  0x4de
    41b8:	00 00 00 00 	unimp  0
    41bc:	a2 00 00 00 	add  %g0, %g0, %l1
	...
    41c8:	a2 00 00 00 	add  %g0, %g0, %l1
    41cc:	00 00 00 00 	unimp  0
    41d0:	00 00 29 43 	unimp  0x2943
    41d4:	24 00 00 21 	unknown
    41d8:	40 50 23 08 	call  140cdf8 <_trap_table-0x3f0f3208>
    41dc:	00 00 29 4f 	unimp  0x294f
    41e0:	40 00 00 20 	call  4260 <_trap_table-0x404fbda0>
    41e4:	00 00 00 08 	unimp  0x8
    41e8:	00 00 00 00 	unimp  0
    41ec:	44 00 00 21 	call  10004270 <_trap_table-0x304fbd90>
    41f0:	00 00 00 00 	unimp  0
    41f4:	00 00 00 00 	unimp  0
    41f8:	44 00 00 24 	call  10004288 <_trap_table-0x304fbd78>
    41fc:	00 00 00 00 	unimp  0
    4200:	00 00 00 00 	unimp  0
    4204:	44 00 00 27 	call  100042a0 <_trap_table-0x304fbd60>
    4208:	00 00 00 0c 	unimp  0xc
    420c:	00 00 00 00 	unimp  0
    4210:	44 00 00 24 	call  100042a0 <_trap_table-0x304fbd60>
    4214:	00 00 00 0c 	unimp  0xc
    4218:	00 00 00 00 	unimp  0
    421c:	44 00 00 25 	call  100042b0 <_trap_table-0x304fbd50>
    4220:	00 00 00 14 	unimp  0x14
    4224:	00 00 00 00 	unimp  0
    4228:	44 00 00 27 	call  100042c4 <_trap_table-0x304fbd3c>
    422c:	00 00 00 20 	unimp  0x20
    4230:	00 00 00 00 	unimp  0
    4234:	24 00 00 00 	unknown
    4238:	00 00 00 30 	unimp  0x30
    423c:	00 00 29 5d 	unimp  0x295d
    4240:	20 00 00 17 	unknown
	...
    424c:	64 00 00 00 	call  9000424c <LEON_REG+0x1000424c>
    4250:	40 50 23 38 	call  140cf30 <_trap_table-0x3f0f30d0>
    4254:	00 00 29 6d 	unimp  0x296d
    4258:	64 00 00 00 	call  90004258 <LEON_REG+0x10004258>
    425c:	40 50 23 38 	call  140cf3c <_trap_table-0x3f0f30c4>
    4260:	00 00 29 7d 	unimp  0x297d
    4264:	84 00 00 00 	add  %g0, %g0, %g2
    4268:	40 50 23 38 	call  140cf48 <_trap_table-0x3f0f30b8>
    426c:	00 00 00 00 	unimp  0
    4270:	44 00 00 33 	call  1000433c <_trap_table-0x304fbcc4>
    4274:	40 50 23 38 	call  140cf54 <_trap_table-0x3f0f30ac>
    4278:	00 00 00 00 	unimp  0
    427c:	44 00 00 34 	call  1000434c <_trap_table-0x304fbcb4>
    4280:	40 50 23 3c 	call  140cf70 <_trap_table-0x3f0f3090>
    4284:	00 00 00 00 	unimp  0
    4288:	44 00 00 35 	call  1000435c <_trap_table-0x304fbca4>
    428c:	40 50 23 40 	call  140cf8c <_trap_table-0x3f0f3074>
    4290:	00 00 00 00 	unimp  0
    4294:	44 00 00 37 	call  10004370 <_trap_table-0x304fbc90>
    4298:	40 50 23 44 	call  140cfa8 <_trap_table-0x3f0f3058>
    429c:	00 00 00 00 	unimp  0
    42a0:	44 00 00 38 	call  10004380 <_trap_table-0x304fbc80>
    42a4:	40 50 23 48 	call  140cfc4 <_trap_table-0x3f0f303c>
    42a8:	00 00 00 00 	unimp  0
    42ac:	44 00 00 3a 	call  10004394 <_trap_table-0x304fbc6c>
    42b0:	40 50 23 4c 	call  140cfe0 <_trap_table-0x3f0f3020>
    42b4:	00 00 00 00 	unimp  0
    42b8:	44 00 00 3b 	call  100043a4 <_trap_table-0x304fbc5c>
    42bc:	40 50 23 50 	call  140cffc <_trap_table-0x3f0f3004>
    42c0:	00 00 00 00 	unimp  0
    42c4:	44 00 00 3d 	call  100043b8 <_trap_table-0x304fbc48>
    42c8:	40 50 23 54 	call  140d018 <_trap_table-0x3f0f2fe8>
    42cc:	00 00 00 00 	unimp  0
    42d0:	44 00 00 3e 	call  100043c8 <_trap_table-0x304fbc38>
    42d4:	40 50 23 58 	call  140d034 <_trap_table-0x3f0f2fcc>
    42d8:	00 00 00 00 	unimp  0
    42dc:	44 00 00 3f 	call  100043d8 <_trap_table-0x304fbc28>
    42e0:	40 50 23 5c 	call  140d050 <_trap_table-0x3f0f2fb0>
    42e4:	00 00 00 00 	unimp  0
    42e8:	44 00 00 40 	call  100043e8 <_trap_table-0x304fbc18>
    42ec:	40 50 23 68 	call  140d08c <_trap_table-0x3f0f2f74>
    42f0:	00 00 00 00 	unimp  0
    42f4:	44 00 00 41 	call  100043f8 <_trap_table-0x304fbc08>
    42f8:	40 50 23 6c 	call  140d0a8 <_trap_table-0x3f0f2f58>
    42fc:	00 00 00 00 	unimp  0
    4300:	44 00 00 42 	call  10004408 <_trap_table-0x304fbbf8>
    4304:	40 50 23 70 	call  140d0c4 <_trap_table-0x3f0f2f3c>
    4308:	00 00 00 00 	unimp  0
    430c:	44 00 00 43 	call  10004418 <_trap_table-0x304fbbe8>
    4310:	40 50 23 74 	call  140d0e0 <_trap_table-0x3f0f2f20>
    4314:	00 00 00 00 	unimp  0
    4318:	44 00 00 44 	call  10004428 <_trap_table-0x304fbbd8>
    431c:	40 50 23 78 	call  140d0fc <_trap_table-0x3f0f2f04>
    4320:	00 00 00 00 	unimp  0
    4324:	44 00 00 45 	call  10004438 <_trap_table-0x304fbbc8>
    4328:	40 50 23 7c 	call  140d118 <_trap_table-0x3f0f2ee8>
    432c:	00 00 00 00 	unimp  0
    4330:	44 00 00 46 	call  10004448 <_trap_table-0x304fbbb8>
    4334:	40 50 23 80 	call  140d134 <_trap_table-0x3f0f2ecc>
    4338:	00 00 00 00 	unimp  0
    433c:	44 00 00 47 	call  10004458 <_trap_table-0x304fbba8>
    4340:	40 50 23 84 	call  140d150 <_trap_table-0x3f0f2eb0>
    4344:	00 00 00 00 	unimp  0
    4348:	44 00 00 48 	call  10004468 <_trap_table-0x304fbb98>
    434c:	40 50 23 88 	call  140d16c <_trap_table-0x3f0f2e94>
    4350:	00 00 00 00 	unimp  0
    4354:	44 00 00 49 	call  10004478 <_trap_table-0x304fbb88>
    4358:	40 50 23 8c 	call  140d188 <_trap_table-0x3f0f2e78>
    435c:	00 00 00 00 	unimp  0
    4360:	44 00 00 4b 	call  1000448c <_trap_table-0x304fbb74>
    4364:	40 50 23 90 	call  140d1a4 <_trap_table-0x3f0f2e5c>
    4368:	00 00 00 00 	unimp  0
    436c:	44 00 00 4c 	call  1000449c <_trap_table-0x304fbb64>
    4370:	40 50 23 94 	call  140d1c0 <_trap_table-0x3f0f2e40>
    4374:	00 00 00 00 	unimp  0
    4378:	44 00 00 4d 	call  100044ac <_trap_table-0x304fbb54>
    437c:	40 50 23 98 	call  140d1dc <_trap_table-0x3f0f2e24>
    4380:	00 00 00 00 	unimp  0
    4384:	44 00 00 50 	call  100044c4 <_trap_table-0x304fbb3c>
    4388:	40 50 23 9c 	call  140d1f8 <_trap_table-0x3f0f2e08>
    438c:	00 00 00 00 	unimp  0
    4390:	44 00 00 51 	call  100044d4 <_trap_table-0x304fbb2c>
    4394:	40 50 23 a0 	call  140d214 <_trap_table-0x3f0f2dec>
    4398:	00 00 00 00 	unimp  0
    439c:	44 00 00 6a 	call  10004544 <_trap_table-0x304fbabc>
    43a0:	40 50 23 a4 	call  140d230 <_trap_table-0x3f0f2dd0>
    43a4:	00 00 00 00 	unimp  0
    43a8:	44 00 00 6b 	call  10004554 <_trap_table-0x304fbaac>
    43ac:	40 50 23 a8 	call  140d24c <_trap_table-0x3f0f2db4>
    43b0:	00 00 00 00 	unimp  0
    43b4:	44 00 00 6d 	call  10004568 <_trap_table-0x304fba98>
    43b8:	40 50 23 ac 	call  140d268 <_trap_table-0x3f0f2d98>
    43bc:	00 00 00 00 	unimp  0
    43c0:	44 00 00 6e 	call  10004578 <_trap_table-0x304fba88>
    43c4:	40 50 23 b0 	call  140d284 <_trap_table-0x3f0f2d7c>
    43c8:	00 00 00 00 	unimp  0
    43cc:	44 00 00 70 	call  1000458c <_trap_table-0x304fba74>
    43d0:	40 50 23 b4 	call  140d2a0 <_trap_table-0x3f0f2d60>
    43d4:	00 00 00 00 	unimp  0
    43d8:	44 00 00 71 	call  1000459c <_trap_table-0x304fba64>
    43dc:	40 50 23 b8 	call  140d2bc <_trap_table-0x3f0f2d44>
    43e0:	00 00 00 00 	unimp  0
    43e4:	44 00 00 72 	call  100045ac <_trap_table-0x304fba54>
    43e8:	40 50 23 bc 	call  140d2d8 <_trap_table-0x3f0f2d28>
    43ec:	00 00 00 00 	unimp  0
    43f0:	44 00 00 73 	call  100045bc <_trap_table-0x304fba44>
    43f4:	40 50 23 c0 	call  140d2f4 <_trap_table-0x3f0f2d0c>
    43f8:	00 00 00 00 	unimp  0
    43fc:	44 00 00 74 	call  100045cc <_trap_table-0x304fba34>
    4400:	40 50 23 cc 	call  140d330 <_trap_table-0x3f0f2cd0>
    4404:	00 00 00 00 	unimp  0
    4408:	44 00 00 75 	call  100045dc <_trap_table-0x304fba24>
    440c:	40 50 23 d0 	call  140d34c <_trap_table-0x3f0f2cb4>
    4410:	00 00 00 00 	unimp  0
    4414:	44 00 00 76 	call  100045ec <_trap_table-0x304fba14>
    4418:	40 50 23 d4 	call  140d368 <_trap_table-0x3f0f2c98>
    441c:	00 00 00 00 	unimp  0
    4420:	44 00 00 77 	call  100045fc <_trap_table-0x304fba04>
    4424:	40 50 23 d8 	call  140d384 <_trap_table-0x3f0f2c7c>
    4428:	00 00 00 00 	unimp  0
    442c:	44 00 00 78 	call  1000460c <_trap_table-0x304fb9f4>
    4430:	40 50 23 dc 	call  140d3a0 <_trap_table-0x3f0f2c60>
    4434:	00 00 00 00 	unimp  0
    4438:	44 00 00 79 	call  1000461c <_trap_table-0x304fb9e4>
    443c:	40 50 23 e0 	call  140d3bc <_trap_table-0x3f0f2c44>
    4440:	00 00 00 00 	unimp  0
    4444:	44 00 00 7a 	call  1000462c <_trap_table-0x304fb9d4>
    4448:	40 50 23 e4 	call  140d3d8 <_trap_table-0x3f0f2c28>
    444c:	00 00 00 00 	unimp  0
    4450:	44 00 00 7b 	call  1000463c <_trap_table-0x304fb9c4>
    4454:	40 50 23 e8 	call  140d3f4 <_trap_table-0x3f0f2c0c>
    4458:	00 00 00 00 	unimp  0
    445c:	44 00 00 7c 	call  1000464c <_trap_table-0x304fb9b4>
    4460:	40 50 23 ec 	call  140d410 <_trap_table-0x3f0f2bf0>
    4464:	00 00 00 00 	unimp  0
    4468:	44 00 00 7d 	call  1000465c <_trap_table-0x304fb9a4>
    446c:	40 50 23 f0 	call  140d42c <_trap_table-0x3f0f2bd4>
    4470:	00 00 00 00 	unimp  0
    4474:	44 00 00 7e 	call  1000466c <_trap_table-0x304fb994>
    4478:	40 50 23 f4 	call  140d448 <_trap_table-0x3f0f2bb8>
    447c:	00 00 00 00 	unimp  0
    4480:	44 00 00 7f 	call  1000467c <_trap_table-0x304fb984>
    4484:	40 50 23 f8 	call  140d464 <_trap_table-0x3f0f2b9c>
    4488:	00 00 00 00 	unimp  0
    448c:	44 00 00 80 	call  1000468c <_trap_table-0x304fb974>
    4490:	40 50 23 fc 	call  140d480 <_trap_table-0x3f0f2b80>
    4494:	00 00 00 00 	unimp  0
    4498:	44 00 00 81 	call  1000469c <_trap_table-0x304fb964>
    449c:	40 50 24 00 	call  140d49c <_trap_table-0x3f0f2b64>
    44a0:	00 00 29 b3 	unimp  0x29b3
    44a4:	64 00 00 00 	call  900044a4 <LEON_REG+0x100044a4>
    44a8:	40 50 24 04 	call  140d4b8 <_trap_table-0x3f0f2b48>
    44ac:	00 00 29 c3 	unimp  0x29c3
    44b0:	84 00 00 00 	add  %g0, %g0, %g2
    44b4:	40 50 24 04 	call  140d4c4 <_trap_table-0x3f0f2b3c>
    44b8:	00 00 00 00 	unimp  0
    44bc:	44 00 00 39 	call  100045a0 <_trap_table-0x304fba60>
    44c0:	40 50 24 04 	call  140d4d0 <_trap_table-0x3f0f2b30>
    44c4:	00 00 00 00 	unimp  0
    44c8:	44 00 00 3c 	call  100045b8 <_trap_table-0x304fba48>
    44cc:	40 50 24 08 	call  140d4ec <_trap_table-0x3f0f2b14>
    44d0:	00 00 00 00 	unimp  0
    44d4:	44 00 00 3f 	call  100045d0 <_trap_table-0x304fba30>
    44d8:	40 50 24 14 	call  140d528 <_trap_table-0x3f0f2ad8>
    44dc:	00 00 00 00 	unimp  0
    44e0:	44 00 00 40 	call  100045e0 <_trap_table-0x304fba20>
    44e4:	40 50 24 18 	call  140d544 <_trap_table-0x3f0f2abc>
    44e8:	00 00 00 00 	unimp  0
    44ec:	44 00 00 42 	call  100045f4 <_trap_table-0x304fba0c>
    44f0:	40 50 24 24 	call  140d580 <_trap_table-0x3f0f2a80>
    44f4:	00 00 00 00 	unimp  0
    44f8:	44 00 00 43 	call  10004604 <_trap_table-0x304fb9fc>
    44fc:	40 50 24 40 	call  140d5fc <_trap_table-0x3f0f2a04>
    4500:	00 00 00 00 	unimp  0
    4504:	44 00 00 46 	call  1000461c <_trap_table-0x304fb9e4>
    4508:	40 50 24 5c 	call  140d678 <_trap_table-0x3f0f2988>
    450c:	00 00 00 00 	unimp  0
    4510:	44 00 00 47 	call  1000462c <_trap_table-0x304fb9d4>
    4514:	40 50 24 60 	call  140d694 <_trap_table-0x3f0f296c>
    4518:	00 00 00 00 	unimp  0
    451c:	44 00 00 48 	call  1000463c <_trap_table-0x304fb9c4>
    4520:	40 50 24 64 	call  140d6b0 <_trap_table-0x3f0f2950>
    4524:	00 00 00 00 	unimp  0
    4528:	44 00 00 49 	call  1000464c <_trap_table-0x304fb9b4>
    452c:	40 50 24 68 	call  140d6cc <_trap_table-0x3f0f2934>
    4530:	00 00 00 00 	unimp  0
    4534:	44 00 00 4c 	call  10004664 <_trap_table-0x304fb99c>
    4538:	40 50 24 6c 	call  140d6e8 <_trap_table-0x3f0f2918>
    453c:	00 00 00 00 	unimp  0
    4540:	44 00 00 52 	call  10004688 <_trap_table-0x304fb978>
    4544:	40 50 24 74 	call  140d714 <_trap_table-0x3f0f28ec>
    4548:	00 00 00 00 	unimp  0
    454c:	44 00 00 53 	call  10004698 <_trap_table-0x304fb968>
    4550:	40 50 24 7c 	call  140d740 <_trap_table-0x3f0f28c0>
    4554:	00 00 00 00 	unimp  0
    4558:	44 00 00 54 	call  100046a8 <_trap_table-0x304fb958>
    455c:	40 50 24 80 	call  140d75c <_trap_table-0x3f0f28a4>
    4560:	00 00 00 00 	unimp  0
    4564:	44 00 00 55 	call  100046b8 <_trap_table-0x304fb948>
    4568:	40 50 24 84 	call  140d778 <_trap_table-0x3f0f2888>
    456c:	00 00 00 00 	unimp  0
    4570:	44 00 00 56 	call  100046c8 <_trap_table-0x304fb938>
    4574:	40 50 24 88 	call  140d794 <_trap_table-0x3f0f286c>
    4578:	00 00 00 00 	unimp  0
    457c:	44 00 00 57 	call  100046d8 <_trap_table-0x304fb928>
    4580:	40 50 24 8c 	call  140d7b0 <_trap_table-0x3f0f2850>
    4584:	00 00 00 00 	unimp  0
    4588:	44 00 00 59 	call  100046ec <_trap_table-0x304fb914>
    458c:	40 50 24 90 	call  140d7cc <_trap_table-0x3f0f2834>
    4590:	00 00 00 00 	unimp  0
    4594:	44 00 00 5b 	call  10004700 <_trap_table-0x304fb900>
    4598:	40 50 24 94 	call  140d7e8 <_trap_table-0x3f0f2818>
    459c:	00 00 00 00 	unimp  0
    45a0:	44 00 00 5c 	call  10004710 <_trap_table-0x304fb8f0>
    45a4:	40 50 24 98 	call  140d804 <_trap_table-0x3f0f27fc>
    45a8:	00 00 00 00 	unimp  0
    45ac:	44 00 00 5d 	call  10004720 <_trap_table-0x304fb8e0>
    45b0:	40 50 24 9c 	call  140d820 <_trap_table-0x3f0f27e0>
    45b4:	00 00 00 00 	unimp  0
    45b8:	44 00 00 5e 	call  10004730 <_trap_table-0x304fb8d0>
    45bc:	40 50 24 a0 	call  140d83c <_trap_table-0x3f0f27c4>
    45c0:	00 00 00 00 	unimp  0
    45c4:	44 00 00 5f 	call  10004740 <_trap_table-0x304fb8c0>
    45c8:	40 50 24 a4 	call  140d858 <_trap_table-0x3f0f27a8>
    45cc:	00 00 00 00 	unimp  0
    45d0:	44 00 00 60 	call  10004750 <_trap_table-0x304fb8b0>
    45d4:	40 50 24 a8 	call  140d874 <_trap_table-0x3f0f278c>
    45d8:	00 00 00 00 	unimp  0
    45dc:	44 00 00 62 	call  10004764 <_trap_table-0x304fb89c>
    45e0:	40 50 24 ac 	call  140d890 <_trap_table-0x3f0f2770>
    45e4:	00 00 00 00 	unimp  0
    45e8:	44 00 00 63 	call  10004774 <_trap_table-0x304fb88c>
    45ec:	40 50 24 b0 	call  140d8ac <_trap_table-0x3f0f2754>
    45f0:	00 00 00 00 	unimp  0
    45f4:	44 00 00 64 	call  10004784 <_trap_table-0x304fb87c>
    45f8:	40 50 24 b4 	call  140d8c8 <_trap_table-0x3f0f2738>
    45fc:	00 00 00 00 	unimp  0
    4600:	44 00 00 65 	call  10004794 <_trap_table-0x304fb86c>
    4604:	40 50 24 b8 	call  140d8e4 <_trap_table-0x3f0f271c>
    4608:	00 00 00 00 	unimp  0
    460c:	44 00 00 68 	call  100047ac <_trap_table-0x304fb854>
    4610:	40 50 24 bc 	call  140d900 <_trap_table-0x3f0f2700>
    4614:	00 00 00 00 	unimp  0
    4618:	44 00 00 69 	call  100047bc <_trap_table-0x304fb844>
    461c:	40 50 24 c0 	call  140d91c <_trap_table-0x3f0f26e4>
    4620:	00 00 00 00 	unimp  0
    4624:	44 00 00 6a 	call  100047cc <_trap_table-0x304fb834>
    4628:	40 50 24 c4 	call  140d938 <_trap_table-0x3f0f26c8>
    462c:	00 00 00 00 	unimp  0
    4630:	44 00 00 6b 	call  100047dc <_trap_table-0x304fb824>
    4634:	40 50 24 c8 	call  140d954 <_trap_table-0x3f0f26ac>
    4638:	00 00 00 00 	unimp  0
    463c:	44 00 00 6f 	call  100047f8 <_trap_table-0x304fb808>
    4640:	40 50 24 cc 	call  140d970 <_trap_table-0x3f0f2690>
    4644:	00 00 00 00 	unimp  0
    4648:	44 00 00 70 	call  10004808 <_trap_table-0x304fb7f8>
    464c:	40 50 24 d0 	call  140d98c <_trap_table-0x3f0f2674>
    4650:	00 00 00 00 	unimp  0
    4654:	44 00 00 71 	call  10004818 <_trap_table-0x304fb7e8>
    4658:	40 50 24 d4 	call  140d9a8 <_trap_table-0x3f0f2658>
    465c:	00 00 00 00 	unimp  0
    4660:	44 00 00 73 	call  1000482c <_trap_table-0x304fb7d4>
    4664:	40 50 24 d8 	call  140d9c4 <_trap_table-0x3f0f263c>
    4668:	00 00 00 00 	unimp  0
    466c:	44 00 00 74 	call  1000483c <_trap_table-0x304fb7c4>
    4670:	40 50 24 dc 	call  140d9e0 <_trap_table-0x3f0f2620>
    4674:	00 00 00 00 	unimp  0
    4678:	44 00 00 75 	call  1000484c <_trap_table-0x304fb7b4>
    467c:	40 50 24 e0 	call  140d9fc <_trap_table-0x3f0f2604>
    4680:	00 00 00 00 	unimp  0
    4684:	44 00 00 78 	call  10004864 <_trap_table-0x304fb79c>
    4688:	40 50 24 e4 	call  140da18 <_trap_table-0x3f0f25e8>
    468c:	00 00 00 00 	unimp  0
    4690:	44 00 00 79 	call  10004874 <_trap_table-0x304fb78c>
    4694:	40 50 24 e8 	call  140da34 <_trap_table-0x3f0f25cc>
    4698:	00 00 00 00 	unimp  0
    469c:	44 00 00 7a 	call  10004884 <_trap_table-0x304fb77c>
    46a0:	40 50 24 ec 	call  140da50 <_trap_table-0x3f0f25b0>
    46a4:	00 00 00 00 	unimp  0
    46a8:	44 00 00 7b 	call  10004894 <_trap_table-0x304fb76c>
    46ac:	40 50 24 f0 	call  140da6c <_trap_table-0x3f0f2594>
    46b0:	00 00 00 00 	unimp  0
    46b4:	44 00 00 7f 	call  100048b0 <_trap_table-0x304fb750>
    46b8:	40 50 24 f4 	call  140da88 <_trap_table-0x3f0f2578>
    46bc:	00 00 00 00 	unimp  0
    46c0:	44 00 00 80 	call  100048c0 <_trap_table-0x304fb740>
    46c4:	40 50 24 f8 	call  140daa4 <_trap_table-0x3f0f255c>
    46c8:	00 00 00 00 	unimp  0
    46cc:	44 00 00 81 	call  100048d0 <_trap_table-0x304fb730>
    46d0:	40 50 24 fc 	call  140dac0 <_trap_table-0x3f0f2540>
    46d4:	00 00 00 00 	unimp  0
    46d8:	44 00 00 82 	call  100048e0 <_trap_table-0x304fb720>
    46dc:	40 50 25 00 	call  140dadc <_trap_table-0x3f0f2524>
    46e0:	00 00 00 00 	unimp  0
    46e4:	44 00 00 84 	call  100048f4 <_trap_table-0x304fb70c>
    46e8:	40 50 25 04 	call  140daf8 <_trap_table-0x3f0f2508>
    46ec:	00 00 00 00 	unimp  0
    46f0:	44 00 00 86 	call  10004908 <_trap_table-0x304fb6f8>
    46f4:	40 50 25 08 	call  140db14 <_trap_table-0x3f0f24ec>
    46f8:	00 00 00 00 	unimp  0
    46fc:	44 00 00 87 	call  10004918 <_trap_table-0x304fb6e8>
    4700:	40 50 25 10 	call  140db40 <_trap_table-0x3f0f24c0>
    4704:	00 00 00 00 	unimp  0
    4708:	44 00 00 88 	call  10004928 <_trap_table-0x304fb6d8>
    470c:	40 50 25 14 	call  140db5c <_trap_table-0x3f0f24a4>
    4710:	00 00 00 00 	unimp  0
    4714:	44 00 00 89 	call  10004938 <_trap_table-0x304fb6c8>
    4718:	40 50 25 18 	call  140db78 <_trap_table-0x3f0f2488>
    471c:	00 00 00 00 	unimp  0
    4720:	44 00 00 8a 	call  10004948 <_trap_table-0x304fb6b8>
    4724:	40 50 25 1c 	call  140db94 <_trap_table-0x3f0f246c>
    4728:	00 00 00 00 	unimp  0
    472c:	44 00 00 8b 	call  10004958 <_trap_table-0x304fb6a8>
    4730:	40 50 25 20 	call  140dbb0 <_trap_table-0x3f0f2450>
    4734:	00 00 00 00 	unimp  0
    4738:	44 00 00 8f 	call  10004974 <_trap_table-0x304fb68c>
    473c:	40 50 25 24 	call  140dbcc <_trap_table-0x3f0f2434>
    4740:	00 00 00 00 	unimp  0
    4744:	44 00 00 90 	call  10004984 <_trap_table-0x304fb67c>
    4748:	40 50 25 28 	call  140dbe8 <_trap_table-0x3f0f2418>
    474c:	00 00 00 00 	unimp  0
    4750:	44 00 00 91 	call  10004994 <_trap_table-0x304fb66c>
    4754:	40 50 25 2c 	call  140dc04 <_trap_table-0x3f0f23fc>
    4758:	00 00 00 00 	unimp  0
    475c:	44 00 00 92 	call  100049a4 <_trap_table-0x304fb65c>
    4760:	40 50 25 30 	call  140dc20 <_trap_table-0x3f0f23e0>
    4764:	00 00 00 00 	unimp  0
    4768:	44 00 00 94 	call  100049b8 <_trap_table-0x304fb648>
    476c:	40 50 25 34 	call  140dc3c <_trap_table-0x3f0f23c4>
    4770:	00 00 00 00 	unimp  0
    4774:	44 00 00 95 	call  100049c8 <_trap_table-0x304fb638>
    4778:	40 50 25 38 	call  140dc58 <_trap_table-0x3f0f23a8>
    477c:	00 00 00 00 	unimp  0
    4780:	44 00 00 a2 	call  10004a08 <_trap_table-0x304fb5f8>
    4784:	40 50 25 3c 	call  140dc74 <_trap_table-0x3f0f238c>
    4788:	00 00 00 00 	unimp  0
    478c:	44 00 00 a3 	call  10004a18 <_trap_table-0x304fb5e8>
    4790:	40 50 25 40 	call  140dc90 <_trap_table-0x3f0f2370>
    4794:	00 00 00 00 	unimp  0
    4798:	44 00 00 a4 	call  10004a28 <_trap_table-0x304fb5d8>
    479c:	40 50 25 44 	call  140dcac <_trap_table-0x3f0f2354>
    47a0:	00 00 00 00 	unimp  0
    47a4:	44 00 00 a5 	call  10004a38 <_trap_table-0x304fb5c8>
    47a8:	40 50 25 50 	call  140dce8 <_trap_table-0x3f0f2318>
    47ac:	00 00 00 00 	unimp  0
    47b0:	44 00 00 a6 	call  10004a48 <_trap_table-0x304fb5b8>
    47b4:	40 50 25 54 	call  140dd04 <_trap_table-0x3f0f22fc>
    47b8:	00 00 00 00 	unimp  0
    47bc:	44 00 00 c9 	call  10004ae0 <_trap_table-0x304fb520>
    47c0:	40 50 25 58 	call  140dd20 <_trap_table-0x3f0f22e0>
    47c4:	00 00 00 00 	unimp  0
    47c8:	44 00 00 ca 	call  10004af0 <_trap_table-0x304fb510>
    47cc:	40 50 25 5c 	call  140dd3c <_trap_table-0x3f0f22c4>
    47d0:	00 00 00 00 	unimp  0
    47d4:	44 00 00 cb 	call  10004b00 <_trap_table-0x304fb500>
    47d8:	40 50 25 60 	call  140dd58 <_trap_table-0x3f0f22a8>
    47dc:	00 00 00 00 	unimp  0
    47e0:	44 00 00 cc 	call  10004b10 <_trap_table-0x304fb4f0>
    47e4:	40 50 25 64 	call  140dd74 <_trap_table-0x3f0f228c>
    47e8:	00 00 00 00 	unimp  0
    47ec:	44 00 00 cd 	call  10004b20 <_trap_table-0x304fb4e0>
    47f0:	40 50 25 68 	call  140dd90 <_trap_table-0x3f0f2270>
    47f4:	00 00 00 00 	unimp  0
    47f8:	44 00 00 ce 	call  10004b30 <_trap_table-0x304fb4d0>
    47fc:	40 50 25 6c 	call  140ddac <_trap_table-0x3f0f2254>
    4800:	00 00 00 00 	unimp  0
    4804:	44 00 00 d0 	call  10004b44 <_trap_table-0x304fb4bc>
    4808:	40 50 25 70 	call  140ddc8 <_trap_table-0x3f0f2238>
    480c:	00 00 00 00 	unimp  0
    4810:	44 00 00 d1 	call  10004b54 <_trap_table-0x304fb4ac>
    4814:	40 50 25 74 	call  140dde4 <_trap_table-0x3f0f221c>
    4818:	00 00 00 00 	unimp  0
    481c:	44 00 00 d2 	call  10004b64 <_trap_table-0x304fb49c>
    4820:	40 50 25 78 	call  140de00 <_trap_table-0x3f0f2200>
    4824:	00 00 00 00 	unimp  0
    4828:	44 00 00 d3 	call  10004b74 <_trap_table-0x304fb48c>
    482c:	40 50 25 7c 	call  140de1c <_trap_table-0x3f0f21e4>
    4830:	00 00 00 00 	unimp  0
    4834:	44 00 00 d4 	call  10004b84 <_trap_table-0x304fb47c>
    4838:	40 50 25 80 	call  140de38 <_trap_table-0x3f0f21c8>
    483c:	00 00 00 00 	unimp  0
    4840:	44 00 00 d5 	call  10004b94 <_trap_table-0x304fb46c>
    4844:	40 50 25 84 	call  140de54 <_trap_table-0x3f0f21ac>
    4848:	00 00 00 00 	unimp  0
    484c:	44 00 00 d6 	call  10004ba4 <_trap_table-0x304fb45c>
    4850:	40 50 25 88 	call  140de70 <_trap_table-0x3f0f2190>
    4854:	00 00 00 00 	unimp  0
    4858:	44 00 00 d8 	call  10004bb8 <_trap_table-0x304fb448>
    485c:	40 50 25 8c 	call  140de8c <_trap_table-0x3f0f2174>
    4860:	00 00 00 00 	unimp  0
    4864:	44 00 00 d9 	call  10004bc8 <_trap_table-0x304fb438>
    4868:	40 50 25 90 	call  140dea8 <_trap_table-0x3f0f2158>
    486c:	00 00 00 00 	unimp  0
    4870:	44 00 00 db 	call  10004bdc <_trap_table-0x304fb424>
    4874:	40 50 25 94 	call  140dec4 <_trap_table-0x3f0f213c>
    4878:	00 00 00 00 	unimp  0
    487c:	44 00 00 dc 	call  10004bec <_trap_table-0x304fb414>
    4880:	40 50 25 98 	call  140dee0 <_trap_table-0x3f0f2120>
    4884:	00 00 00 00 	unimp  0
    4888:	44 00 00 dd 	call  10004bfc <_trap_table-0x304fb404>
    488c:	40 50 25 9c 	call  140defc <_trap_table-0x3f0f2104>
    4890:	00 00 00 00 	unimp  0
    4894:	44 00 00 de 	call  10004c0c <_trap_table-0x304fb3f4>
    4898:	40 50 25 a0 	call  140df18 <_trap_table-0x3f0f20e8>
    489c:	00 00 00 00 	unimp  0
    48a0:	44 00 00 df 	call  10004c1c <_trap_table-0x304fb3e4>
    48a4:	40 50 25 ac 	call  140df54 <_trap_table-0x3f0f20ac>
    48a8:	00 00 00 00 	unimp  0
    48ac:	44 00 00 e2 	call  10004c34 <_trap_table-0x304fb3cc>
    48b0:	40 50 25 b0 	call  140df70 <_trap_table-0x3f0f2090>
    48b4:	00 00 00 00 	unimp  0
    48b8:	44 00 00 e3 	call  10004c44 <_trap_table-0x304fb3bc>
    48bc:	40 50 25 b4 	call  140df8c <_trap_table-0x3f0f2074>
    48c0:	00 00 00 00 	unimp  0
    48c4:	44 00 00 e5 	call  10004c58 <_trap_table-0x304fb3a8>
    48c8:	40 50 25 b8 	call  140dfa8 <_trap_table-0x3f0f2058>
    48cc:	00 00 00 00 	unimp  0
    48d0:	44 00 00 e6 	call  10004c68 <_trap_table-0x304fb398>
    48d4:	40 50 25 bc 	call  140dfc4 <_trap_table-0x3f0f203c>
    48d8:	00 00 00 00 	unimp  0
    48dc:	44 00 00 e7 	call  10004c78 <_trap_table-0x304fb388>
    48e0:	40 50 25 c0 	call  140dfe0 <_trap_table-0x3f0f2020>
    48e4:	00 00 00 00 	unimp  0
    48e8:	44 00 00 e8 	call  10004c88 <_trap_table-0x304fb378>
    48ec:	40 50 25 c4 	call  140dffc <_trap_table-0x3f0f2004>
    48f0:	00 00 00 00 	unimp  0
    48f4:	44 00 00 e9 	call  10004c98 <_trap_table-0x304fb368>
    48f8:	40 50 25 d0 	call  140e038 <_trap_table-0x3f0f1fc8>
    48fc:	00 00 00 00 	unimp  0
    4900:	44 00 00 ec 	call  10004cb0 <_trap_table-0x304fb350>
    4904:	40 50 25 d4 	call  140e054 <_trap_table-0x3f0f1fac>
    4908:	00 00 00 00 	unimp  0
    490c:	44 00 00 ed 	call  10004cc0 <_trap_table-0x304fb340>
    4910:	40 50 25 d8 	call  140e070 <_trap_table-0x3f0f1f90>
    4914:	00 00 00 00 	unimp  0
    4918:	44 00 00 ee 	call  10004cd0 <_trap_table-0x304fb330>
    491c:	40 50 25 dc 	call  140e08c <_trap_table-0x3f0f1f74>
    4920:	00 00 00 00 	unimp  0
    4924:	44 00 00 f0 	call  10004ce4 <_trap_table-0x304fb31c>
    4928:	40 50 25 e0 	call  140e0a8 <_trap_table-0x3f0f1f58>
    492c:	00 00 00 00 	unimp  0
    4930:	44 00 00 f3 	call  10004cfc <_trap_table-0x304fb304>
    4934:	40 50 25 e4 	call  140e0c4 <_trap_table-0x3f0f1f3c>
    4938:	00 00 00 00 	unimp  0
    493c:	44 00 00 f5 	call  10004d10 <_trap_table-0x304fb2f0>
    4940:	40 50 25 e8 	call  140e0e0 <_trap_table-0x3f0f1f20>
    4944:	00 00 00 00 	unimp  0
    4948:	44 00 00 f6 	call  10004d20 <_trap_table-0x304fb2e0>
    494c:	40 50 25 ec 	call  140e0fc <_trap_table-0x3f0f1f04>
    4950:	00 00 00 00 	unimp  0
    4954:	44 00 00 fd 	call  10004d48 <_trap_table-0x304fb2b8>
    4958:	40 50 25 f0 	call  140e118 <_trap_table-0x3f0f1ee8>
    495c:	00 00 00 00 	unimp  0
    4960:	44 00 00 fe 	call  10004d58 <_trap_table-0x304fb2a8>
    4964:	40 50 25 f4 	call  140e134 <_trap_table-0x3f0f1ecc>
    4968:	00 00 00 00 	unimp  0
    496c:	44 00 00 ff 	call  10004d68 <_trap_table-0x304fb298>
    4970:	40 50 25 f8 	call  140e150 <_trap_table-0x3f0f1eb0>
    4974:	00 00 00 00 	unimp  0
    4978:	44 00 01 06 	call  10004d90 <_trap_table-0x304fb270>
    497c:	40 50 25 fc 	call  140e16c <_trap_table-0x3f0f1e94>
    4980:	00 00 00 00 	unimp  0
    4984:	44 00 01 07 	call  10004da0 <_trap_table-0x304fb260>
    4988:	40 50 26 00 	call  140e188 <_trap_table-0x3f0f1e78>
    498c:	00 00 00 00 	unimp  0
    4990:	44 00 01 08 	call  10004db0 <_trap_table-0x304fb250>
    4994:	40 50 26 04 	call  140e1a4 <_trap_table-0x3f0f1e5c>
    4998:	00 00 00 00 	unimp  0
    499c:	44 00 01 0f 	call  10004dd8 <_trap_table-0x304fb228>
    49a0:	40 50 26 08 	call  140e1c0 <_trap_table-0x3f0f1e40>
    49a4:	00 00 00 00 	unimp  0
    49a8:	44 00 01 10 	call  10004de8 <_trap_table-0x304fb218>
    49ac:	40 50 26 0c 	call  140e1dc <_trap_table-0x3f0f1e24>
    49b0:	00 00 00 00 	unimp  0
    49b4:	44 00 01 11 	call  10004df8 <_trap_table-0x304fb208>
    49b8:	40 50 26 10 	call  140e1f8 <_trap_table-0x3f0f1e08>
    49bc:	00 00 29 fe 	unimp  0x29fe
    49c0:	64 00 00 00 	call  900049c0 <LEON_REG+0x100049c0>
    49c4:	40 50 26 14 	call  140e214 <_trap_table-0x3f0f1dec>
    49c8:	00 00 2a 0e 	unimp  0x2a0e
    49cc:	84 00 00 00 	add  %g0, %g0, %g2
    49d0:	40 50 26 14 	call  140e220 <_trap_table-0x3f0f1de0>
    49d4:	00 00 00 00 	unimp  0
    49d8:	44 00 00 20 	call  10004a58 <_trap_table-0x304fb5a8>
    49dc:	40 50 26 14 	call  140e22c <_trap_table-0x3f0f1dd4>
    49e0:	00 00 00 00 	unimp  0
    49e4:	44 00 00 21 	call  10004a68 <_trap_table-0x304fb598>
    49e8:	40 50 26 18 	call  140e248 <_trap_table-0x3f0f1db8>
    49ec:	00 00 00 00 	unimp  0
    49f0:	44 00 00 29 	call  10004a94 <_trap_table-0x304fb56c>
    49f4:	40 50 26 1c 	call  140e264 <_trap_table-0x3f0f1d9c>
    49f8:	00 00 00 00 	unimp  0
    49fc:	44 00 00 2a 	call  10004aa4 <_trap_table-0x304fb55c>
    4a00:	40 50 26 20 	call  140e280 <_trap_table-0x3f0f1d80>
    4a04:	00 00 00 00 	unimp  0
    4a08:	44 00 00 32 	call  10004ad0 <_trap_table-0x304fb530>
    4a0c:	40 50 26 24 	call  140e29c <_trap_table-0x3f0f1d64>
    4a10:	00 00 00 00 	unimp  0
    4a14:	44 00 00 33 	call  10004ae0 <_trap_table-0x304fb520>
    4a18:	40 50 26 28 	call  140e2b8 <_trap_table-0x3f0f1d48>
    4a1c:	00 00 2a 44 	unimp  0x2a44
    4a20:	64 00 00 00 	call  90004a20 <LEON_REG+0x10004a20>
    4a24:	40 50 26 2c 	call  140e2d4 <_trap_table-0x3f0f1d2c>
    4a28:	00 00 2a 54 	unimp  0x2a54
    4a2c:	84 00 00 00 	add  %g0, %g0, %g2
    4a30:	40 50 26 2c 	call  140e2e0 <_trap_table-0x3f0f1d20>
    4a34:	00 00 00 00 	unimp  0
    4a38:	44 00 00 1f 	call  10004ab4 <_trap_table-0x304fb54c>
    4a3c:	40 50 26 2c 	call  140e2ec <_trap_table-0x3f0f1d14>
    4a40:	00 00 00 00 	unimp  0
    4a44:	44 00 00 20 	call  10004ac4 <_trap_table-0x304fb53c>
    4a48:	40 50 26 30 	call  140e308 <_trap_table-0x3f0f1cf8>
    4a4c:	00 00 00 00 	unimp  0
    4a50:	44 00 00 23 	call  10004adc <_trap_table-0x304fb524>
    4a54:	40 50 26 34 	call  140e324 <_trap_table-0x3f0f1cdc>
    4a58:	00 00 00 00 	unimp  0
    4a5c:	44 00 00 24 	call  10004aec <_trap_table-0x304fb514>
    4a60:	40 50 26 38 	call  140e340 <_trap_table-0x3f0f1cc0>
    4a64:	00 00 00 00 	unimp  0
    4a68:	44 00 00 26 	call  10004b00 <_trap_table-0x304fb500>
    4a6c:	40 50 26 3c 	call  140e35c <_trap_table-0x3f0f1ca4>
    4a70:	00 00 00 00 	unimp  0
    4a74:	44 00 00 2a 	call  10004b1c <_trap_table-0x304fb4e4>
    4a78:	40 50 26 50 	call  140e3b8 <_trap_table-0x3f0f1c48>
    4a7c:	00 00 00 00 	unimp  0
    4a80:	44 00 00 2b 	call  10004b2c <_trap_table-0x304fb4d4>
    4a84:	40 50 26 58 	call  140e3e4 <_trap_table-0x3f0f1c1c>
    4a88:	00 00 00 00 	unimp  0
    4a8c:	44 00 00 2c 	call  10004b3c <_trap_table-0x304fb4c4>
    4a90:	40 50 26 5c 	call  140e400 <_trap_table-0x3f0f1c00>
    4a94:	00 00 00 00 	unimp  0
    4a98:	44 00 00 2d 	call  10004b4c <_trap_table-0x304fb4b4>
    4a9c:	40 50 26 60 	call  140e41c <_trap_table-0x3f0f1be4>
    4aa0:	00 00 00 00 	unimp  0
    4aa4:	44 00 00 34 	call  10004b74 <_trap_table-0x304fb48c>
    4aa8:	40 50 26 64 	call  140e438 <_trap_table-0x3f0f1bc8>
    4aac:	00 00 00 00 	unimp  0
    4ab0:	44 00 00 35 	call  10004b84 <_trap_table-0x304fb47c>
    4ab4:	40 50 26 68 	call  140e454 <_trap_table-0x3f0f1bac>
    4ab8:	00 00 00 00 	unimp  0
    4abc:	44 00 00 36 	call  10004b94 <_trap_table-0x304fb46c>
    4ac0:	40 50 26 6c 	call  140e470 <_trap_table-0x3f0f1b90>
    4ac4:	00 00 00 00 	unimp  0
    4ac8:	44 00 00 37 	call  10004ba4 <_trap_table-0x304fb45c>
    4acc:	40 50 26 74 	call  140e49c <_trap_table-0x3f0f1b64>
    4ad0:	00 00 00 00 	unimp  0
    4ad4:	44 00 00 38 	call  10004bb4 <_trap_table-0x304fb44c>
    4ad8:	40 50 26 78 	call  140e4b8 <_trap_table-0x3f0f1b48>
    4adc:	00 00 00 00 	unimp  0
    4ae0:	44 00 00 39 	call  10004bc4 <_trap_table-0x304fb43c>
    4ae4:	40 50 26 7c 	call  140e4d4 <_trap_table-0x3f0f1b2c>
    4ae8:	00 00 00 00 	unimp  0
    4aec:	44 00 00 3a 	call  10004bd4 <_trap_table-0x304fb42c>
    4af0:	40 50 26 80 	call  140e4f0 <_trap_table-0x3f0f1b10>
    4af4:	00 00 00 00 	unimp  0
    4af8:	44 00 00 3c 	call  10004be8 <_trap_table-0x304fb418>
    4afc:	40 50 26 84 	call  140e50c <_trap_table-0x3f0f1af4>
    4b00:	00 00 00 00 	unimp  0
    4b04:	44 00 00 3d 	call  10004bf8 <_trap_table-0x304fb408>
    4b08:	40 50 26 88 	call  140e528 <_trap_table-0x3f0f1ad8>
    4b0c:	00 00 00 00 	unimp  0
    4b10:	44 00 00 40 	call  10004c10 <_trap_table-0x304fb3f0>
    4b14:	40 50 26 94 	call  140e564 <_trap_table-0x3f0f1a9c>
    4b18:	00 00 00 00 	unimp  0
    4b1c:	44 00 00 41 	call  10004c20 <_trap_table-0x304fb3e0>
    4b20:	40 50 26 98 	call  140e580 <_trap_table-0x3f0f1a80>
    4b24:	00 00 00 00 	unimp  0
    4b28:	44 00 00 45 	call  10004c3c <_trap_table-0x304fb3c4>
    4b2c:	40 50 26 9c 	call  140e59c <_trap_table-0x3f0f1a64>
    4b30:	00 00 00 00 	unimp  0
    4b34:	44 00 00 48 	call  10004c54 <_trap_table-0x304fb3ac>
    4b38:	40 50 26 a0 	call  140e5b8 <_trap_table-0x3f0f1a48>
    4b3c:	00 00 00 00 	unimp  0
    4b40:	44 00 00 49 	call  10004c64 <_trap_table-0x304fb39c>
    4b44:	40 50 26 a4 	call  140e5d4 <_trap_table-0x3f0f1a2c>
    4b48:	00 00 00 00 	unimp  0
    4b4c:	44 00 00 4a 	call  10004c74 <_trap_table-0x304fb38c>
    4b50:	40 50 26 a8 	call  140e5f0 <_trap_table-0x3f0f1a10>
    4b54:	00 00 00 00 	unimp  0
    4b58:	44 00 00 4c 	call  10004c88 <_trap_table-0x304fb378>
    4b5c:	40 50 26 b4 	call  140e62c <_trap_table-0x3f0f19d4>
    4b60:	00 00 00 00 	unimp  0
    4b64:	44 00 00 4d 	call  10004c98 <_trap_table-0x304fb368>
    4b68:	40 50 26 bc 	call  140e658 <_trap_table-0x3f0f19a8>
    4b6c:	00 00 00 00 	unimp  0
    4b70:	44 00 00 4e 	call  10004ca8 <_trap_table-0x304fb358>
    4b74:	40 50 26 c0 	call  140e674 <_trap_table-0x3f0f198c>
    4b78:	00 00 00 00 	unimp  0
    4b7c:	44 00 00 4f 	call  10004cb8 <_trap_table-0x304fb348>
    4b80:	40 50 26 c4 	call  140e690 <_trap_table-0x3f0f1970>
    4b84:	00 00 00 00 	unimp  0
    4b88:	44 00 00 51 	call  10004ccc <_trap_table-0x304fb334>
    4b8c:	40 50 26 c8 	call  140e6ac <_trap_table-0x3f0f1954>
    4b90:	00 00 27 b1 	unimp  0x27b1
    4b94:	64 00 00 00 	call  90004b94 <LEON_REG+0x10004b94>
    4b98:	40 50 26 d0 	call  140e6d8 <_trap_table-0x3f0f1928>
    4b9c:	00 00 2a 90 	unimp  0x2a90
    4ba0:	64 00 00 00 	call  90004ba0 <LEON_REG+0x10004ba0>
    4ba4:	40 50 26 d0 	call  140e6e4 <_trap_table-0x3f0f191c>
    4ba8:	00 00 01 23 	unimp  0x123
    4bac:	3c 00 00 00 	unknown
    4bb0:	00 00 00 00 	unimp  0
    4bb4:	00 00 01 32 	unimp  0x132
    4bb8:	80 00 00 00 	add  %g0, %g0, %g0
    4bbc:	00 00 00 00 	unimp  0
    4bc0:	00 00 01 5c 	unimp  0x15c
    4bc4:	80 00 00 00 	add  %g0, %g0, %g0
    4bc8:	00 00 00 00 	unimp  0
    4bcc:	00 00 01 76 	unimp  0x176
    4bd0:	80 00 00 00 	add  %g0, %g0, %g0
    4bd4:	00 00 00 00 	unimp  0
    4bd8:	00 00 01 a5 	unimp  0x1a5
    4bdc:	80 00 00 00 	add  %g0, %g0, %g0
    4be0:	00 00 00 00 	unimp  0
    4be4:	00 00 01 dd 	unimp  0x1dd
    4be8:	80 00 00 00 	add  %g0, %g0, %g0
    4bec:	00 00 00 00 	unimp  0
    4bf0:	00 00 02 1a 	unimp  0x21a
    4bf4:	80 00 00 00 	add  %g0, %g0, %g0
    4bf8:	00 00 00 00 	unimp  0
    4bfc:	00 00 02 6b 	unimp  0x26b
    4c00:	80 00 00 00 	add  %g0, %g0, %g0
    4c04:	00 00 00 00 	unimp  0
    4c08:	00 00 02 bc 	unimp  0x2bc
    4c0c:	80 00 00 00 	add  %g0, %g0, %g0
    4c10:	00 00 00 00 	unimp  0
    4c14:	00 00 02 e7 	unimp  0x2e7
    4c18:	80 00 00 00 	add  %g0, %g0, %g0
    4c1c:	00 00 00 00 	unimp  0
    4c20:	00 00 03 16 	unimp  0x316
    4c24:	80 00 00 00 	add  %g0, %g0, %g0
    4c28:	00 00 00 00 	unimp  0
    4c2c:	00 00 03 40 	unimp  0x340
    4c30:	80 00 00 00 	add  %g0, %g0, %g0
    4c34:	00 00 00 00 	unimp  0
    4c38:	00 00 03 69 	unimp  0x369
    4c3c:	80 00 00 00 	add  %g0, %g0, %g0
    4c40:	00 00 00 00 	unimp  0
    4c44:	00 00 03 83 	unimp  0x383
    4c48:	80 00 00 00 	add  %g0, %g0, %g0
    4c4c:	00 00 00 00 	unimp  0
    4c50:	00 00 03 9e 	unimp  0x39e
    4c54:	80 00 00 00 	add  %g0, %g0, %g0
    4c58:	00 00 00 00 	unimp  0
    4c5c:	00 00 03 be 	unimp  0x3be
    4c60:	80 00 00 00 	add  %g0, %g0, %g0
    4c64:	00 00 00 00 	unimp  0
    4c68:	00 00 03 f7 	unimp  0x3f7
    4c6c:	80 00 00 00 	add  %g0, %g0, %g0
    4c70:	00 00 00 00 	unimp  0
    4c74:	00 00 04 15 	unimp  0x415
    4c78:	80 00 00 00 	add  %g0, %g0, %g0
    4c7c:	00 00 00 00 	unimp  0
    4c80:	00 00 04 35 	unimp  0x435
    4c84:	80 00 00 00 	add  %g0, %g0, %g0
    4c88:	00 00 00 00 	unimp  0
    4c8c:	00 00 04 5a 	unimp  0x45a
    4c90:	80 00 00 00 	add  %g0, %g0, %g0
    4c94:	00 00 00 00 	unimp  0
    4c98:	00 00 04 6e 	unimp  0x46e
    4c9c:	80 00 00 00 	add  %g0, %g0, %g0
    4ca0:	00 00 00 00 	unimp  0
    4ca4:	00 00 04 90 	unimp  0x490
    4ca8:	80 00 00 00 	add  %g0, %g0, %g0
    4cac:	00 00 00 00 	unimp  0
    4cb0:	00 00 2a cf 	unimp  0x2acf
    4cb4:	82 00 00 00 	add  %g0, %g0, %g1
    4cb8:	00 00 9b c6 	unimp  0x9bc6
    4cbc:	00 00 2b 00 	unimp  0x2b00
    4cc0:	80 00 00 00 	add  %g0, %g0, %g0
    4cc4:	00 00 00 00 	unimp  0
    4cc8:	00 00 2b a5 	unimp  0x2ba5
    4ccc:	80 00 00 00 	add  %g0, %g0, %g0
    4cd0:	00 00 00 00 	unimp  0
    4cd4:	00 00 2c ac 	unimp  0x2cac
    4cd8:	80 00 00 00 	add  %g0, %g0, %g0
    4cdc:	00 00 00 00 	unimp  0
    4ce0:	00 00 2c f3 	unimp  0x2cf3
    4ce4:	80 00 00 00 	add  %g0, %g0, %g0
	...
    4cf0:	a2 00 00 00 	add  %g0, %g0, %l1
    4cf4:	00 00 00 00 	unimp  0
    4cf8:	00 00 2d 66 	unimp  0x2d66
    4cfc:	82 00 00 00 	add  %g0, %g0, %g1
    4d00:	00 00 75 d6 	unimp  0x75d6
    4d04:	00 00 2d 91 	unimp  0x2d91
    4d08:	82 00 00 00 	add  %g0, %g0, %g1
    4d0c:	00 01 41 af 	unimp  0x141af
    4d10:	00 00 2d bd 	unimp  0x2dbd
    4d14:	82 00 00 00 	add  %g0, %g0, %g1
    4d18:	00 01 83 d6 	unimp  0x183d6
    4d1c:	00 00 2d e9 	unimp  0x2de9
    4d20:	80 00 01 23 	unknown
    4d24:	00 00 00 00 	unimp  0
    4d28:	00 00 2f 9e 	unimp  0x2f9e
    4d2c:	80 00 01 2b 	unknown
    4d30:	00 00 00 00 	unimp  0
    4d34:	00 00 30 0f 	unimp  0x300f
    4d38:	80 00 01 34 	unknown
    4d3c:	00 00 00 00 	unimp  0
    4d40:	00 00 30 7f 	unimp  0x307f
    4d44:	80 00 01 3d 	unknown
    4d48:	00 00 00 00 	unimp  0
    4d4c:	00 00 31 28 	unimp  0x3128
    4d50:	80 00 01 4b 	unknown
    4d54:	00 00 00 00 	unimp  0
    4d58:	00 00 31 c5 	unimp  0x31c5
    4d5c:	80 00 00 00 	add  %g0, %g0, %g0
    4d60:	00 00 00 00 	unimp  0
    4d64:	00 00 32 4d 	unimp  0x324d
    4d68:	80 00 01 57 	unknown
    4d6c:	00 00 00 00 	unimp  0
    4d70:	00 00 32 6e 	unimp  0x326e
    4d74:	80 00 00 00 	add  %g0, %g0, %g0
    4d78:	00 00 00 00 	unimp  0
    4d7c:	00 00 32 e5 	unimp  0x32e5
    4d80:	80 00 01 5e 	unknown
    4d84:	00 00 00 00 	unimp  0
    4d88:	00 00 33 07 	unimp  0x3307
    4d8c:	80 00 00 00 	add  %g0, %g0, %g0
    4d90:	00 00 00 00 	unimp  0
    4d94:	00 00 33 44 	unimp  0x3344
    4d98:	80 00 01 67 	unknown
    4d9c:	00 00 00 00 	unimp  0
    4da0:	00 00 33 63 	unimp  0x3363
    4da4:	80 00 00 00 	add  %g0, %g0, %g0
    4da8:	00 00 00 00 	unimp  0
    4dac:	00 00 33 b6 	unimp  0x33b6
    4db0:	80 00 01 6e 	unknown
	...
    4dbc:	a2 00 00 00 	add  %g0, %g0, %l1
    4dc0:	00 00 00 00 	unimp  0
    4dc4:	00 00 33 d5 	unimp  0x33d5
    4dc8:	80 00 00 00 	add  %g0, %g0, %g0
    4dcc:	00 00 00 00 	unimp  0
    4dd0:	00 00 37 85 	unimp  0x3785
    4dd4:	80 00 00 86 	unknown
	...
    4de0:	a2 00 00 00 	add  %g0, %g0, %l1
    4de4:	00 00 00 00 	unimp  0
    4de8:	00 00 38 6b 	unimp  0x386b
    4dec:	80 00 00 0c 	add  %g0, %o4, %g0
    4df0:	00 00 00 00 	unimp  0
    4df4:	00 00 38 91 	unimp  0x3891
    4df8:	80 00 00 00 	add  %g0, %g0, %g0
    4dfc:	00 00 00 00 	unimp  0
    4e00:	00 00 38 ff 	unimp  0x38ff
    4e04:	80 00 00 00 	add  %g0, %g0, %g0
    4e08:	00 00 00 00 	unimp  0
    4e0c:	00 00 39 3d 	unimp  0x393d
    4e10:	80 00 00 1e 	add  %g0, %fp, %g0
    4e14:	00 00 00 00 	unimp  0
    4e18:	00 00 39 6a 	unimp  0x396a
    4e1c:	80 00 00 20 	unknown
    4e20:	00 00 00 00 	unimp  0
    4e24:	00 00 39 87 	unimp  0x3987
    4e28:	80 00 00 3a 	unknown
    4e2c:	00 00 00 00 	unimp  0
    4e30:	00 00 39 b4 	unimp  0x39b4
    4e34:	80 00 00 00 	add  %g0, %g0, %g0
	...
    4e40:	a2 00 00 00 	add  %g0, %g0, %l1
    4e44:	00 00 00 00 	unimp  0
    4e48:	00 00 3a 44 	unimp  0x3a44
    4e4c:	24 00 00 34 	unknown
    4e50:	40 50 26 d0 	call  140e990 <_trap_table-0x3f0f1670>
    4e54:	00 00 3a 64 	unimp  0x3a64
    4e58:	40 00 00 34 	call  4f28 <_trap_table-0x404fb0d8>
    4e5c:	00 00 00 08 	unimp  0x8
    4e60:	00 00 3a 6f 	unimp  0x3a6f
    4e64:	40 00 00 34 	call  4f34 <_trap_table-0x404fb0cc>
    4e68:	00 00 00 09 	unimp  0x9
    4e6c:	00 00 00 00 	unimp  0
    4e70:	44 00 00 34 	call  10004f40 <_trap_table-0x304fb0c0>
    4e74:	00 00 00 00 	unimp  0
    4e78:	00 00 00 00 	unimp  0
    4e7c:	44 00 00 35 	call  10004f50 <_trap_table-0x304fb0b0>
    4e80:	00 00 00 00 	unimp  0
    4e84:	00 00 00 00 	unimp  0
    4e88:	24 00 00 00 	unknown
    4e8c:	00 00 00 1c 	unimp  0x1c
    4e90:	00 00 3a 78 	unimp  0x3a78
    4e94:	24 00 00 24 	unknown
    4e98:	40 50 26 ec 	call  140ea48 <_trap_table-0x3f0f15b8>
    4e9c:	00 00 3a 8f 	unimp  0x3a8f
    4ea0:	40 00 00 24 	call  4f30 <_trap_table-0x404fb0d0>
    4ea4:	00 00 00 18 	unimp  0x18
    4ea8:	00 00 3a 64 	unimp  0x3a64
    4eac:	40 00 00 24 	call  4f3c <_trap_table-0x404fb0c4>
    4eb0:	00 00 00 08 	unimp  0x8
    4eb4:	00 00 00 00 	unimp  0
    4eb8:	44 00 00 24 	call  10004f48 <_trap_table-0x304fb0b8>
    4ebc:	00 00 00 00 	unimp  0
    4ec0:	00 00 00 00 	unimp  0
    4ec4:	44 00 00 25 	call  10004f58 <_trap_table-0x304fb0a8>
    4ec8:	00 00 00 04 	unimp  0x4
    4ecc:	00 00 00 00 	unimp  0
    4ed0:	44 00 00 26 	call  10004f68 <_trap_table-0x304fb098>
    4ed4:	00 00 00 14 	unimp  0x14
    4ed8:	00 00 00 00 	unimp  0
    4edc:	44 00 00 24 	call  10004f6c <_trap_table-0x304fb094>
    4ee0:	00 00 00 20 	unimp  0x20
    4ee4:	00 00 00 00 	unimp  0
    4ee8:	44 00 00 26 	call  10004f80 <_trap_table-0x304fb080>
    4eec:	00 00 00 24 	unimp  0x24
    4ef0:	00 00 00 00 	unimp  0
    4ef4:	44 00 00 29 	call  10004f98 <_trap_table-0x304fb068>
    4ef8:	00 00 00 2c 	unimp  0x2c
    4efc:	00 00 00 00 	unimp  0
    4f00:	44 00 00 28 	call  10004fa0 <_trap_table-0x304fb060>
    4f04:	00 00 00 2c 	unimp  0x2c
    4f08:	00 00 00 00 	unimp  0
    4f0c:	44 00 00 2d 	call  10004fc0 <_trap_table-0x304fb040>
    4f10:	00 00 00 34 	unimp  0x34
    4f14:	00 00 00 00 	unimp  0
    4f18:	44 00 00 28 	call  10004fb8 <_trap_table-0x304fb048>
    4f1c:	00 00 00 3c 	unimp  0x3c
    4f20:	00 00 00 00 	unimp  0
    4f24:	44 00 00 2d 	call  10004fd8 <_trap_table-0x304fb028>
    4f28:	00 00 00 3c 	unimp  0x3c
    4f2c:	00 00 00 00 	unimp  0
    4f30:	44 00 00 2f 	call  10004fec <_trap_table-0x304fb014>
    4f34:	00 00 00 44 	unimp  0x44
    4f38:	00 00 00 00 	unimp  0
    4f3c:	44 00 00 30 	call  10004ffc <_trap_table-0x304fb004>
    4f40:	00 00 00 44 	unimp  0x44
    4f44:	00 00 00 00 	unimp  0
    4f48:	44 00 00 31 	call  1000500c <_trap_table-0x304faff4>
    4f4c:	00 00 00 4c 	unimp  0x4c
    4f50:	00 00 00 00 	unimp  0
    4f54:	44 00 00 2a 	call  10004ffc <_trap_table-0x304fb004>
    4f58:	00 00 00 54 	unimp  0x54
    4f5c:	00 00 3a 9b 	unimp  0x3a9b
    4f60:	40 00 00 25 	call  4ff4 <_trap_table-0x404fb00c>
    4f64:	00 00 00 0d 	unimp  0xd
    4f68:	00 00 3a a4 	unimp  0x3aa4
    4f6c:	40 00 00 26 	call  5004 <_trap_table-0x404faffc>
    4f70:	00 00 00 09 	unimp  0x9
    4f74:	00 00 00 00 	unimp  0
    4f78:	c0 00 00 00 	ld  [ %g0 ], %g0
    4f7c:	00 00 00 00 	unimp  0
    4f80:	00 00 3a ad 	unimp  0x3aad
    4f84:	40 00 00 29 	call  5028 <_trap_table-0x404fafd8>
    4f88:	00 00 00 01 	unimp  0x1
    4f8c:	00 00 00 00 	unimp  0
    4f90:	c0 00 00 00 	ld  [ %g0 ], %g0
    4f94:	00 00 00 54 	unimp  0x54
    4f98:	00 00 00 00 	unimp  0
    4f9c:	e0 00 00 00 	ld  [ %g0 ], %l0
    4fa0:	00 00 00 58 	unimp  0x58
    4fa4:	00 00 00 00 	unimp  0
    4fa8:	e0 00 00 00 	ld  [ %g0 ], %l0
    4fac:	00 00 00 60 	unimp  0x60
    4fb0:	00 00 00 00 	unimp  0
    4fb4:	24 00 00 00 	unknown
    4fb8:	00 00 00 60 	unimp  0x60
    4fbc:	00 00 3a b8 	unimp  0x3ab8
    4fc0:	24 00 00 3c 	unknown
    4fc4:	40 50 27 4c 	call  140ecf4 <_trap_table-0x3f0f130c>
    4fc8:	00 00 3a 64 	unimp  0x3a64
    4fcc:	40 00 00 3c 	call  50bc <_trap_table-0x404faf44>
    4fd0:	00 00 00 18 	unimp  0x18
    4fd4:	00 00 3a cb 	unimp  0x3acb
    4fd8:	40 00 00 3c 	call  50c8 <_trap_table-0x404faf38>
    4fdc:	00 00 00 19 	unimp  0x19
    4fe0:	00 00 00 00 	unimp  0
    4fe4:	44 00 00 3c 	call  100050d4 <_trap_table-0x304faf2c>
    4fe8:	00 00 00 00 	unimp  0
    4fec:	00 00 00 00 	unimp  0
    4ff0:	44 00 00 3f 	call  100050ec <_trap_table-0x304faf14>
    4ff4:	00 00 00 04 	unimp  0x4
    4ff8:	00 00 00 00 	unimp  0
    4ffc:	44 00 00 40 	call  100050fc <_trap_table-0x304faf04>
    5000:	00 00 00 1c 	unimp  0x1c
    5004:	00 00 00 00 	unimp  0
    5008:	44 00 00 42 	call  10005110 <_trap_table-0x304faef0>
    500c:	00 00 00 28 	unimp  0x28
    5010:	00 00 00 00 	unimp  0
    5014:	44 00 00 50 	call  10005154 <_trap_table-0x304faeac>
    5018:	00 00 00 38 	unimp  0x38
    501c:	00 00 00 00 	unimp  0
    5020:	44 00 00 45 	call  10005134 <_trap_table-0x304faecc>
    5024:	00 00 00 44 	unimp  0x44
    5028:	00 00 00 00 	unimp  0
    502c:	44 00 00 50 	call  1000516c <_trap_table-0x304fae94>
    5030:	00 00 00 4c 	unimp  0x4c
    5034:	00 00 00 00 	unimp  0
    5038:	44 00 00 45 	call  1000514c <_trap_table-0x304faeb4>
    503c:	00 00 00 5c 	unimp  0x5c
    5040:	00 00 00 00 	unimp  0
    5044:	44 00 00 47 	call  10005160 <_trap_table-0x304faea0>
    5048:	00 00 00 64 	unimp  0x64
    504c:	00 00 00 00 	unimp  0
    5050:	44 00 00 45 	call  10005164 <_trap_table-0x304fae9c>
    5054:	00 00 00 64 	unimp  0x64
    5058:	00 00 00 00 	unimp  0
    505c:	44 00 00 47 	call  10005178 <_trap_table-0x304fae88>
    5060:	00 00 00 6c 	unimp  0x6c
    5064:	00 00 00 00 	unimp  0
    5068:	44 00 00 4a 	call  10005190 <_trap_table-0x304fae70>
    506c:	00 00 00 70 	unimp  0x70
    5070:	00 00 00 00 	unimp  0
    5074:	44 00 00 47 	call  10005190 <_trap_table-0x304fae70>
    5078:	00 00 00 74 	unimp  0x74
    507c:	00 00 00 00 	unimp  0
    5080:	44 00 00 4a 	call  100051a8 <_trap_table-0x304fae58>
    5084:	00 00 00 78 	unimp  0x78
    5088:	00 00 00 00 	unimp  0
    508c:	44 00 00 47 	call  100051a8 <_trap_table-0x304fae58>
    5090:	00 00 00 78 	unimp  0x78
    5094:	00 00 00 00 	unimp  0
    5098:	44 00 00 4a 	call  100051c0 <_trap_table-0x304fae40>
    509c:	00 00 00 80 	unimp  0x80
    50a0:	00 00 00 00 	unimp  0
    50a4:	44 00 00 49 	call  100051c8 <_trap_table-0x304fae38>
    50a8:	00 00 00 84 	unimp  0x84
    50ac:	00 00 00 00 	unimp  0
    50b0:	44 00 00 4a 	call  100051d8 <_trap_table-0x304fae28>
    50b4:	00 00 00 84 	unimp  0x84
    50b8:	00 00 00 00 	unimp  0
    50bc:	44 00 00 50 	call  100051fc <_trap_table-0x304fae04>
    50c0:	00 00 00 8c 	unimp  0x8c
    50c4:	00 00 00 00 	unimp  0
    50c8:	44 00 00 4b 	call  100051f4 <_trap_table-0x304fae0c>
    50cc:	00 00 00 94 	unimp  0x94
    50d0:	00 00 00 00 	unimp  0
    50d4:	44 00 00 50 	call  10005214 <_trap_table-0x304fadec>
    50d8:	00 00 00 94 	unimp  0x94
    50dc:	00 00 00 00 	unimp  0
    50e0:	44 00 00 3f 	call  100051dc <_trap_table-0x304fae24>
    50e4:	00 00 00 a0 	unimp  0xa0
    50e8:	00 00 3a 9b 	unimp  0x3a9b
    50ec:	40 00 00 3d 	call  51e0 <_trap_table-0x404fae20>
    50f0:	00 00 00 10 	unimp  0x10
    50f4:	00 00 00 00 	unimp  0
    50f8:	c0 00 00 00 	ld  [ %g0 ], %g0
	...
    5104:	e0 00 00 00 	ld  [ %g0 ], %l0
    5108:	00 00 00 b4 	unimp  0xb4
    510c:	00 00 00 00 	unimp  0
    5110:	24 00 00 00 	unknown
    5114:	00 00 00 b4 	unimp  0xb4
    5118:	00 00 3a e2 	unimp  0x3ae2
    511c:	20 00 00 54 	unknown
    5120:	00 00 00 00 	unimp  0
    5124:	00 00 3a fb 	unimp  0x3afb
    5128:	20 00 00 1a 	unknown
    512c:	00 00 00 00 	unimp  0
    5130:	00 00 3b 1e 	unimp  0x3b1e
    5134:	20 00 00 1b 	unknown
    5138:	00 00 00 00 	unimp  0
    513c:	00 00 3b 42 	unimp  0x3b42
    5140:	20 00 00 39 	unknown
	...
    514c:	64 00 00 00 	call  9000514c <LEON_REG+0x1000514c>
    5150:	40 50 28 00 	call  140f150 <_trap_table-0x3f0f0eb0>
    5154:	00 00 3b 4f 	unimp  0x3b4f
    5158:	64 00 00 00 	call  90005158 <LEON_REG+0x10005158>
    515c:	40 50 28 00 	call  140f15c <_trap_table-0x3f0f0ea4>
    5160:	00 00 3b 5f 	unimp  0x3b5f
    5164:	84 00 00 00 	add  %g0, %g0, %g2
    5168:	40 50 28 00 	call  140f168 <_trap_table-0x3f0f0e98>
    516c:	00 00 00 00 	unimp  0
    5170:	44 00 00 25 	call  10005204 <_trap_table-0x304fadfc>
    5174:	40 50 28 00 	call  140f174 <_trap_table-0x3f0f0e8c>
    5178:	00 00 00 00 	unimp  0
    517c:	44 00 00 27 	call  10005218 <_trap_table-0x304fade8>
    5180:	40 50 28 04 	call  140f190 <_trap_table-0x3f0f0e70>
    5184:	00 00 00 00 	unimp  0
    5188:	44 00 00 28 	call  10005228 <_trap_table-0x304fadd8>
    518c:	40 50 28 08 	call  140f1ac <_trap_table-0x3f0f0e54>
    5190:	00 00 00 00 	unimp  0
    5194:	44 00 00 29 	call  10005238 <_trap_table-0x304fadc8>
    5198:	40 50 28 0c 	call  140f1c8 <_trap_table-0x3f0f0e38>
    519c:	00 00 00 00 	unimp  0
    51a0:	44 00 00 2a 	call  10005248 <_trap_table-0x304fadb8>
    51a4:	40 50 28 10 	call  140f1e4 <_trap_table-0x3f0f0e1c>
    51a8:	00 00 00 00 	unimp  0
    51ac:	44 00 00 2b 	call  10005258 <_trap_table-0x304fada8>
    51b0:	40 50 28 14 	call  140f200 <_trap_table-0x3f0f0e00>
    51b4:	00 00 00 00 	unimp  0
    51b8:	44 00 00 2c 	call  10005268 <_trap_table-0x304fad98>
    51bc:	40 50 28 18 	call  140f21c <_trap_table-0x3f0f0de4>
    51c0:	00 00 00 00 	unimp  0
    51c4:	44 00 00 2d 	call  10005278 <_trap_table-0x304fad88>
    51c8:	40 50 28 20 	call  140f248 <_trap_table-0x3f0f0db8>
    51cc:	00 00 00 00 	unimp  0
    51d0:	44 00 00 2e 	call  10005288 <_trap_table-0x304fad78>
    51d4:	40 50 28 28 	call  140f274 <_trap_table-0x3f0f0d8c>
    51d8:	00 00 00 00 	unimp  0
    51dc:	44 00 00 2f 	call  10005298 <_trap_table-0x304fad68>
    51e0:	40 50 28 2c 	call  140f290 <_trap_table-0x3f0f0d70>
    51e4:	00 00 00 00 	unimp  0
    51e8:	44 00 00 30 	call  100052a8 <_trap_table-0x304fad58>
    51ec:	40 50 28 34 	call  140f2bc <_trap_table-0x3f0f0d44>
    51f0:	00 00 00 00 	unimp  0
    51f4:	44 00 00 31 	call  100052b8 <_trap_table-0x304fad48>
    51f8:	40 50 28 3c 	call  140f2e8 <_trap_table-0x3f0f0d18>
    51fc:	00 00 00 00 	unimp  0
    5200:	44 00 00 32 	call  100052c8 <_trap_table-0x304fad38>
    5204:	40 50 28 40 	call  140f304 <_trap_table-0x3f0f0cfc>
    5208:	00 00 00 00 	unimp  0
    520c:	44 00 00 36 	call  100052e4 <_trap_table-0x304fad1c>
    5210:	40 50 28 44 	call  140f320 <_trap_table-0x3f0f0ce0>
    5214:	00 00 00 00 	unimp  0
    5218:	44 00 00 37 	call  100052f4 <_trap_table-0x304fad0c>
    521c:	40 50 28 48 	call  140f33c <_trap_table-0x3f0f0cc4>
    5220:	00 00 00 00 	unimp  0
    5224:	44 00 00 38 	call  10005304 <_trap_table-0x304facfc>
    5228:	40 50 28 4c 	call  140f358 <_trap_table-0x3f0f0ca8>
    522c:	00 00 00 00 	unimp  0
    5230:	44 00 00 39 	call  10005314 <_trap_table-0x304facec>
    5234:	40 50 28 50 	call  140f374 <_trap_table-0x3f0f0c8c>
    5238:	00 00 00 00 	unimp  0
    523c:	44 00 00 3b 	call  10005328 <_trap_table-0x304facd8>
    5240:	40 50 28 54 	call  140f390 <_trap_table-0x3f0f0c70>
    5244:	00 00 00 00 	unimp  0
    5248:	44 00 00 3c 	call  10005338 <_trap_table-0x304facc8>
    524c:	40 50 28 58 	call  140f3ac <_trap_table-0x3f0f0c54>
    5250:	00 00 00 00 	unimp  0
    5254:	44 00 00 3d 	call  10005348 <_trap_table-0x304facb8>
    5258:	40 50 28 5c 	call  140f3c8 <_trap_table-0x3f0f0c38>
    525c:	00 00 00 00 	unimp  0
    5260:	44 00 00 3f 	call  1000535c <_trap_table-0x304faca4>
    5264:	40 50 28 60 	call  140f3e4 <_trap_table-0x3f0f0c1c>
    5268:	00 00 00 00 	unimp  0
    526c:	44 00 00 40 	call  1000536c <_trap_table-0x304fac94>
    5270:	40 50 28 64 	call  140f400 <_trap_table-0x3f0f0c00>
    5274:	00 00 00 00 	unimp  0
    5278:	44 00 00 41 	call  1000537c <_trap_table-0x304fac84>
    527c:	40 50 28 68 	call  140f41c <_trap_table-0x3f0f0be4>
    5280:	00 00 00 00 	unimp  0
    5284:	44 00 00 43 	call  10005390 <_trap_table-0x304fac70>
    5288:	40 50 28 6c 	call  140f438 <_trap_table-0x3f0f0bc8>
    528c:	00 00 00 00 	unimp  0
    5290:	44 00 00 44 	call  100053a0 <_trap_table-0x304fac60>
    5294:	40 50 28 70 	call  140f454 <_trap_table-0x3f0f0bac>
    5298:	00 00 00 00 	unimp  0
    529c:	44 00 00 47 	call  100053b8 <_trap_table-0x304fac48>
    52a0:	40 50 28 74 	call  140f470 <_trap_table-0x3f0f0b90>
    52a4:	00 00 00 00 	unimp  0
    52a8:	44 00 00 48 	call  100053c8 <_trap_table-0x304fac38>
    52ac:	40 50 28 78 	call  140f48c <_trap_table-0x3f0f0b74>
    52b0:	00 00 00 00 	unimp  0
    52b4:	44 00 00 49 	call  100053d8 <_trap_table-0x304fac28>
    52b8:	40 50 28 7c 	call  140f4a8 <_trap_table-0x3f0f0b58>
    52bc:	00 00 00 00 	unimp  0
    52c0:	44 00 00 4a 	call  100053e8 <_trap_table-0x304fac18>
    52c4:	40 50 28 80 	call  140f4c4 <_trap_table-0x3f0f0b3c>
    52c8:	00 00 00 00 	unimp  0
    52cc:	44 00 00 4b 	call  100053f8 <_trap_table-0x304fac08>
    52d0:	40 50 28 84 	call  140f4e0 <_trap_table-0x3f0f0b20>
    52d4:	00 00 00 00 	unimp  0
    52d8:	44 00 00 4c 	call  10005408 <_trap_table-0x304fabf8>
    52dc:	40 50 28 88 	call  140f4fc <_trap_table-0x3f0f0b04>
    52e0:	00 00 00 00 	unimp  0
    52e4:	44 00 00 4d 	call  10005418 <_trap_table-0x304fabe8>
    52e8:	40 50 28 8c 	call  140f518 <_trap_table-0x3f0f0ae8>
    52ec:	00 00 00 00 	unimp  0
    52f0:	44 00 00 4e 	call  10005428 <_trap_table-0x304fabd8>
    52f4:	40 50 28 90 	call  140f534 <_trap_table-0x3f0f0acc>
    52f8:	00 00 00 00 	unimp  0
    52fc:	44 00 00 50 	call  1000543c <_trap_table-0x304fabc4>
    5300:	40 50 28 94 	call  140f550 <_trap_table-0x3f0f0ab0>
    5304:	00 00 00 00 	unimp  0
    5308:	44 00 00 51 	call  1000544c <_trap_table-0x304fabb4>
    530c:	40 50 28 98 	call  140f56c <_trap_table-0x3f0f0a94>
    5310:	00 00 00 00 	unimp  0
    5314:	44 00 00 53 	call  10005460 <_trap_table-0x304faba0>
    5318:	40 50 28 9c 	call  140f588 <_trap_table-0x3f0f0a78>
    531c:	00 00 00 00 	unimp  0
    5320:	44 00 00 54 	call  10005470 <_trap_table-0x304fab90>
    5324:	40 50 28 a4 	call  140f5b4 <_trap_table-0x3f0f0a4c>
    5328:	00 00 00 00 	unimp  0
    532c:	44 00 00 58 	call  1000548c <_trap_table-0x304fab74>
    5330:	40 50 28 a8 	call  140f5d0 <_trap_table-0x3f0f0a30>
    5334:	00 00 00 00 	unimp  0
    5338:	44 00 00 59 	call  1000549c <_trap_table-0x304fab64>
    533c:	40 50 28 ac 	call  140f5ec <_trap_table-0x3f0f0a14>
    5340:	00 00 00 00 	unimp  0
    5344:	44 00 00 5a 	call  100054ac <_trap_table-0x304fab54>
    5348:	40 50 28 b0 	call  140f608 <_trap_table-0x3f0f09f8>
    534c:	00 00 00 00 	unimp  0
    5350:	44 00 00 5b 	call  100054bc <_trap_table-0x304fab44>
    5354:	40 50 28 b4 	call  140f624 <_trap_table-0x3f0f09dc>
    5358:	00 00 00 00 	unimp  0
    535c:	44 00 00 5c 	call  100054cc <_trap_table-0x304fab34>
    5360:	40 50 28 b8 	call  140f640 <_trap_table-0x3f0f09c0>
    5364:	00 00 00 00 	unimp  0
    5368:	44 00 00 5d 	call  100054dc <_trap_table-0x304fab24>
    536c:	40 50 28 bc 	call  140f65c <_trap_table-0x3f0f09a4>
    5370:	00 00 00 00 	unimp  0
    5374:	44 00 00 5e 	call  100054ec <_trap_table-0x304fab14>
    5378:	40 50 28 c0 	call  140f678 <_trap_table-0x3f0f0988>
    537c:	00 00 00 00 	unimp  0
    5380:	44 00 00 5f 	call  100054fc <_trap_table-0x304fab04>
    5384:	40 50 28 c4 	call  140f694 <_trap_table-0x3f0f096c>
    5388:	00 00 00 00 	unimp  0
    538c:	44 00 00 61 	call  10005510 <_trap_table-0x304faaf0>
    5390:	40 50 28 c8 	call  140f6b0 <_trap_table-0x3f0f0950>
    5394:	00 00 00 00 	unimp  0
    5398:	44 00 00 62 	call  10005520 <_trap_table-0x304faae0>
    539c:	40 50 28 cc 	call  140f6cc <_trap_table-0x3f0f0934>
    53a0:	00 00 00 00 	unimp  0
    53a4:	44 00 00 64 	call  10005534 <_trap_table-0x304faacc>
    53a8:	40 50 28 d0 	call  140f6e8 <_trap_table-0x3f0f0918>
    53ac:	00 00 00 00 	unimp  0
    53b0:	44 00 00 65 	call  10005544 <_trap_table-0x304faabc>
    53b4:	40 50 28 d4 	call  140f704 <_trap_table-0x3f0f08fc>
    53b8:	00 00 00 00 	unimp  0
    53bc:	44 00 00 66 	call  10005554 <_trap_table-0x304faaac>
    53c0:	40 50 28 dc 	call  140f730 <_trap_table-0x3f0f08d0>
    53c4:	00 00 00 00 	unimp  0
    53c8:	44 00 00 6a 	call  10005570 <_trap_table-0x304faa90>
    53cc:	40 50 28 e0 	call  140f74c <_trap_table-0x3f0f08b4>
    53d0:	00 00 00 00 	unimp  0
    53d4:	44 00 00 6b 	call  10005580 <_trap_table-0x304faa80>
    53d8:	40 50 28 e4 	call  140f768 <_trap_table-0x3f0f0898>
    53dc:	00 00 00 00 	unimp  0
    53e0:	44 00 00 6c 	call  10005590 <_trap_table-0x304faa70>
    53e4:	40 50 28 e8 	call  140f784 <_trap_table-0x3f0f087c>
    53e8:	00 00 00 00 	unimp  0
    53ec:	44 00 00 6d 	call  100055a0 <_trap_table-0x304faa60>
    53f0:	40 50 28 ec 	call  140f7a0 <_trap_table-0x3f0f0860>
    53f4:	00 00 00 00 	unimp  0
    53f8:	44 00 00 6e 	call  100055b0 <_trap_table-0x304faa50>
    53fc:	40 50 28 f0 	call  140f7bc <_trap_table-0x3f0f0844>
    5400:	00 00 00 00 	unimp  0
    5404:	44 00 00 6f 	call  100055c0 <_trap_table-0x304faa40>
    5408:	40 50 28 f4 	call  140f7d8 <_trap_table-0x3f0f0828>
    540c:	00 00 00 00 	unimp  0
    5410:	44 00 00 70 	call  100055d0 <_trap_table-0x304faa30>
    5414:	40 50 28 f8 	call  140f7f4 <_trap_table-0x3f0f080c>
    5418:	00 00 00 00 	unimp  0
    541c:	44 00 00 71 	call  100055e0 <_trap_table-0x304faa20>
    5420:	40 50 28 fc 	call  140f810 <_trap_table-0x3f0f07f0>
    5424:	00 00 00 00 	unimp  0
    5428:	44 00 00 73 	call  100055f4 <_trap_table-0x304faa0c>
    542c:	40 50 29 00 	call  140f82c <_trap_table-0x3f0f07d4>
    5430:	00 00 00 00 	unimp  0
    5434:	44 00 00 74 	call  10005604 <_trap_table-0x304fa9fc>
    5438:	40 50 29 04 	call  140f848 <_trap_table-0x3f0f07b8>
    543c:	00 00 00 00 	unimp  0
    5440:	44 00 00 76 	call  10005618 <_trap_table-0x304fa9e8>
    5444:	40 50 29 08 	call  140f864 <_trap_table-0x3f0f079c>
    5448:	00 00 00 00 	unimp  0
    544c:	44 00 00 77 	call  10005628 <_trap_table-0x304fa9d8>
    5450:	40 50 29 10 	call  140f890 <_trap_table-0x3f0f0770>
    5454:	00 00 00 00 	unimp  0
    5458:	44 00 00 78 	call  10005638 <_trap_table-0x304fa9c8>
    545c:	40 50 29 14 	call  140f8ac <_trap_table-0x3f0f0754>
    5460:	00 00 00 00 	unimp  0
    5464:	44 00 00 79 	call  10005648 <_trap_table-0x304fa9b8>
    5468:	40 50 29 18 	call  140f8c8 <_trap_table-0x3f0f0738>
    546c:	00 00 00 00 	unimp  0
    5470:	44 00 00 7a 	call  10005658 <_trap_table-0x304fa9a8>
    5474:	40 50 29 1c 	call  140f8e4 <_trap_table-0x3f0f071c>
    5478:	00 00 00 00 	unimp  0
    547c:	44 00 00 7b 	call  10005668 <_trap_table-0x304fa998>
    5480:	40 50 29 20 	call  140f900 <_trap_table-0x3f0f0700>
    5484:	00 00 00 00 	unimp  0
    5488:	44 00 00 7f 	call  10005684 <_trap_table-0x304fa97c>
    548c:	40 50 29 24 	call  140f91c <_trap_table-0x3f0f06e4>
    5490:	00 00 00 00 	unimp  0
    5494:	44 00 00 80 	call  10005694 <_trap_table-0x304fa96c>
    5498:	40 50 29 28 	call  140f938 <_trap_table-0x3f0f06c8>
    549c:	00 00 00 00 	unimp  0
    54a0:	44 00 00 81 	call  100056a4 <_trap_table-0x304fa95c>
    54a4:	40 50 29 2c 	call  140f954 <_trap_table-0x3f0f06ac>
    54a8:	00 00 00 00 	unimp  0
    54ac:	44 00 00 85 	call  100056c0 <_trap_table-0x304fa940>
    54b0:	40 50 29 30 	call  140f970 <_trap_table-0x3f0f0690>
    54b4:	00 00 27 b1 	unimp  0x27b1
    54b8:	64 00 00 00 	call  900054b8 <LEON_REG+0x100054b8>
    54bc:	40 50 29 38 	call  140f99c <_trap_table-0x3f0f0664>
    54c0:	00 00 3b 97 	unimp  0x3b97
    54c4:	64 00 00 00 	call  900054c4 <LEON_REG+0x100054c4>
    54c8:	40 50 29 38 	call  140f9a8 <_trap_table-0x3f0f0658>
    54cc:	00 00 01 23 	unimp  0x123
    54d0:	3c 00 00 00 	unknown
    54d4:	00 00 00 00 	unimp  0
    54d8:	00 00 01 32 	unimp  0x132
    54dc:	80 00 00 00 	add  %g0, %g0, %g0
    54e0:	00 00 00 00 	unimp  0
    54e4:	00 00 01 5c 	unimp  0x15c
    54e8:	80 00 00 00 	add  %g0, %g0, %g0
    54ec:	00 00 00 00 	unimp  0
    54f0:	00 00 01 76 	unimp  0x176
    54f4:	80 00 00 00 	add  %g0, %g0, %g0
    54f8:	00 00 00 00 	unimp  0
    54fc:	00 00 01 a5 	unimp  0x1a5
    5500:	80 00 00 00 	add  %g0, %g0, %g0
    5504:	00 00 00 00 	unimp  0
    5508:	00 00 01 dd 	unimp  0x1dd
    550c:	80 00 00 00 	add  %g0, %g0, %g0
    5510:	00 00 00 00 	unimp  0
    5514:	00 00 02 1a 	unimp  0x21a
    5518:	80 00 00 00 	add  %g0, %g0, %g0
    551c:	00 00 00 00 	unimp  0
    5520:	00 00 02 6b 	unimp  0x26b
    5524:	80 00 00 00 	add  %g0, %g0, %g0
    5528:	00 00 00 00 	unimp  0
    552c:	00 00 02 bc 	unimp  0x2bc
    5530:	80 00 00 00 	add  %g0, %g0, %g0
    5534:	00 00 00 00 	unimp  0
    5538:	00 00 02 e7 	unimp  0x2e7
    553c:	80 00 00 00 	add  %g0, %g0, %g0
    5540:	00 00 00 00 	unimp  0
    5544:	00 00 03 16 	unimp  0x316
    5548:	80 00 00 00 	add  %g0, %g0, %g0
    554c:	00 00 00 00 	unimp  0
    5550:	00 00 03 40 	unimp  0x340
    5554:	80 00 00 00 	add  %g0, %g0, %g0
    5558:	00 00 00 00 	unimp  0
    555c:	00 00 03 69 	unimp  0x369
    5560:	80 00 00 00 	add  %g0, %g0, %g0
    5564:	00 00 00 00 	unimp  0
    5568:	00 00 03 83 	unimp  0x383
    556c:	80 00 00 00 	add  %g0, %g0, %g0
    5570:	00 00 00 00 	unimp  0
    5574:	00 00 03 9e 	unimp  0x39e
    5578:	80 00 00 00 	add  %g0, %g0, %g0
    557c:	00 00 00 00 	unimp  0
    5580:	00 00 03 be 	unimp  0x3be
    5584:	80 00 00 00 	add  %g0, %g0, %g0
    5588:	00 00 00 00 	unimp  0
    558c:	00 00 03 f7 	unimp  0x3f7
    5590:	80 00 00 00 	add  %g0, %g0, %g0
    5594:	00 00 00 00 	unimp  0
    5598:	00 00 04 15 	unimp  0x415
    559c:	80 00 00 00 	add  %g0, %g0, %g0
    55a0:	00 00 00 00 	unimp  0
    55a4:	00 00 04 35 	unimp  0x435
    55a8:	80 00 00 00 	add  %g0, %g0, %g0
    55ac:	00 00 00 00 	unimp  0
    55b0:	00 00 04 5a 	unimp  0x45a
    55b4:	80 00 00 00 	add  %g0, %g0, %g0
    55b8:	00 00 00 00 	unimp  0
    55bc:	00 00 04 6e 	unimp  0x46e
    55c0:	80 00 00 00 	add  %g0, %g0, %g0
    55c4:	00 00 00 00 	unimp  0
    55c8:	00 00 04 90 	unimp  0x490
    55cc:	80 00 00 00 	add  %g0, %g0, %g0
    55d0:	00 00 00 00 	unimp  0
    55d4:	00 00 04 a7 	unimp  0x4a7
    55d8:	c2 00 00 00 	ld  [ %g0 ], %g1
    55dc:	00 00 28 45 	unimp  0x2845
    55e0:	00 00 04 ed 	unimp  0x4ed
    55e4:	c2 00 00 00 	ld  [ %g0 ], %g1
    55e8:	00 00 0a 0a 	unimp  0xa0a
    55ec:	00 00 05 64 	unimp  0x564
    55f0:	c2 00 00 00 	ld  [ %g0 ], %g1
    55f4:	00 02 bf 15 	unimp  0x2bf15
    55f8:	00 00 05 ad 	unimp  0x5ad
    55fc:	c2 00 00 00 	ld  [ %g0 ], %g1
    5600:	00 00 3b 70 	unimp  0x3b70
    5604:	00 00 28 e8 	unimp  0x28e8
    5608:	c2 00 00 00 	ld  [ %g0 ], %g1
    560c:	00 00 1f b7 	unimp  0x1fb7
    5610:	00 00 29 0f 	unimp  0x290f
    5614:	c2 00 00 00 	ld  [ %g0 ], %g1
    5618:	00 00 bc 67 	unimp  0xbc67
    561c:	00 00 04 ed 	unimp  0x4ed
    5620:	c2 00 00 00 	ld  [ %g0 ], %g1
    5624:	00 00 04 de 	unimp  0x4de
    5628:	00 00 3b ce 	unimp  0x3bce
    562c:	20 00 00 19 	unknown
	...
    5638:	64 00 00 00 	call  90005638 <LEON_REG+0x10005638>
    563c:	40 50 29 38 	call  140fb1c <_trap_table-0x3f0f04e4>
    5640:	00 00 27 b1 	unimp  0x27b1
    5644:	64 00 00 00 	call  90005644 <LEON_REG+0x10005644>
    5648:	40 50 29 38 	call  140fb28 <_trap_table-0x3f0f04d8>
    564c:	00 00 3b e5 	unimp  0x3be5
    5650:	64 00 00 00 	call  90005650 <LEON_REG+0x10005650>
    5654:	40 50 29 38 	call  140fb34 <_trap_table-0x3f0f04cc>
    5658:	00 00 01 23 	unimp  0x123
    565c:	3c 00 00 00 	unknown
    5660:	00 00 00 00 	unimp  0
    5664:	00 00 01 32 	unimp  0x132
    5668:	80 00 00 00 	add  %g0, %g0, %g0
    566c:	00 00 00 00 	unimp  0
    5670:	00 00 01 5c 	unimp  0x15c
    5674:	80 00 00 00 	add  %g0, %g0, %g0
    5678:	00 00 00 00 	unimp  0
    567c:	00 00 01 76 	unimp  0x176
    5680:	80 00 00 00 	add  %g0, %g0, %g0
    5684:	00 00 00 00 	unimp  0
    5688:	00 00 01 a5 	unimp  0x1a5
    568c:	80 00 00 00 	add  %g0, %g0, %g0
    5690:	00 00 00 00 	unimp  0
    5694:	00 00 01 dd 	unimp  0x1dd
    5698:	80 00 00 00 	add  %g0, %g0, %g0
    569c:	00 00 00 00 	unimp  0
    56a0:	00 00 02 1a 	unimp  0x21a
    56a4:	80 00 00 00 	add  %g0, %g0, %g0
    56a8:	00 00 00 00 	unimp  0
    56ac:	00 00 02 6b 	unimp  0x26b
    56b0:	80 00 00 00 	add  %g0, %g0, %g0
    56b4:	00 00 00 00 	unimp  0
    56b8:	00 00 02 bc 	unimp  0x2bc
    56bc:	80 00 00 00 	add  %g0, %g0, %g0
    56c0:	00 00 00 00 	unimp  0
    56c4:	00 00 02 e7 	unimp  0x2e7
    56c8:	80 00 00 00 	add  %g0, %g0, %g0
    56cc:	00 00 00 00 	unimp  0
    56d0:	00 00 03 16 	unimp  0x316
    56d4:	80 00 00 00 	add  %g0, %g0, %g0
    56d8:	00 00 00 00 	unimp  0
    56dc:	00 00 03 40 	unimp  0x340
    56e0:	80 00 00 00 	add  %g0, %g0, %g0
    56e4:	00 00 00 00 	unimp  0
    56e8:	00 00 03 69 	unimp  0x369
    56ec:	80 00 00 00 	add  %g0, %g0, %g0
    56f0:	00 00 00 00 	unimp  0
    56f4:	00 00 03 83 	unimp  0x383
    56f8:	80 00 00 00 	add  %g0, %g0, %g0
    56fc:	00 00 00 00 	unimp  0
    5700:	00 00 03 9e 	unimp  0x39e
    5704:	80 00 00 00 	add  %g0, %g0, %g0
    5708:	00 00 00 00 	unimp  0
    570c:	00 00 03 be 	unimp  0x3be
    5710:	80 00 00 00 	add  %g0, %g0, %g0
    5714:	00 00 00 00 	unimp  0
    5718:	00 00 03 f7 	unimp  0x3f7
    571c:	80 00 00 00 	add  %g0, %g0, %g0
    5720:	00 00 00 00 	unimp  0
    5724:	00 00 04 15 	unimp  0x415
    5728:	80 00 00 00 	add  %g0, %g0, %g0
    572c:	00 00 00 00 	unimp  0
    5730:	00 00 04 35 	unimp  0x435
    5734:	80 00 00 00 	add  %g0, %g0, %g0
    5738:	00 00 00 00 	unimp  0
    573c:	00 00 04 5a 	unimp  0x45a
    5740:	80 00 00 00 	add  %g0, %g0, %g0
    5744:	00 00 00 00 	unimp  0
    5748:	00 00 04 6e 	unimp  0x46e
    574c:	80 00 00 00 	add  %g0, %g0, %g0
    5750:	00 00 00 00 	unimp  0
    5754:	00 00 04 90 	unimp  0x490
    5758:	80 00 00 00 	add  %g0, %g0, %g0
    575c:	00 00 00 00 	unimp  0
    5760:	00 00 3c 1a 	unimp  0x3c1a
    5764:	24 00 00 04 	unknown
    5768:	40 50 29 38 	call  140fc48 <_trap_table-0x3f0f03b8>
    576c:	00 00 3c 28 	unimp  0x3c28
    5770:	40 00 00 03 	call  577c <_trap_table-0x404fa884>
    5774:	00 00 00 08 	unimp  0x8
    5778:	00 00 00 00 	unimp  0
    577c:	44 00 00 04 	call  1000578c <_trap_table-0x304fa874>
    5780:	00 00 00 00 	unimp  0
    5784:	00 00 00 00 	unimp  0
    5788:	44 00 00 05 	call  1000579c <_trap_table-0x304fa864>
    578c:	00 00 00 00 	unimp  0
    5790:	00 00 00 00 	unimp  0
    5794:	24 00 00 00 	unknown
    5798:	00 00 00 10 	unimp  0x10
    579c:	00 00 00 00 	unimp  0
    57a0:	64 00 00 00 	call  900057a0 <LEON_REG+0x100057a0>
    57a4:	40 50 29 48 	call  140fcc4 <_trap_table-0x3f0f033c>
    57a8:	00 00 27 b1 	unimp  0x27b1
    57ac:	64 00 00 00 	call  900057ac <LEON_REG+0x100057ac>
    57b0:	40 50 29 48 	call  140fcd0 <_trap_table-0x3f0f0330>
    57b4:	00 00 3c 36 	unimp  0x3c36
    57b8:	64 00 00 00 	call  900057b8 <LEON_REG+0x100057b8>
    57bc:	40 50 29 48 	call  140fcdc <_trap_table-0x3f0f0324>
    57c0:	00 00 01 23 	unimp  0x123
    57c4:	3c 00 00 00 	unknown
    57c8:	00 00 00 00 	unimp  0
    57cc:	00 00 01 32 	unimp  0x132
    57d0:	80 00 00 00 	add  %g0, %g0, %g0
    57d4:	00 00 00 00 	unimp  0
    57d8:	00 00 01 5c 	unimp  0x15c
    57dc:	80 00 00 00 	add  %g0, %g0, %g0
    57e0:	00 00 00 00 	unimp  0
    57e4:	00 00 01 76 	unimp  0x176
    57e8:	80 00 00 00 	add  %g0, %g0, %g0
    57ec:	00 00 00 00 	unimp  0
    57f0:	00 00 01 a5 	unimp  0x1a5
    57f4:	80 00 00 00 	add  %g0, %g0, %g0
    57f8:	00 00 00 00 	unimp  0
    57fc:	00 00 01 dd 	unimp  0x1dd
    5800:	80 00 00 00 	add  %g0, %g0, %g0
    5804:	00 00 00 00 	unimp  0
    5808:	00 00 02 1a 	unimp  0x21a
    580c:	80 00 00 00 	add  %g0, %g0, %g0
    5810:	00 00 00 00 	unimp  0
    5814:	00 00 02 6b 	unimp  0x26b
    5818:	80 00 00 00 	add  %g0, %g0, %g0
    581c:	00 00 00 00 	unimp  0
    5820:	00 00 02 bc 	unimp  0x2bc
    5824:	80 00 00 00 	add  %g0, %g0, %g0
    5828:	00 00 00 00 	unimp  0
    582c:	00 00 02 e7 	unimp  0x2e7
    5830:	80 00 00 00 	add  %g0, %g0, %g0
    5834:	00 00 00 00 	unimp  0
    5838:	00 00 03 16 	unimp  0x316
    583c:	80 00 00 00 	add  %g0, %g0, %g0
    5840:	00 00 00 00 	unimp  0
    5844:	00 00 03 40 	unimp  0x340
    5848:	80 00 00 00 	add  %g0, %g0, %g0
    584c:	00 00 00 00 	unimp  0
    5850:	00 00 03 69 	unimp  0x369
    5854:	80 00 00 00 	add  %g0, %g0, %g0
    5858:	00 00 00 00 	unimp  0
    585c:	00 00 03 83 	unimp  0x383
    5860:	80 00 00 00 	add  %g0, %g0, %g0
    5864:	00 00 00 00 	unimp  0
    5868:	00 00 03 9e 	unimp  0x39e
    586c:	80 00 00 00 	add  %g0, %g0, %g0
    5870:	00 00 00 00 	unimp  0
    5874:	00 00 03 be 	unimp  0x3be
    5878:	80 00 00 00 	add  %g0, %g0, %g0
    587c:	00 00 00 00 	unimp  0
    5880:	00 00 03 f7 	unimp  0x3f7
    5884:	80 00 00 00 	add  %g0, %g0, %g0
    5888:	00 00 00 00 	unimp  0
    588c:	00 00 04 15 	unimp  0x415
    5890:	80 00 00 00 	add  %g0, %g0, %g0
    5894:	00 00 00 00 	unimp  0
    5898:	00 00 04 35 	unimp  0x435
    589c:	80 00 00 00 	add  %g0, %g0, %g0
    58a0:	00 00 00 00 	unimp  0
    58a4:	00 00 04 5a 	unimp  0x45a
    58a8:	80 00 00 00 	add  %g0, %g0, %g0
    58ac:	00 00 00 00 	unimp  0
    58b0:	00 00 04 6e 	unimp  0x46e
    58b4:	80 00 00 00 	add  %g0, %g0, %g0
    58b8:	00 00 00 00 	unimp  0
    58bc:	00 00 04 90 	unimp  0x490
    58c0:	80 00 00 00 	add  %g0, %g0, %g0
    58c4:	00 00 00 00 	unimp  0
    58c8:	00 00 1c bb 	unimp  0x1cbb
    58cc:	c2 00 00 00 	ld  [ %g0 ], %g1
    58d0:	00 00 c7 75 	unimp  0xc775
    58d4:	00 00 05 ad 	unimp  0x5ad
    58d8:	c2 00 00 00 	ld  [ %g0 ], %g1
    58dc:	00 00 3b 70 	unimp  0x3b70
    58e0:	00 00 28 e8 	unimp  0x28e8
    58e4:	c2 00 00 00 	ld  [ %g0 ], %g1
    58e8:	00 00 1f b7 	unimp  0x1fb7
    58ec:	00 00 29 0f 	unimp  0x290f
    58f0:	c2 00 00 00 	ld  [ %g0 ], %g1
    58f4:	00 00 bc 67 	unimp  0xbc67
    58f8:	00 00 04 ed 	unimp  0x4ed
    58fc:	c2 00 00 00 	ld  [ %g0 ], %g1
    5900:	00 00 04 de 	unimp  0x4de
    5904:	00 00 04 ed 	unimp  0x4ed
    5908:	c2 00 00 00 	ld  [ %g0 ], %g1
    590c:	00 00 10 15 	unimp  0x1015
    5910:	00 00 18 2c 	unimp  0x182c
    5914:	c2 00 00 00 	ld  [ %g0 ], %g1
    5918:	00 00 0f b1 	unimp  0xfb1
    591c:	00 00 3c 6b 	unimp  0x3c6b
    5920:	82 00 00 00 	add  %g0, %g0, %g1
    5924:	00 00 08 d3 	unimp  0x8d3
    5928:	00 00 3c 9b 	unimp  0x3c9b
    592c:	80 00 00 24 	unknown
	...
    5938:	a2 00 00 00 	add  %g0, %g0, %l1
    593c:	00 00 00 00 	unimp  0
    5940:	00 00 3c c1 	unimp  0x3cc1
    5944:	24 00 00 11 	unknown
    5948:	40 50 29 48 	call  140fe68 <_trap_table-0x3f0f0198>
    594c:	00 00 3c e1 	unimp  0x3ce1
    5950:	40 00 00 0f 	call  598c <_trap_table-0x404fa674>
    5954:	00 00 00 08 	unimp  0x8
    5958:	00 00 3c f7 	unimp  0x3cf7
    595c:	40 00 00 10 	call  599c <_trap_table-0x404fa664>
    5960:	00 00 00 09 	unimp  0x9
    5964:	00 00 00 00 	unimp  0
    5968:	44 00 00 11 	call  100059ac <_trap_table-0x304fa654>
    596c:	00 00 00 00 	unimp  0
    5970:	00 00 00 00 	unimp  0
    5974:	44 00 00 12 	call  100059bc <_trap_table-0x304fa644>
    5978:	00 00 00 04 	unimp  0x4
    597c:	00 00 00 00 	unimp  0
    5980:	44 00 00 11 	call  100059c4 <_trap_table-0x304fa63c>
    5984:	00 00 00 0c 	unimp  0xc
    5988:	00 00 00 00 	unimp  0
    598c:	44 00 00 12 	call  100059d4 <_trap_table-0x304fa62c>
    5990:	00 00 00 14 	unimp  0x14
    5994:	00 00 00 00 	unimp  0
    5998:	44 00 00 15 	call  100059ec <_trap_table-0x304fa614>
    599c:	00 00 00 18 	unimp  0x18
    59a0:	00 00 00 00 	unimp  0
    59a4:	44 00 00 12 	call  100059ec <_trap_table-0x304fa614>
    59a8:	00 00 00 18 	unimp  0x18
    59ac:	00 00 00 00 	unimp  0
    59b0:	44 00 00 13 	call  100059fc <_trap_table-0x304fa604>
    59b4:	00 00 00 20 	unimp  0x20
    59b8:	00 00 00 00 	unimp  0
    59bc:	24 00 00 00 	unknown
    59c0:	00 00 00 34 	unimp  0x34
    59c4:	00 00 3d 0c 	unimp  0x3d0c
    59c8:	24 00 00 1a 	unknown
    59cc:	40 50 29 7c 	call  140ffbc <_trap_table-0x3f0f0044>
    59d0:	00 00 3d 2f 	unimp  0x3d2f
    59d4:	40 00 00 19 	call  5a38 <_trap_table-0x404fa5c8>
    59d8:	00 00 00 08 	unimp  0x8
    59dc:	00 00 00 00 	unimp  0
    59e0:	44 00 00 1a 	call  10005a48 <_trap_table-0x304fa5b8>
    59e4:	00 00 00 00 	unimp  0
    59e8:	00 00 00 00 	unimp  0
    59ec:	44 00 00 1b 	call  10005a58 <_trap_table-0x304fa5a8>
    59f0:	00 00 00 04 	unimp  0x4
    59f4:	00 00 00 00 	unimp  0
    59f8:	44 00 00 1a 	call  10005a60 <_trap_table-0x304fa5a0>
    59fc:	00 00 00 0c 	unimp  0xc
    5a00:	00 00 00 00 	unimp  0
    5a04:	44 00 00 1b 	call  10005a70 <_trap_table-0x304fa590>
    5a08:	00 00 00 10 	unimp  0x10
    5a0c:	00 00 00 00 	unimp  0
    5a10:	44 00 00 1e 	call  10005a88 <_trap_table-0x304fa578>
    5a14:	00 00 00 14 	unimp  0x14
    5a18:	00 00 00 00 	unimp  0
    5a1c:	44 00 00 1b 	call  10005a88 <_trap_table-0x304fa578>
    5a20:	00 00 00 14 	unimp  0x14
    5a24:	00 00 00 00 	unimp  0
    5a28:	44 00 00 1c 	call  10005a98 <_trap_table-0x304fa568>
    5a2c:	00 00 00 1c 	unimp  0x1c
    5a30:	00 00 00 00 	unimp  0
    5a34:	24 00 00 00 	unknown
    5a38:	00 00 00 30 	unimp  0x30
    5a3c:	00 00 3d 3d 	unimp  0x3d3d
    5a40:	24 00 00 23 	unknown
    5a44:	40 50 29 ac 	call  14100f4 <_trap_table-0x3f0eff0c>
    5a48:	00 00 3d 2f 	unimp  0x3d2f
    5a4c:	40 00 00 22 	call  5ad4 <_trap_table-0x404fa52c>
    5a50:	00 00 00 08 	unimp  0x8
    5a54:	00 00 00 00 	unimp  0
    5a58:	44 00 00 23 	call  10005ae4 <_trap_table-0x304fa51c>
    5a5c:	00 00 00 00 	unimp  0
    5a60:	00 00 00 00 	unimp  0
    5a64:	44 00 00 24 	call  10005af4 <_trap_table-0x304fa50c>
    5a68:	00 00 00 04 	unimp  0x4
    5a6c:	00 00 00 00 	unimp  0
    5a70:	44 00 00 23 	call  10005afc <_trap_table-0x304fa504>
    5a74:	00 00 00 0c 	unimp  0xc
    5a78:	00 00 00 00 	unimp  0
    5a7c:	44 00 00 24 	call  10005b0c <_trap_table-0x304fa4f4>
    5a80:	00 00 00 10 	unimp  0x10
    5a84:	00 00 00 00 	unimp  0
    5a88:	44 00 00 27 	call  10005b24 <_trap_table-0x304fa4dc>
    5a8c:	00 00 00 14 	unimp  0x14
    5a90:	00 00 00 00 	unimp  0
    5a94:	44 00 00 24 	call  10005b24 <_trap_table-0x304fa4dc>
    5a98:	00 00 00 14 	unimp  0x14
    5a9c:	00 00 00 00 	unimp  0
    5aa0:	44 00 00 25 	call  10005b34 <_trap_table-0x304fa4cc>
    5aa4:	00 00 00 1c 	unimp  0x1c
    5aa8:	00 00 00 00 	unimp  0
    5aac:	24 00 00 00 	unknown
    5ab0:	00 00 00 30 	unimp  0x30
    5ab4:	00 00 3d 5d 	unimp  0x3d5d
    5ab8:	24 00 00 2c 	unknown
    5abc:	40 50 29 dc 	call  141022c <_trap_table-0x3f0efdd4>
    5ac0:	00 00 3d 2f 	unimp  0x3d2f
    5ac4:	40 00 00 2b 	call  5b70 <_trap_table-0x404fa490>
    5ac8:	00 00 00 08 	unimp  0x8
    5acc:	00 00 00 00 	unimp  0
    5ad0:	44 00 00 2c 	call  10005b80 <_trap_table-0x304fa480>
    5ad4:	00 00 00 00 	unimp  0
    5ad8:	00 00 00 00 	unimp  0
    5adc:	44 00 00 2d 	call  10005b90 <_trap_table-0x304fa470>
    5ae0:	00 00 00 04 	unimp  0x4
    5ae4:	00 00 00 00 	unimp  0
    5ae8:	44 00 00 2c 	call  10005b98 <_trap_table-0x304fa468>
    5aec:	00 00 00 0c 	unimp  0xc
    5af0:	00 00 00 00 	unimp  0
    5af4:	44 00 00 2d 	call  10005ba8 <_trap_table-0x304fa458>
    5af8:	00 00 00 10 	unimp  0x10
    5afc:	00 00 00 00 	unimp  0
    5b00:	44 00 00 30 	call  10005bc0 <_trap_table-0x304fa440>
    5b04:	00 00 00 14 	unimp  0x14
    5b08:	00 00 00 00 	unimp  0
    5b0c:	44 00 00 2d 	call  10005bc0 <_trap_table-0x304fa440>
    5b10:	00 00 00 14 	unimp  0x14
    5b14:	00 00 00 00 	unimp  0
    5b18:	44 00 00 2e 	call  10005bd0 <_trap_table-0x304fa430>
    5b1c:	00 00 00 1c 	unimp  0x1c
    5b20:	00 00 00 00 	unimp  0
    5b24:	24 00 00 00 	unknown
    5b28:	00 00 00 30 	unimp  0x30
    5b2c:	00 00 3d 80 	unimp  0x3d80
    5b30:	24 00 00 35 	unknown
    5b34:	40 50 2a 0c 	call  1410364 <_trap_table-0x3f0efc9c>
    5b38:	00 00 3d 2f 	unimp  0x3d2f
    5b3c:	40 00 00 34 	call  5c0c <_trap_table-0x404fa3f4>
    5b40:	00 00 00 08 	unimp  0x8
    5b44:	00 00 00 00 	unimp  0
    5b48:	44 00 00 35 	call  10005c1c <_trap_table-0x304fa3e4>
    5b4c:	00 00 00 00 	unimp  0
    5b50:	00 00 00 00 	unimp  0
    5b54:	44 00 00 36 	call  10005c2c <_trap_table-0x304fa3d4>
    5b58:	00 00 00 04 	unimp  0x4
    5b5c:	00 00 00 00 	unimp  0
    5b60:	44 00 00 35 	call  10005c34 <_trap_table-0x304fa3cc>
    5b64:	00 00 00 0c 	unimp  0xc
    5b68:	00 00 00 00 	unimp  0
    5b6c:	44 00 00 36 	call  10005c44 <_trap_table-0x304fa3bc>
    5b70:	00 00 00 10 	unimp  0x10
    5b74:	00 00 00 00 	unimp  0
    5b78:	44 00 00 39 	call  10005c5c <_trap_table-0x304fa3a4>
    5b7c:	00 00 00 14 	unimp  0x14
    5b80:	00 00 00 00 	unimp  0
    5b84:	44 00 00 36 	call  10005c5c <_trap_table-0x304fa3a4>
    5b88:	00 00 00 14 	unimp  0x14
    5b8c:	00 00 00 00 	unimp  0
    5b90:	44 00 00 37 	call  10005c6c <_trap_table-0x304fa394>
    5b94:	00 00 00 1c 	unimp  0x1c
    5b98:	00 00 00 00 	unimp  0
    5b9c:	24 00 00 00 	unknown
    5ba0:	00 00 00 30 	unimp  0x30
    5ba4:	00 00 3d a2 	unimp  0x3da2
    5ba8:	24 00 00 3e 	unknown
    5bac:	40 50 2a 3c 	call  141049c <_trap_table-0x3f0efb64>
    5bb0:	00 00 3d c6 	unimp  0x3dc6
    5bb4:	40 00 00 3d 	call  5ca8 <_trap_table-0x404fa358>
    5bb8:	00 00 00 08 	unimp  0x8
    5bbc:	00 00 00 00 	unimp  0
    5bc0:	44 00 00 3e 	call  10005cb8 <_trap_table-0x304fa348>
    5bc4:	00 00 00 00 	unimp  0
    5bc8:	00 00 00 00 	unimp  0
    5bcc:	44 00 00 3f 	call  10005cc8 <_trap_table-0x304fa338>
    5bd0:	00 00 00 04 	unimp  0x4
    5bd4:	00 00 00 00 	unimp  0
    5bd8:	44 00 00 3e 	call  10005cd0 <_trap_table-0x304fa330>
    5bdc:	00 00 00 0c 	unimp  0xc
    5be0:	00 00 00 00 	unimp  0
    5be4:	44 00 00 3f 	call  10005ce0 <_trap_table-0x304fa320>
    5be8:	00 00 00 10 	unimp  0x10
    5bec:	00 00 00 00 	unimp  0
    5bf0:	44 00 00 42 	call  10005cf8 <_trap_table-0x304fa308>
    5bf4:	00 00 00 14 	unimp  0x14
    5bf8:	00 00 00 00 	unimp  0
    5bfc:	44 00 00 3f 	call  10005cf8 <_trap_table-0x304fa308>
    5c00:	00 00 00 14 	unimp  0x14
    5c04:	00 00 00 00 	unimp  0
    5c08:	44 00 00 40 	call  10005d08 <_trap_table-0x304fa2f8>
    5c0c:	00 00 00 1c 	unimp  0x1c
    5c10:	00 00 00 00 	unimp  0
    5c14:	24 00 00 00 	unknown
    5c18:	00 00 00 30 	unimp  0x30
    5c1c:	00 00 3d d3 	unimp  0x3dd3
    5c20:	24 00 00 47 	unknown
    5c24:	40 50 2a 6c 	call  14105d4 <_trap_table-0x3f0efa2c>
    5c28:	00 00 3d c6 	unimp  0x3dc6
    5c2c:	40 00 00 46 	call  5d44 <_trap_table-0x404fa2bc>
    5c30:	00 00 00 08 	unimp  0x8
    5c34:	00 00 00 00 	unimp  0
    5c38:	44 00 00 47 	call  10005d54 <_trap_table-0x304fa2ac>
    5c3c:	00 00 00 00 	unimp  0
    5c40:	00 00 00 00 	unimp  0
    5c44:	44 00 00 48 	call  10005d64 <_trap_table-0x304fa29c>
    5c48:	00 00 00 04 	unimp  0x4
    5c4c:	00 00 00 00 	unimp  0
    5c50:	44 00 00 47 	call  10005d6c <_trap_table-0x304fa294>
    5c54:	00 00 00 0c 	unimp  0xc
    5c58:	00 00 00 00 	unimp  0
    5c5c:	44 00 00 48 	call  10005d7c <_trap_table-0x304fa284>
    5c60:	00 00 00 10 	unimp  0x10
    5c64:	00 00 00 00 	unimp  0
    5c68:	44 00 00 4b 	call  10005d94 <_trap_table-0x304fa26c>
    5c6c:	00 00 00 14 	unimp  0x14
    5c70:	00 00 00 00 	unimp  0
    5c74:	44 00 00 48 	call  10005d94 <_trap_table-0x304fa26c>
    5c78:	00 00 00 14 	unimp  0x14
    5c7c:	00 00 00 00 	unimp  0
    5c80:	44 00 00 49 	call  10005da4 <_trap_table-0x304fa25c>
    5c84:	00 00 00 1c 	unimp  0x1c
    5c88:	00 00 00 00 	unimp  0
    5c8c:	24 00 00 00 	unknown
    5c90:	00 00 00 30 	unimp  0x30
    5c94:	00 00 3d fa 	unimp  0x3dfa
    5c98:	24 00 00 51 	unknown
    5c9c:	40 50 2a 9c 	call  141070c <_trap_table-0x3f0ef8f4>
    5ca0:	00 00 3d c6 	unimp  0x3dc6
    5ca4:	40 00 00 4f 	call  5de0 <_trap_table-0x404fa220>
    5ca8:	00 00 00 08 	unimp  0x8
    5cac:	00 00 3e 21 	unimp  0x3e21
    5cb0:	40 00 00 50 	call  5df0 <_trap_table-0x404fa210>
    5cb4:	00 00 00 09 	unimp  0x9
    5cb8:	00 00 00 00 	unimp  0
    5cbc:	44 00 00 51 	call  10005e00 <_trap_table-0x304fa200>
    5cc0:	00 00 00 00 	unimp  0
    5cc4:	00 00 00 00 	unimp  0
    5cc8:	44 00 00 52 	call  10005e10 <_trap_table-0x304fa1f0>
    5ccc:	00 00 00 04 	unimp  0x4
    5cd0:	00 00 00 00 	unimp  0
    5cd4:	44 00 00 51 	call  10005e18 <_trap_table-0x304fa1e8>
    5cd8:	00 00 00 0c 	unimp  0xc
    5cdc:	00 00 00 00 	unimp  0
    5ce0:	44 00 00 52 	call  10005e28 <_trap_table-0x304fa1d8>
    5ce4:	00 00 00 14 	unimp  0x14
    5ce8:	00 00 00 00 	unimp  0
    5cec:	44 00 00 55 	call  10005e40 <_trap_table-0x304fa1c0>
    5cf0:	00 00 00 18 	unimp  0x18
    5cf4:	00 00 00 00 	unimp  0
    5cf8:	44 00 00 52 	call  10005e40 <_trap_table-0x304fa1c0>
    5cfc:	00 00 00 18 	unimp  0x18
    5d00:	00 00 00 00 	unimp  0
    5d04:	44 00 00 53 	call  10005e50 <_trap_table-0x304fa1b0>
    5d08:	00 00 00 20 	unimp  0x20
    5d0c:	00 00 00 00 	unimp  0
    5d10:	24 00 00 00 	unknown
    5d14:	00 00 00 34 	unimp  0x34
    5d18:	00 00 3e 2d 	unimp  0x3e2d
    5d1c:	20 00 00 05 	unknown
    5d20:	00 00 00 00 	unimp  0
    5d24:	00 00 3e 5e 	unimp  0x3e5e
    5d28:	20 00 00 06 	unknown
    5d2c:	00 00 00 00 	unimp  0
    5d30:	00 00 3e 92 	unimp  0x3e92
    5d34:	20 00 00 07 	unknown
    5d38:	00 00 00 00 	unimp  0
    5d3c:	00 00 3e b7 	unimp  0x3eb7
    5d40:	20 00 00 08 	unknown
    5d44:	00 00 00 00 	unimp  0
    5d48:	00 00 3e d9 	unimp  0x3ed9
    5d4c:	20 00 00 09 	unknown
    5d50:	00 00 00 00 	unimp  0
    5d54:	00 00 3e fd 	unimp  0x3efd
    5d58:	20 00 00 0a 	unknown
    5d5c:	00 00 00 00 	unimp  0
    5d60:	00 00 3f 32 	unimp  0x3f32
    5d64:	20 00 00 0b 	unknown
    5d68:	00 00 00 00 	unimp  0
    5d6c:	00 00 3f 5b 	unimp  0x3f5b
    5d70:	20 00 00 0c 	unknown
	...
    5d7c:	64 00 00 00 	call  90005d7c <LEON_REG+0x10005d7c>
    5d80:	40 50 2a d0 	call  14108c0 <_trap_table-0x3f0ef740>
    5d84:	00 00 3f 93 	unimp  0x3f93
    5d88:	64 00 00 00 	call  90005d88 <LEON_REG+0x10005d88>
    5d8c:	40 50 2a d0 	call  14108cc <_trap_table-0x3f0ef734>
    5d90:	00 00 3f a3 	unimp  0x3fa3
    5d94:	84 00 00 00 	add  %g0, %g0, %g2
    5d98:	40 50 2a d0 	call  14108d8 <_trap_table-0x3f0ef728>
    5d9c:	00 00 00 00 	unimp  0
    5da0:	44 00 00 44 	call  10005eb0 <_trap_table-0x304fa150>
    5da4:	40 50 2a d0 	call  14108e4 <_trap_table-0x3f0ef71c>
    5da8:	00 00 00 00 	unimp  0
    5dac:	44 00 00 46 	call  10005ec4 <_trap_table-0x304fa13c>
    5db0:	40 50 2a d4 	call  1410900 <_trap_table-0x3f0ef700>
    5db4:	00 00 00 00 	unimp  0
    5db8:	44 00 00 47 	call  10005ed4 <_trap_table-0x304fa12c>
    5dbc:	40 50 2a dc 	call  141092c <_trap_table-0x3f0ef6d4>
    5dc0:	00 00 00 00 	unimp  0
    5dc4:	44 00 00 48 	call  10005ee4 <_trap_table-0x304fa11c>
    5dc8:	40 50 2a e0 	call  1410948 <_trap_table-0x3f0ef6b8>
    5dcc:	00 00 00 00 	unimp  0
    5dd0:	44 00 00 4a 	call  10005ef8 <_trap_table-0x304fa108>
    5dd4:	40 50 2a e4 	call  1410964 <_trap_table-0x3f0ef69c>
    5dd8:	00 00 00 00 	unimp  0
    5ddc:	44 00 00 4b 	call  10005f08 <_trap_table-0x304fa0f8>
    5de0:	40 50 2a ec 	call  1410990 <_trap_table-0x3f0ef670>
    5de4:	00 00 00 00 	unimp  0
    5de8:	44 00 00 4d 	call  10005f1c <_trap_table-0x304fa0e4>
    5dec:	40 50 2a f0 	call  14109ac <_trap_table-0x3f0ef654>
    5df0:	00 00 00 00 	unimp  0
    5df4:	44 00 00 4e 	call  10005f2c <_trap_table-0x304fa0d4>
    5df8:	40 50 2a f8 	call  14109d8 <_trap_table-0x3f0ef628>
    5dfc:	00 00 00 00 	unimp  0
    5e00:	44 00 00 4f 	call  10005f3c <_trap_table-0x304fa0c4>
    5e04:	40 50 2a fc 	call  14109f4 <_trap_table-0x3f0ef60c>
    5e08:	00 00 00 00 	unimp  0
    5e0c:	44 00 00 51 	call  10005f50 <_trap_table-0x304fa0b0>
    5e10:	40 50 2b 00 	call  1410a10 <_trap_table-0x3f0ef5f0>
    5e14:	00 00 00 00 	unimp  0
    5e18:	44 00 00 52 	call  10005f60 <_trap_table-0x304fa0a0>
    5e1c:	40 50 2b 08 	call  1410a3c <_trap_table-0x3f0ef5c4>
    5e20:	00 00 00 00 	unimp  0
    5e24:	44 00 00 53 	call  10005f70 <_trap_table-0x304fa090>
    5e28:	40 50 2b 0c 	call  1410a58 <_trap_table-0x3f0ef5a8>
    5e2c:	00 00 00 00 	unimp  0
    5e30:	44 00 00 71 	call  10005ff4 <_trap_table-0x304fa00c>
    5e34:	40 50 2b 10 	call  1410a74 <_trap_table-0x3f0ef58c>
    5e38:	00 00 00 00 	unimp  0
    5e3c:	44 00 00 72 	call  10006004 <_trap_table-0x304f9ffc>
    5e40:	40 50 2b 14 	call  1410a90 <_trap_table-0x3f0ef570>
    5e44:	00 00 00 00 	unimp  0
    5e48:	44 00 00 73 	call  10006014 <_trap_table-0x304f9fec>
    5e4c:	40 50 2b 18 	call  1410aac <_trap_table-0x3f0ef554>
    5e50:	00 00 00 00 	unimp  0
    5e54:	44 00 00 74 	call  10006024 <_trap_table-0x304f9fdc>
    5e58:	40 50 2b 1c 	call  1410ac8 <_trap_table-0x3f0ef538>
    5e5c:	00 00 00 00 	unimp  0
    5e60:	44 00 00 75 	call  10006034 <_trap_table-0x304f9fcc>
    5e64:	40 50 2b 20 	call  1410ae4 <_trap_table-0x3f0ef51c>
    5e68:	00 00 00 00 	unimp  0
    5e6c:	44 00 00 76 	call  10006044 <_trap_table-0x304f9fbc>
    5e70:	40 50 2b 24 	call  1410b00 <_trap_table-0x3f0ef500>
    5e74:	00 00 00 00 	unimp  0
    5e78:	44 00 00 78 	call  10006058 <_trap_table-0x304f9fa8>
    5e7c:	40 50 2b 28 	call  1410b1c <_trap_table-0x3f0ef4e4>
    5e80:	00 00 00 00 	unimp  0
    5e84:	44 00 00 79 	call  10006068 <_trap_table-0x304f9f98>
    5e88:	40 50 2b 2c 	call  1410b38 <_trap_table-0x3f0ef4c8>
    5e8c:	00 00 00 00 	unimp  0
    5e90:	44 00 00 7a 	call  10006078 <_trap_table-0x304f9f88>
    5e94:	40 50 2b 30 	call  1410b54 <_trap_table-0x3f0ef4ac>
    5e98:	00 00 00 00 	unimp  0
    5e9c:	44 00 00 7b 	call  10006088 <_trap_table-0x304f9f78>
    5ea0:	40 50 2b 34 	call  1410b70 <_trap_table-0x3f0ef490>
    5ea4:	00 00 00 00 	unimp  0
    5ea8:	44 00 00 7c 	call  10006098 <_trap_table-0x304f9f68>
    5eac:	40 50 2b 38 	call  1410b8c <_trap_table-0x3f0ef474>
    5eb0:	00 00 00 00 	unimp  0
    5eb4:	44 00 00 7f 	call  100060b0 <_trap_table-0x304f9f50>
    5eb8:	40 50 2b 3c 	call  1410ba8 <_trap_table-0x3f0ef458>
    5ebc:	00 00 00 00 	unimp  0
    5ec0:	44 00 00 80 	call  100060c0 <_trap_table-0x304f9f40>
    5ec4:	40 50 2b 40 	call  1410bc4 <_trap_table-0x3f0ef43c>
    5ec8:	00 00 00 00 	unimp  0
    5ecc:	44 00 00 85 	call  100060e0 <_trap_table-0x304f9f20>
    5ed0:	40 50 2b 44 	call  1410be0 <_trap_table-0x3f0ef420>
    5ed4:	00 00 00 00 	unimp  0
    5ed8:	44 00 00 86 	call  100060f0 <_trap_table-0x304f9f10>
    5edc:	40 50 2b 48 	call  1410bfc <_trap_table-0x3f0ef404>
    5ee0:	00 00 00 00 	unimp  0
    5ee4:	44 00 00 87 	call  10006100 <_trap_table-0x304f9f00>
    5ee8:	40 50 2b 4c 	call  1410c18 <_trap_table-0x3f0ef3e8>
    5eec:	00 00 00 00 	unimp  0
    5ef0:	44 00 00 89 	call  10006114 <_trap_table-0x304f9eec>
    5ef4:	40 50 2b 50 	call  1410c34 <_trap_table-0x3f0ef3cc>
    5ef8:	00 00 00 00 	unimp  0
    5efc:	44 00 00 8a 	call  10006124 <_trap_table-0x304f9edc>
    5f00:	40 50 2b 54 	call  1410c50 <_trap_table-0x3f0ef3b0>
    5f04:	00 00 00 00 	unimp  0
    5f08:	44 00 00 8b 	call  10006134 <_trap_table-0x304f9ecc>
    5f0c:	40 50 2b 58 	call  1410c6c <_trap_table-0x3f0ef394>
    5f10:	00 00 00 00 	unimp  0
    5f14:	44 00 00 90 	call  10006154 <_trap_table-0x304f9eac>
    5f18:	40 50 2b 5c 	call  1410c88 <_trap_table-0x3f0ef378>
    5f1c:	00 00 00 00 	unimp  0
    5f20:	44 00 00 91 	call  10006164 <_trap_table-0x304f9e9c>
    5f24:	40 50 2b 60 	call  1410ca4 <_trap_table-0x3f0ef35c>
    5f28:	00 00 00 00 	unimp  0
    5f2c:	44 00 00 92 	call  10006174 <_trap_table-0x304f9e8c>
    5f30:	40 50 2b 64 	call  1410cc0 <_trap_table-0x3f0ef340>
    5f34:	00 00 00 00 	unimp  0
    5f38:	44 00 00 93 	call  10006184 <_trap_table-0x304f9e7c>
    5f3c:	40 50 2b 68 	call  1410cdc <_trap_table-0x3f0ef324>
    5f40:	00 00 00 00 	unimp  0
    5f44:	44 00 00 94 	call  10006194 <_trap_table-0x304f9e6c>
    5f48:	40 50 2b 6c 	call  1410cf8 <_trap_table-0x3f0ef308>
    5f4c:	00 00 00 00 	unimp  0
    5f50:	44 00 00 96 	call  100061a8 <_trap_table-0x304f9e58>
    5f54:	40 50 2b 70 	call  1410d14 <_trap_table-0x3f0ef2ec>
    5f58:	00 00 00 00 	unimp  0
    5f5c:	44 00 00 97 	call  100061b8 <_trap_table-0x304f9e48>
    5f60:	40 50 2b 74 	call  1410d30 <_trap_table-0x3f0ef2d0>
    5f64:	00 00 00 00 	unimp  0
    5f68:	44 00 00 98 	call  100061c8 <_trap_table-0x304f9e38>
    5f6c:	40 50 2b 80 	call  1410d6c <_trap_table-0x3f0ef294>
    5f70:	00 00 00 00 	unimp  0
    5f74:	44 00 00 99 	call  100061d8 <_trap_table-0x304f9e28>
    5f78:	40 50 2b 84 	call  1410d88 <_trap_table-0x3f0ef278>
    5f7c:	00 00 3f d9 	unimp  0x3fd9
    5f80:	64 00 00 00 	call  90005f80 <LEON_REG+0x10005f80>
    5f84:	40 50 2b 88 	call  1410da4 <_trap_table-0x3f0ef25c>
    5f88:	00 00 3f e9 	unimp  0x3fe9
    5f8c:	84 00 00 00 	add  %g0, %g0, %g2
    5f90:	40 50 2b 88 	call  1410db0 <_trap_table-0x3f0ef250>
    5f94:	00 00 00 00 	unimp  0
    5f98:	44 00 00 26 	call  10006030 <_trap_table-0x304f9fd0>
    5f9c:	40 50 2b 88 	call  1410dbc <_trap_table-0x3f0ef244>
    5fa0:	00 00 00 00 	unimp  0
    5fa4:	44 00 00 27 	call  10006040 <_trap_table-0x304f9fc0>
    5fa8:	40 50 2b 8c 	call  1410dd8 <_trap_table-0x3f0ef228>
    5fac:	00 00 00 00 	unimp  0
    5fb0:	44 00 00 70 	call  10006170 <_trap_table-0x304f9e90>
    5fb4:	40 50 2b 90 	call  1410df4 <_trap_table-0x3f0ef20c>
    5fb8:	00 00 00 00 	unimp  0
    5fbc:	44 00 00 71 	call  10006180 <_trap_table-0x304f9e80>
    5fc0:	40 50 2b 94 	call  1410e10 <_trap_table-0x3f0ef1f0>
    5fc4:	00 00 40 25 	unimp  0x4025
    5fc8:	64 00 00 00 	call  90005fc8 <LEON_REG+0x10005fc8>
    5fcc:	40 50 2b 98 	call  1410e2c <_trap_table-0x3f0ef1d4>
    5fd0:	00 00 40 35 	unimp  0x4035
    5fd4:	84 00 00 00 	add  %g0, %g0, %g2
    5fd8:	40 50 2b 98 	call  1410e38 <_trap_table-0x3f0ef1c8>
    5fdc:	00 00 00 00 	unimp  0
    5fe0:	44 00 00 27 	call  1000607c <_trap_table-0x304f9f84>
    5fe4:	40 50 2b 98 	call  1410e44 <_trap_table-0x3f0ef1bc>
    5fe8:	00 00 00 00 	unimp  0
    5fec:	44 00 00 28 	call  1000608c <_trap_table-0x304f9f74>
    5ff0:	40 50 2b 9c 	call  1410e60 <_trap_table-0x3f0ef1a0>
    5ff4:	00 00 00 00 	unimp  0
    5ff8:	44 00 00 29 	call  1000609c <_trap_table-0x304f9f64>
    5ffc:	40 50 2b a0 	call  1410e7c <_trap_table-0x3f0ef184>
    6000:	00 00 00 00 	unimp  0
    6004:	44 00 00 2a 	call  100060ac <_trap_table-0x304f9f54>
    6008:	40 50 2b a4 	call  1410e98 <_trap_table-0x3f0ef168>
    600c:	00 00 00 00 	unimp  0
    6010:	44 00 00 2b 	call  100060bc <_trap_table-0x304f9f44>
    6014:	40 50 2b a8 	call  1410eb4 <_trap_table-0x3f0ef14c>
    6018:	00 00 00 00 	unimp  0
    601c:	44 00 00 2c 	call  100060cc <_trap_table-0x304f9f34>
    6020:	40 50 2b ac 	call  1410ed0 <_trap_table-0x3f0ef130>
    6024:	00 00 00 00 	unimp  0
    6028:	44 00 00 2d 	call  100060dc <_trap_table-0x304f9f24>
    602c:	40 50 2b b0 	call  1410eec <_trap_table-0x3f0ef114>
    6030:	00 00 00 00 	unimp  0
    6034:	44 00 00 2e 	call  100060ec <_trap_table-0x304f9f14>
    6038:	40 50 2b b8 	call  1410f18 <_trap_table-0x3f0ef0e8>
    603c:	00 00 00 00 	unimp  0
    6040:	44 00 00 2f 	call  100060fc <_trap_table-0x304f9f04>
    6044:	40 50 2b bc 	call  1410f34 <_trap_table-0x3f0ef0cc>
    6048:	00 00 00 00 	unimp  0
    604c:	44 00 00 30 	call  1000610c <_trap_table-0x304f9ef4>
    6050:	40 50 2b c0 	call  1410f50 <_trap_table-0x3f0ef0b0>
    6054:	00 00 00 00 	unimp  0
    6058:	44 00 00 31 	call  1000611c <_trap_table-0x304f9ee4>
    605c:	40 50 2b c4 	call  1410f6c <_trap_table-0x3f0ef094>
    6060:	00 00 00 00 	unimp  0
    6064:	44 00 00 33 	call  10006130 <_trap_table-0x304f9ed0>
    6068:	40 50 2b c8 	call  1410f88 <_trap_table-0x3f0ef078>
    606c:	00 00 00 00 	unimp  0
    6070:	44 00 00 34 	call  10006140 <_trap_table-0x304f9ec0>
    6074:	40 50 2b d0 	call  1410fb4 <_trap_table-0x3f0ef04c>
    6078:	00 00 00 00 	unimp  0
    607c:	44 00 00 35 	call  10006150 <_trap_table-0x304f9eb0>
    6080:	40 50 2b d4 	call  1410fd0 <_trap_table-0x3f0ef030>
    6084:	00 00 00 00 	unimp  0
    6088:	44 00 00 36 	call  10006160 <_trap_table-0x304f9ea0>
    608c:	40 50 2b d8 	call  1410fec <_trap_table-0x3f0ef014>
    6090:	00 00 00 00 	unimp  0
    6094:	44 00 00 37 	call  10006170 <_trap_table-0x304f9e90>
    6098:	40 50 2b dc 	call  1411008 <_trap_table-0x3f0eeff8>
    609c:	00 00 00 00 	unimp  0
    60a0:	44 00 00 38 	call  10006180 <_trap_table-0x304f9e80>
    60a4:	40 50 2b e0 	call  1411024 <_trap_table-0x3f0eefdc>
    60a8:	00 00 00 00 	unimp  0
    60ac:	44 00 00 3a 	call  10006194 <_trap_table-0x304f9e6c>
    60b0:	40 50 2b e4 	call  1411040 <_trap_table-0x3f0eefc0>
    60b4:	00 00 00 00 	unimp  0
    60b8:	44 00 00 3b 	call  100061a4 <_trap_table-0x304f9e5c>
    60bc:	40 50 2b e8 	call  141105c <_trap_table-0x3f0eefa4>
    60c0:	00 00 00 00 	unimp  0
    60c4:	44 00 00 3c 	call  100061b4 <_trap_table-0x304f9e4c>
    60c8:	40 50 2b f0 	call  1411088 <_trap_table-0x3f0eef78>
    60cc:	00 00 00 00 	unimp  0
    60d0:	44 00 00 3d 	call  100061c4 <_trap_table-0x304f9e3c>
    60d4:	40 50 2b f4 	call  14110a4 <_trap_table-0x3f0eef5c>
    60d8:	00 00 00 00 	unimp  0
    60dc:	44 00 00 3e 	call  100061d4 <_trap_table-0x304f9e2c>
    60e0:	40 50 2b f8 	call  14110c0 <_trap_table-0x3f0eef40>
    60e4:	00 00 00 00 	unimp  0
    60e8:	44 00 00 3f 	call  100061e4 <_trap_table-0x304f9e1c>
    60ec:	40 50 2c 00 	call  14110ec <_trap_table-0x3f0eef14>
    60f0:	00 00 00 00 	unimp  0
    60f4:	44 00 00 40 	call  100061f4 <_trap_table-0x304f9e0c>
    60f8:	40 50 2c 04 	call  1411108 <_trap_table-0x3f0eeef8>
    60fc:	00 00 00 00 	unimp  0
    6100:	44 00 00 41 	call  10006204 <_trap_table-0x304f9dfc>
    6104:	40 50 2c 0c 	call  1411134 <_trap_table-0x3f0eeecc>
    6108:	00 00 00 00 	unimp  0
    610c:	44 00 00 42 	call  10006214 <_trap_table-0x304f9dec>
    6110:	40 50 2c 10 	call  1411150 <_trap_table-0x3f0eeeb0>
    6114:	00 00 00 00 	unimp  0
    6118:	44 00 00 46 	call  10006230 <_trap_table-0x304f9dd0>
    611c:	40 50 2c 14 	call  141116c <_trap_table-0x3f0eee94>
    6120:	00 00 00 00 	unimp  0
    6124:	44 00 00 47 	call  10006240 <_trap_table-0x304f9dc0>
    6128:	40 50 2c 18 	call  1411188 <_trap_table-0x3f0eee78>
    612c:	00 00 40 6f 	unimp  0x406f
    6130:	64 00 00 00 	call  90006130 <LEON_REG+0x10006130>
    6134:	40 50 2c 1c 	call  14111a4 <_trap_table-0x3f0eee5c>
    6138:	00 00 40 7f 	unimp  0x407f
    613c:	84 00 00 00 	add  %g0, %g0, %g2
    6140:	40 50 2c 1c 	call  14111b0 <_trap_table-0x3f0eee50>
    6144:	00 00 00 00 	unimp  0
    6148:	44 00 00 23 	call  100061d4 <_trap_table-0x304f9e2c>
    614c:	40 50 2c 1c 	call  14111bc <_trap_table-0x3f0eee44>
    6150:	00 00 00 00 	unimp  0
    6154:	44 00 00 24 	call  100061e4 <_trap_table-0x304f9e1c>
    6158:	40 50 2c 20 	call  14111d8 <_trap_table-0x3f0eee28>
    615c:	00 00 27 b1 	unimp  0x27b1
    6160:	64 00 00 00 	call  90006160 <LEON_REG+0x10006160>
    6164:	40 50 2c 24 	call  14111f4 <_trap_table-0x3f0eee0c>
    6168:	00 00 40 bd 	unimp  0x40bd
    616c:	64 00 00 00 	call  9000616c <LEON_REG+0x1000616c>
    6170:	40 50 2c 24 	call  1411200 <_trap_table-0x3f0eee00>
    6174:	00 00 01 23 	unimp  0x123
    6178:	3c 00 00 00 	unknown
    617c:	00 00 00 00 	unimp  0
    6180:	00 00 01 32 	unimp  0x132
    6184:	80 00 00 00 	add  %g0, %g0, %g0
    6188:	00 00 00 00 	unimp  0
    618c:	00 00 01 5c 	unimp  0x15c
    6190:	80 00 00 00 	add  %g0, %g0, %g0
    6194:	00 00 00 00 	unimp  0
    6198:	00 00 01 76 	unimp  0x176
    619c:	80 00 00 00 	add  %g0, %g0, %g0
    61a0:	00 00 00 00 	unimp  0
    61a4:	00 00 01 a5 	unimp  0x1a5
    61a8:	80 00 00 00 	add  %g0, %g0, %g0
    61ac:	00 00 00 00 	unimp  0
    61b0:	00 00 01 dd 	unimp  0x1dd
    61b4:	80 00 00 00 	add  %g0, %g0, %g0
    61b8:	00 00 00 00 	unimp  0
    61bc:	00 00 02 1a 	unimp  0x21a
    61c0:	80 00 00 00 	add  %g0, %g0, %g0
    61c4:	00 00 00 00 	unimp  0
    61c8:	00 00 02 6b 	unimp  0x26b
    61cc:	80 00 00 00 	add  %g0, %g0, %g0
    61d0:	00 00 00 00 	unimp  0
    61d4:	00 00 02 bc 	unimp  0x2bc
    61d8:	80 00 00 00 	add  %g0, %g0, %g0
    61dc:	00 00 00 00 	unimp  0
    61e0:	00 00 02 e7 	unimp  0x2e7
    61e4:	80 00 00 00 	add  %g0, %g0, %g0
    61e8:	00 00 00 00 	unimp  0
    61ec:	00 00 03 16 	unimp  0x316
    61f0:	80 00 00 00 	add  %g0, %g0, %g0
    61f4:	00 00 00 00 	unimp  0
    61f8:	00 00 03 40 	unimp  0x340
    61fc:	80 00 00 00 	add  %g0, %g0, %g0
    6200:	00 00 00 00 	unimp  0
    6204:	00 00 03 69 	unimp  0x369
    6208:	80 00 00 00 	add  %g0, %g0, %g0
    620c:	00 00 00 00 	unimp  0
    6210:	00 00 03 83 	unimp  0x383
    6214:	80 00 00 00 	add  %g0, %g0, %g0
    6218:	00 00 00 00 	unimp  0
    621c:	00 00 03 9e 	unimp  0x39e
    6220:	80 00 00 00 	add  %g0, %g0, %g0
    6224:	00 00 00 00 	unimp  0
    6228:	00 00 03 be 	unimp  0x3be
    622c:	80 00 00 00 	add  %g0, %g0, %g0
    6230:	00 00 00 00 	unimp  0
    6234:	00 00 03 f7 	unimp  0x3f7
    6238:	80 00 00 00 	add  %g0, %g0, %g0
    623c:	00 00 00 00 	unimp  0
    6240:	00 00 04 15 	unimp  0x415
    6244:	80 00 00 00 	add  %g0, %g0, %g0
    6248:	00 00 00 00 	unimp  0
    624c:	00 00 04 35 	unimp  0x435
    6250:	80 00 00 00 	add  %g0, %g0, %g0
    6254:	00 00 00 00 	unimp  0
    6258:	00 00 04 5a 	unimp  0x45a
    625c:	80 00 00 00 	add  %g0, %g0, %g0
    6260:	00 00 00 00 	unimp  0
    6264:	00 00 04 6e 	unimp  0x46e
    6268:	80 00 00 00 	add  %g0, %g0, %g0
    626c:	00 00 00 00 	unimp  0
    6270:	00 00 04 90 	unimp  0x490
    6274:	80 00 00 00 	add  %g0, %g0, %g0
    6278:	00 00 00 00 	unimp  0
    627c:	00 00 1c bb 	unimp  0x1cbb
    6280:	c2 00 00 00 	ld  [ %g0 ], %g1
    6284:	00 00 c7 75 	unimp  0xc775
    6288:	00 00 05 ad 	unimp  0x5ad
    628c:	c2 00 00 00 	ld  [ %g0 ], %g1
    6290:	00 00 3b 70 	unimp  0x3b70
    6294:	00 00 28 e8 	unimp  0x28e8
    6298:	c2 00 00 00 	ld  [ %g0 ], %g1
    629c:	00 00 1f b7 	unimp  0x1fb7
    62a0:	00 00 29 0f 	unimp  0x290f
    62a4:	c2 00 00 00 	ld  [ %g0 ], %g1
    62a8:	00 00 bc 67 	unimp  0xbc67
    62ac:	00 00 04 ed 	unimp  0x4ed
    62b0:	c2 00 00 00 	ld  [ %g0 ], %g1
    62b4:	00 00 04 de 	unimp  0x4de
    62b8:	00 00 04 ed 	unimp  0x4ed
    62bc:	c2 00 00 00 	ld  [ %g0 ], %g1
    62c0:	00 00 10 15 	unimp  0x1015
    62c4:	00 00 18 2c 	unimp  0x182c
    62c8:	c2 00 00 00 	ld  [ %g0 ], %g1
    62cc:	00 00 0f b1 	unimp  0xfb1
    62d0:	00 00 40 f4 	unimp  0x40f4
    62d4:	82 00 00 00 	add  %g0, %g0, %g1
    62d8:	00 00 36 5e 	unimp  0x365e
    62dc:	00 00 41 3c 	unimp  0x413c
    62e0:	80 00 00 00 	add  %g0, %g0, %g0
    62e4:	00 00 00 00 	unimp  0
    62e8:	00 00 41 75 	unimp  0x4175
    62ec:	80 00 00 00 	add  %g0, %g0, %g0
    62f0:	00 00 00 00 	unimp  0
    62f4:	00 00 41 ba 	unimp  0x41ba
    62f8:	80 00 00 00 	add  %g0, %g0, %g0
	...
    6304:	a2 00 00 00 	add  %g0, %g0, %l1
    6308:	00 00 00 00 	unimp  0
    630c:	00 00 28 9f 	unimp  0x289f
    6310:	c2 00 00 00 	ld  [ %g0 ], %g1
    6314:	00 00 00 00 	unimp  0
    6318:	00 00 05 64 	unimp  0x564
    631c:	c2 00 00 00 	ld  [ %g0 ], %g1
    6320:	00 02 bf 15 	unimp  0x2bf15
    6324:	00 00 3c 6b 	unimp  0x3c6b
    6328:	c2 00 00 00 	ld  [ %g0 ], %g1
    632c:	00 00 08 d3 	unimp  0x8d3
    6330:	00 00 2d 91 	unimp  0x2d91
    6334:	c2 00 00 00 	ld  [ %g0 ], %g1
    6338:	00 01 41 af 	unimp  0x141af
    633c:	00 00 2d bd 	unimp  0x2dbd
    6340:	82 00 00 00 	add  %g0, %g0, %g1
    6344:	00 01 84 d0 	unimp  0x184d0
    6348:	00 00 41 fc 	unimp  0x41fc
    634c:	80 00 01 23 	unknown
    6350:	00 00 00 00 	unimp  0
    6354:	00 00 43 b6 	unimp  0x43b6
    6358:	80 00 01 2b 	unknown
    635c:	00 00 00 00 	unimp  0
    6360:	00 00 44 29 	unimp  0x4429
    6364:	80 00 01 34 	unknown
    6368:	00 00 00 00 	unimp  0
    636c:	00 00 44 9b 	unimp  0x449b
    6370:	80 00 01 3d 	unknown
    6374:	00 00 00 00 	unimp  0
    6378:	00 00 45 4a 	unimp  0x454a
    637c:	80 00 01 4b 	unknown
    6380:	00 00 00 00 	unimp  0
    6384:	00 00 45 e9 	unimp  0x45e9
    6388:	80 00 00 00 	add  %g0, %g0, %g0
    638c:	00 00 00 00 	unimp  0
    6390:	00 00 46 77 	unimp  0x4677
    6394:	80 00 01 57 	unknown
    6398:	00 00 00 00 	unimp  0
    639c:	00 00 46 9a 	unimp  0x469a
    63a0:	80 00 00 00 	add  %g0, %g0, %g0
    63a4:	00 00 00 00 	unimp  0
    63a8:	00 00 47 15 	unimp  0x4715
    63ac:	80 00 01 5e 	unknown
    63b0:	00 00 00 00 	unimp  0
    63b4:	00 00 47 39 	unimp  0x4739
    63b8:	80 00 00 00 	add  %g0, %g0, %g0
    63bc:	00 00 00 00 	unimp  0
    63c0:	00 00 47 77 	unimp  0x4777
    63c4:	80 00 01 67 	unknown
    63c8:	00 00 00 00 	unimp  0
    63cc:	00 00 47 98 	unimp  0x4798
    63d0:	80 00 00 00 	add  %g0, %g0, %g0
    63d4:	00 00 00 00 	unimp  0
    63d8:	00 00 47 ee 	unimp  0x47ee
    63dc:	80 00 01 6e 	unknown
	...
    63e8:	a2 00 00 00 	add  %g0, %g0, %l1
    63ec:	00 00 00 00 	unimp  0
    63f0:	00 00 2d 66 	unimp  0x2d66
    63f4:	82 00 00 00 	add  %g0, %g0, %g1
    63f8:	00 00 71 db 	unimp  0x71db
    63fc:	00 00 2a cf 	unimp  0x2acf
    6400:	82 00 00 00 	add  %g0, %g0, %g1
    6404:	00 00 94 11 	unimp  0x9411
    6408:	00 00 48 0f 	unimp  0x480f
    640c:	80 00 00 00 	add  %g0, %g0, %g0
    6410:	00 00 00 00 	unimp  0
    6414:	00 00 48 93 	unimp  0x4893
    6418:	80 00 00 00 	add  %g0, %g0, %g0
    641c:	00 00 00 00 	unimp  0
    6420:	00 00 49 9d 	unimp  0x499d
    6424:	80 00 00 00 	add  %g0, %g0, %g0
    6428:	00 00 00 00 	unimp  0
    642c:	00 00 49 e6 	unimp  0x49e6
    6430:	80 00 00 00 	add  %g0, %g0, %g0
	...
    643c:	a2 00 00 00 	add  %g0, %g0, %l1
    6440:	00 00 00 00 	unimp  0
    6444:	00 00 4a 5b 	unimp  0x4a5b
    6448:	80 00 00 0c 	add  %g0, %o4, %g0
    644c:	00 00 00 00 	unimp  0
    6450:	00 00 4a 84 	unimp  0x4a84
    6454:	80 00 00 00 	add  %g0, %g0, %g0
    6458:	00 00 00 00 	unimp  0
    645c:	00 00 4a ef 	unimp  0x4aef
    6460:	80 00 00 00 	add  %g0, %g0, %g0
    6464:	00 00 00 00 	unimp  0
    6468:	00 00 4b 2f 	unimp  0x4b2f
    646c:	80 00 00 1e 	add  %g0, %fp, %g0
    6470:	00 00 00 00 	unimp  0
    6474:	00 00 4b 5e 	unimp  0x4b5e
    6478:	80 00 00 20 	unknown
    647c:	00 00 00 00 	unimp  0
    6480:	00 00 4b 7c 	unimp  0x4b7c
    6484:	80 00 00 3a 	unknown
    6488:	00 00 00 00 	unimp  0
    648c:	00 00 4b 9c 	unimp  0x4b9c
    6490:	80 00 00 00 	add  %g0, %g0, %g0
	...
    649c:	a2 00 00 00 	add  %g0, %g0, %l1
    64a0:	00 00 00 00 	unimp  0
    64a4:	00 00 4c 34 	unimp  0x4c34
    64a8:	82 00 00 00 	add  %g0, %g0, %g1
    64ac:	00 00 00 00 	unimp  0
    64b0:	00 00 4c 63 	unimp  0x4c63
    64b4:	82 00 00 00 	add  %g0, %g0, %g1
    64b8:	00 00 03 2c 	unimp  0x32c
    64bc:	00 00 4c 90 	unimp  0x4c90
    64c0:	80 00 00 04 	add  %g0, %g4, %g0
	...
    64cc:	a2 00 00 00 	add  %g0, %g0, %l1
	...
    64d8:	a2 00 00 00 	add  %g0, %g0, %l1
    64dc:	00 00 00 00 	unimp  0
    64e0:	00 00 4c a2 	unimp  0x4ca2
    64e4:	20 00 00 23 	unknown
    64e8:	00 00 00 00 	unimp  0
    64ec:	00 00 4c b5 	unimp  0x4cb5
    64f0:	20 00 00 22 	unknown
	...
    64fc:	64 00 00 00 	call  900064fc <LEON_REG+0x100064fc>
    6500:	40 50 2c 24 	call  1411590 <_trap_table-0x3f0eea70>
    6504:	00 00 4c c3 	unimp  0x4cc3
    6508:	64 00 00 00 	call  90006508 <LEON_REG+0x10006508>
    650c:	40 50 2c 24 	call  141159c <_trap_table-0x3f0eea64>
    6510:	00 00 4c d3 	unimp  0x4cd3
    6514:	84 00 00 00 	add  %g0, %g0, %g2
    6518:	40 50 2c 24 	call  14115a8 <_trap_table-0x3f0eea58>
    651c:	00 00 00 00 	unimp  0
    6520:	44 00 00 2b 	call  100065cc <_trap_table-0x304f9a34>
    6524:	40 50 2c 24 	call  14115b4 <_trap_table-0x3f0eea4c>
    6528:	00 00 00 00 	unimp  0
    652c:	44 00 00 2c 	call  100065dc <_trap_table-0x304f9a24>
    6530:	40 50 2c 34 	call  1411600 <_trap_table-0x3f0eea00>
    6534:	00 00 00 00 	unimp  0
    6538:	44 00 00 2d 	call  100065ec <_trap_table-0x304f9a14>
    653c:	40 50 2c 38 	call  141161c <_trap_table-0x3f0ee9e4>
    6540:	00 00 4d 0a 	unimp  0x4d0a
    6544:	64 00 00 00 	call  90006544 <LEON_REG+0x10006544>
    6548:	40 50 2c 3c 	call  1411638 <_trap_table-0x3f0ee9c8>
    654c:	00 00 4d 1a 	unimp  0x4d1a
    6550:	84 00 00 00 	add  %g0, %g0, %g2
    6554:	40 50 2c 3c 	call  1411644 <_trap_table-0x3f0ee9bc>
    6558:	00 00 00 00 	unimp  0
    655c:	44 00 00 21 	call  100065e0 <_trap_table-0x304f9a20>
    6560:	40 50 2c 3c 	call  1411650 <_trap_table-0x3f0ee9b0>
    6564:	00 00 00 00 	unimp  0
    6568:	44 00 00 22 	call  100065f0 <_trap_table-0x304f9a10>
    656c:	40 50 2c 40 	call  141166c <_trap_table-0x3f0ee994>
    6570:	00 00 00 00 	unimp  0
    6574:	44 00 00 23 	call  10006600 <_trap_table-0x304f9a00>
    6578:	40 50 2c 44 	call  1411688 <_trap_table-0x3f0ee978>
    657c:	00 00 00 00 	unimp  0
    6580:	44 00 00 24 	call  10006610 <_trap_table-0x304f99f0>
    6584:	40 50 2c 48 	call  14116a4 <_trap_table-0x3f0ee95c>
    6588:	00 00 00 00 	unimp  0
    658c:	44 00 00 25 	call  10006620 <_trap_table-0x304f99e0>
    6590:	40 50 2c 4c 	call  14116c0 <_trap_table-0x3f0ee940>
    6594:	00 00 00 00 	unimp  0
    6598:	44 00 00 26 	call  10006630 <_trap_table-0x304f99d0>
    659c:	40 50 2c 50 	call  14116dc <_trap_table-0x3f0ee924>
    65a0:	00 00 00 00 	unimp  0
    65a4:	44 00 00 28 	call  10006644 <_trap_table-0x304f99bc>
    65a8:	40 50 2c 54 	call  14116f8 <_trap_table-0x3f0ee908>
    65ac:	00 00 00 00 	unimp  0
    65b0:	44 00 00 29 	call  10006654 <_trap_table-0x304f99ac>
    65b4:	40 50 2c 58 	call  1411714 <_trap_table-0x3f0ee8ec>
    65b8:	00 00 00 00 	unimp  0
    65bc:	44 00 00 2a 	call  10006664 <_trap_table-0x304f999c>
    65c0:	40 50 2c 5c 	call  1411730 <_trap_table-0x3f0ee8d0>
    65c4:	00 00 00 00 	unimp  0
    65c8:	44 00 00 2b 	call  10006674 <_trap_table-0x304f998c>
    65cc:	40 50 2c 60 	call  141174c <_trap_table-0x3f0ee8b4>
    65d0:	00 00 00 00 	unimp  0
    65d4:	44 00 00 2d 	call  10006688 <_trap_table-0x304f9978>
    65d8:	40 50 2c 64 	call  1411768 <_trap_table-0x3f0ee898>
    65dc:	00 00 00 00 	unimp  0
    65e0:	44 00 00 2e 	call  10006698 <_trap_table-0x304f9968>
    65e4:	40 50 2c 68 	call  1411784 <_trap_table-0x3f0ee87c>
    65e8:	00 00 00 00 	unimp  0
    65ec:	44 00 00 2f 	call  100066a8 <_trap_table-0x304f9958>
    65f0:	40 50 2c 6c 	call  14117a0 <_trap_table-0x3f0ee860>
    65f4:	00 00 00 00 	unimp  0
    65f8:	44 00 00 30 	call  100066b8 <_trap_table-0x304f9948>
    65fc:	40 50 2c 70 	call  14117bc <_trap_table-0x3f0ee844>
    6600:	00 00 27 b1 	unimp  0x27b1
    6604:	64 00 00 00 	call  90006604 <LEON_REG+0x10006604>
    6608:	40 50 2c 74 	call  14117d8 <_trap_table-0x3f0ee828>
    660c:	00 00 4d 5a 	unimp  0x4d5a
    6610:	64 00 00 00 	call  90006610 <LEON_REG+0x10006610>
    6614:	40 50 2c 74 	call  14117e4 <_trap_table-0x3f0ee81c>
    6618:	00 00 01 23 	unimp  0x123
    661c:	3c 00 00 00 	unknown
    6620:	00 00 00 00 	unimp  0
    6624:	00 00 01 32 	unimp  0x132
    6628:	80 00 00 00 	add  %g0, %g0, %g0
    662c:	00 00 00 00 	unimp  0
    6630:	00 00 01 5c 	unimp  0x15c
    6634:	80 00 00 00 	add  %g0, %g0, %g0
    6638:	00 00 00 00 	unimp  0
    663c:	00 00 01 76 	unimp  0x176
    6640:	80 00 00 00 	add  %g0, %g0, %g0
    6644:	00 00 00 00 	unimp  0
    6648:	00 00 01 a5 	unimp  0x1a5
    664c:	80 00 00 00 	add  %g0, %g0, %g0
    6650:	00 00 00 00 	unimp  0
    6654:	00 00 01 dd 	unimp  0x1dd
    6658:	80 00 00 00 	add  %g0, %g0, %g0
    665c:	00 00 00 00 	unimp  0
    6660:	00 00 02 1a 	unimp  0x21a
    6664:	80 00 00 00 	add  %g0, %g0, %g0
    6668:	00 00 00 00 	unimp  0
    666c:	00 00 02 6b 	unimp  0x26b
    6670:	80 00 00 00 	add  %g0, %g0, %g0
    6674:	00 00 00 00 	unimp  0
    6678:	00 00 02 bc 	unimp  0x2bc
    667c:	80 00 00 00 	add  %g0, %g0, %g0
    6680:	00 00 00 00 	unimp  0
    6684:	00 00 02 e7 	unimp  0x2e7
    6688:	80 00 00 00 	add  %g0, %g0, %g0
    668c:	00 00 00 00 	unimp  0
    6690:	00 00 03 16 	unimp  0x316
    6694:	80 00 00 00 	add  %g0, %g0, %g0
    6698:	00 00 00 00 	unimp  0
    669c:	00 00 03 40 	unimp  0x340
    66a0:	80 00 00 00 	add  %g0, %g0, %g0
    66a4:	00 00 00 00 	unimp  0
    66a8:	00 00 03 69 	unimp  0x369
    66ac:	80 00 00 00 	add  %g0, %g0, %g0
    66b0:	00 00 00 00 	unimp  0
    66b4:	00 00 03 83 	unimp  0x383
    66b8:	80 00 00 00 	add  %g0, %g0, %g0
    66bc:	00 00 00 00 	unimp  0
    66c0:	00 00 03 9e 	unimp  0x39e
    66c4:	80 00 00 00 	add  %g0, %g0, %g0
    66c8:	00 00 00 00 	unimp  0
    66cc:	00 00 03 be 	unimp  0x3be
    66d0:	80 00 00 00 	add  %g0, %g0, %g0
    66d4:	00 00 00 00 	unimp  0
    66d8:	00 00 03 f7 	unimp  0x3f7
    66dc:	80 00 00 00 	add  %g0, %g0, %g0
    66e0:	00 00 00 00 	unimp  0
    66e4:	00 00 04 15 	unimp  0x415
    66e8:	80 00 00 00 	add  %g0, %g0, %g0
    66ec:	00 00 00 00 	unimp  0
    66f0:	00 00 04 35 	unimp  0x435
    66f4:	80 00 00 00 	add  %g0, %g0, %g0
    66f8:	00 00 00 00 	unimp  0
    66fc:	00 00 04 5a 	unimp  0x45a
    6700:	80 00 00 00 	add  %g0, %g0, %g0
    6704:	00 00 00 00 	unimp  0
    6708:	00 00 04 6e 	unimp  0x46e
    670c:	80 00 00 00 	add  %g0, %g0, %g0
    6710:	00 00 00 00 	unimp  0
    6714:	00 00 04 90 	unimp  0x490
    6718:	80 00 00 00 	add  %g0, %g0, %g0
    671c:	00 00 00 00 	unimp  0
    6720:	00 00 2d 91 	unimp  0x2d91
    6724:	c2 00 00 00 	ld  [ %g0 ], %g1
    6728:	00 01 41 af 	unimp  0x141af
    672c:	00 00 2d bd 	unimp  0x2dbd
    6730:	82 00 00 00 	add  %g0, %g0, %g1
    6734:	00 01 8b 37 	unimp  0x18b37
    6738:	00 00 4d 93 	unimp  0x4d93
    673c:	80 00 01 23 	unknown
    6740:	00 00 00 00 	unimp  0
    6744:	00 00 4f 6c 	unimp  0x4f6c
    6748:	80 00 01 2b 	unknown
    674c:	00 00 00 00 	unimp  0
    6750:	00 00 4f dd 	unimp  0x4fdd
    6754:	80 00 01 34 	unknown
    6758:	00 00 00 00 	unimp  0
    675c:	00 00 50 4d 	unimp  0x504d
    6760:	80 00 01 3d 	unknown
    6764:	00 00 00 00 	unimp  0
    6768:	00 00 50 f7 	unimp  0x50f7
    676c:	80 00 01 4b 	unknown
    6770:	00 00 00 00 	unimp  0
    6774:	00 00 51 94 	unimp  0x5194
    6778:	80 00 00 00 	add  %g0, %g0, %g0
    677c:	00 00 00 00 	unimp  0
    6780:	00 00 52 1c 	unimp  0x521c
    6784:	80 00 01 57 	unknown
    6788:	00 00 00 00 	unimp  0
    678c:	00 00 52 3d 	unimp  0x523d
    6790:	80 00 00 00 	add  %g0, %g0, %g0
    6794:	00 00 00 00 	unimp  0
    6798:	00 00 52 b4 	unimp  0x52b4
    679c:	80 00 01 5e 	unknown
    67a0:	00 00 00 00 	unimp  0
    67a4:	00 00 52 d6 	unimp  0x52d6
    67a8:	80 00 00 00 	add  %g0, %g0, %g0
    67ac:	00 00 00 00 	unimp  0
    67b0:	00 00 53 13 	unimp  0x5313
    67b4:	80 00 01 67 	unknown
    67b8:	00 00 00 00 	unimp  0
    67bc:	00 00 53 32 	unimp  0x5332
    67c0:	80 00 00 00 	add  %g0, %g0, %g0
    67c4:	00 00 00 00 	unimp  0
    67c8:	00 00 53 85 	unimp  0x5385
    67cc:	80 00 01 6e 	unknown
	...
    67d8:	a2 00 00 00 	add  %g0, %g0, %l1
    67dc:	00 00 00 00 	unimp  0
    67e0:	00 00 3c 6b 	unimp  0x3c6b
    67e4:	c2 00 00 00 	ld  [ %g0 ], %g1
    67e8:	00 00 08 d3 	unimp  0x8d3
    67ec:	00 00 1c 0b 	unimp  0x1c0b
    67f0:	c2 00 00 00 	ld  [ %g0 ], %g1
    67f4:	00 00 08 a9 	unimp  0x8a9
    67f8:	00 00 04 ed 	unimp  0x4ed
    67fc:	c2 00 00 00 	ld  [ %g0 ], %g1
    6800:	00 00 04 d8 	unimp  0x4d8
    6804:	00 00 1c 50 	unimp  0x1c50
    6808:	c2 00 00 00 	ld  [ %g0 ], %g1
    680c:	00 00 08 34 	unimp  0x834
    6810:	00 00 05 64 	unimp  0x564
    6814:	82 00 00 00 	add  %g0, %g0, %g1
    6818:	00 02 bc 98 	unimp  0x2bc98
    681c:	00 00 05 ad 	unimp  0x5ad
    6820:	82 00 00 00 	add  %g0, %g0, %g1
    6824:	00 00 3b 3f 	unimp  0x3b3f
    6828:	00 00 28 e8 	unimp  0x28e8
    682c:	82 00 00 00 	add  %g0, %g0, %g1
    6830:	00 00 1f b5 	unimp  0x1fb5
    6834:	00 00 29 0f 	unimp  0x290f
    6838:	82 00 00 00 	add  %g0, %g0, %g1
    683c:	00 00 b4 c8 	unimp  0xb4c8
    6840:	00 00 53 a4 	unimp  0x53a4
    6844:	80 00 00 27 	unknown
    6848:	00 00 00 00 	unimp  0
    684c:	00 00 53 c5 	unimp  0x53c5
    6850:	80 00 00 00 	add  %g0, %g0, %g0
    6854:	00 00 00 00 	unimp  0
    6858:	00 00 54 44 	unimp  0x5444
    685c:	80 00 00 29 	unknown
    6860:	00 00 00 00 	unimp  0
    6864:	00 00 54 6b 	unimp  0x546b
    6868:	80 00 00 00 	add  %g0, %g0, %g0
    686c:	00 00 00 00 	unimp  0
    6870:	00 00 55 d3 	unimp  0x55d3
    6874:	80 00 00 38 	unknown
    6878:	00 00 00 00 	unimp  0
    687c:	00 00 55 f3 	unimp  0x55f3
    6880:	80 00 00 3e 	unknown
	...
    688c:	a2 00 00 00 	add  %g0, %g0, %l1
    6890:	00 00 00 00 	unimp  0
    6894:	00 00 56 5c 	unimp  0x565c
    6898:	80 00 00 61 	unknown
    689c:	00 00 00 00 	unimp  0
    68a0:	00 00 56 79 	unimp  0x5679
    68a4:	80 00 00 62 	unknown
    68a8:	00 00 00 00 	unimp  0
    68ac:	00 00 56 a0 	unimp  0x56a0
    68b0:	80 00 00 df 	unknown
    68b4:	00 00 00 00 	unimp  0
    68b8:	00 00 56 b5 	unimp  0x56b5
    68bc:	80 00 00 e0 	unknown
	...
    68c8:	a2 00 00 00 	add  %g0, %g0, %l1
    68cc:	00 00 00 00 	unimp  0
    68d0:	00 00 56 d4 	unimp  0x56d4
    68d4:	80 00 00 0e 	add  %g0, %sp, %g0
    68d8:	00 00 00 00 	unimp  0
    68dc:	00 00 56 e8 	unimp  0x56e8
    68e0:	80 00 00 0f 	add  %g0, %o7, %g0
    68e4:	00 00 00 00 	unimp  0
    68e8:	00 00 56 fe 	unimp  0x56fe
    68ec:	80 00 00 12 	add  %g0, %l2, %g0
    68f0:	00 00 00 00 	unimp  0
    68f4:	00 00 04 ed 	unimp  0x4ed
    68f8:	c2 00 00 00 	ld  [ %g0 ], %g1
    68fc:	00 00 04 de 	unimp  0x4de
    6900:	00 00 57 14 	unimp  0x5714
    6904:	80 00 00 23 	unknown
    6908:	00 00 00 00 	unimp  0
    690c:	00 00 57 92 	unimp  0x5792
    6910:	80 00 00 25 	unknown
    6914:	00 00 00 00 	unimp  0
    6918:	00 00 57 a8 	unimp  0x57a8
    691c:	80 00 00 28 	unknown
	...
    6928:	a2 00 00 00 	add  %g0, %g0, %l1
    692c:	00 00 00 00 	unimp  0
    6930:	00 00 57 c7 	unimp  0x57c7
    6934:	80 00 00 13 	add  %g0, %l3, %g0
    6938:	00 00 00 00 	unimp  0
    693c:	00 00 57 dc 	unimp  0x57dc
    6940:	80 00 00 00 	add  %g0, %g0, %g0
    6944:	00 00 00 00 	unimp  0
    6948:	00 00 58 71 	unimp  0x5871
    694c:	80 00 00 00 	add  %g0, %g0, %g0
    6950:	00 00 00 00 	unimp  0
    6954:	00 00 59 4a 	unimp  0x594a
    6958:	80 00 00 00 	add  %g0, %g0, %g0
    695c:	00 00 00 00 	unimp  0
    6960:	00 00 59 d7 	unimp  0x59d7
    6964:	80 00 00 00 	add  %g0, %g0, %g0
    6968:	00 00 00 00 	unimp  0
    696c:	00 00 5a 6b 	unimp  0x5a6b
    6970:	80 00 00 00 	add  %g0, %g0, %g0
    6974:	00 00 00 00 	unimp  0
    6978:	00 00 5a aa 	unimp  0x5aaa
    697c:	80 00 00 6f 	unknown
    6980:	00 00 00 00 	unimp  0
    6984:	00 00 5a c0 	unimp  0x5ac0
    6988:	80 00 00 00 	add  %g0, %g0, %g0
    698c:	00 00 00 00 	unimp  0
    6990:	00 00 5c ef 	unimp  0x5cef
    6994:	80 00 01 03 	unknown
    6998:	00 00 00 00 	unimp  0
    699c:	00 00 5d 05 	unimp  0x5d05
    69a0:	80 00 00 00 	add  %g0, %g0, %g0
    69a4:	00 00 00 00 	unimp  0
    69a8:	00 00 5d 60 	unimp  0x5d60
    69ac:	80 00 00 00 	add  %g0, %g0, %g0
    69b0:	00 00 00 00 	unimp  0
    69b4:	00 00 5d bd 	unimp  0x5dbd
    69b8:	80 00 00 00 	add  %g0, %g0, %g0
    69bc:	00 00 00 00 	unimp  0
    69c0:	00 00 61 5b 	unimp  0x615b
    69c4:	80 00 00 00 	add  %g0, %g0, %g0
	...
    69d0:	a2 00 00 00 	add  %g0, %g0, %l1
    69d4:	00 00 00 00 	unimp  0
    69d8:	00 00 1c bb 	unimp  0x1cbb
    69dc:	82 00 00 00 	add  %g0, %g0, %g1
    69e0:	00 00 c7 44 	unimp  0xc744
    69e4:	00 00 62 db 	unimp  0x62db
    69e8:	80 00 00 18 	add  %g0, %i0, %g0
    69ec:	00 00 00 00 	unimp  0
    69f0:	00 00 62 f3 	unimp  0x62f3
    69f4:	80 00 00 19 	add  %g0, %i1, %g0
    69f8:	00 00 00 00 	unimp  0
    69fc:	00 00 63 0c 	unimp  0x630c
    6a00:	80 00 00 1f 	add  %g0, %i7, %g0
    6a04:	00 00 00 00 	unimp  0
    6a08:	00 00 63 24 	unimp  0x6324
    6a0c:	80 00 00 20 	unknown
    6a10:	00 00 00 00 	unimp  0
    6a14:	00 00 63 3d 	unimp  0x633d
    6a18:	80 00 00 27 	unknown
    6a1c:	00 00 00 00 	unimp  0
    6a20:	00 00 63 55 	unimp  0x6355
    6a24:	80 00 00 28 	unknown
    6a28:	00 00 00 00 	unimp  0
    6a2c:	00 00 04 ed 	unimp  0x4ed
    6a30:	82 00 00 00 	add  %g0, %g0, %g1
    6a34:	00 00 0b 3b 	unimp  0xb3b
    6a38:	00 00 63 6e 	unimp  0x636e
    6a3c:	80 00 00 97 	unknown
    6a40:	00 00 00 00 	unimp  0
    6a44:	00 00 63 86 	unimp  0x6386
    6a48:	80 00 01 45 	unknown
	...
    6a54:	a2 00 00 00 	add  %g0, %g0, %l1
    6a58:	00 00 00 00 	unimp  0
    6a5c:	00 00 18 2c 	unimp  0x182c
    6a60:	c2 00 00 00 	ld  [ %g0 ], %g1
    6a64:	00 00 0f b1 	unimp  0xfb1
    6a68:	00 00 63 9c 	unimp  0x639c
    6a6c:	80 00 00 4e 	unknown
    6a70:	00 00 00 00 	unimp  0
    6a74:	00 00 63 b2 	unimp  0x63b2
    6a78:	80 00 00 4f 	unknown
    6a7c:	00 00 00 00 	unimp  0
    6a80:	00 00 63 c8 	unimp  0x63c8
    6a84:	80 00 00 50 	unknown
    6a88:	00 00 00 00 	unimp  0
    6a8c:	00 00 63 dc 	unimp  0x63dc
    6a90:	80 00 00 51 	unknown
    6a94:	00 00 00 00 	unimp  0
    6a98:	00 00 63 f2 	unimp  0x63f2
    6a9c:	80 00 00 55 	unknown
    6aa0:	00 00 00 00 	unimp  0
    6aa4:	00 00 64 08 	unimp  0x6408
    6aa8:	80 00 00 56 	unknown
    6aac:	00 00 00 00 	unimp  0
    6ab0:	00 00 64 1c 	unimp  0x641c
    6ab4:	80 00 00 5a 	unknown
    6ab8:	00 00 00 00 	unimp  0
    6abc:	00 00 64 33 	unimp  0x6433
    6ac0:	80 00 00 5f 	unknown
    6ac4:	00 00 00 00 	unimp  0
    6ac8:	00 00 64 49 	unimp  0x6449
    6acc:	80 00 00 00 	add  %g0, %g0, %g0
    6ad0:	00 00 00 00 	unimp  0
    6ad4:	00 00 64 87 	unimp  0x6487
    6ad8:	80 00 00 00 	add  %g0, %g0, %g0
    6adc:	00 00 00 00 	unimp  0
    6ae0:	00 00 64 d0 	unimp  0x64d0
    6ae4:	80 00 00 6f 	unknown
    6ae8:	00 00 00 00 	unimp  0
    6aec:	00 00 64 e7 	unimp  0x64e7
    6af0:	80 00 00 70 	unknown
    6af4:	00 00 00 00 	unimp  0
    6af8:	00 00 64 ff 	unimp  0x64ff
    6afc:	80 00 00 77 	unknown
    6b00:	00 00 00 00 	unimp  0
    6b04:	00 00 65 14 	unimp  0x6514
    6b08:	80 00 00 9b 	unknown
    6b0c:	00 00 00 00 	unimp  0
    6b10:	00 00 65 29 	unimp  0x6529
    6b14:	80 00 00 a0 	unknown
    6b18:	00 00 00 00 	unimp  0
    6b1c:	00 00 65 3e 	unimp  0x653e
    6b20:	80 00 00 a2 	unknown
    6b24:	00 00 00 00 	unimp  0
    6b28:	00 00 65 53 	unimp  0x6553
    6b2c:	80 00 00 a3 	unknown
    6b30:	00 00 00 00 	unimp  0
    6b34:	00 00 65 68 	unimp  0x6568
    6b38:	80 00 00 a6 	unknown
    6b3c:	00 00 00 00 	unimp  0
    6b40:	00 00 65 7d 	unimp  0x657d
    6b44:	80 00 00 a8 	unknown
    6b48:	00 00 00 00 	unimp  0
    6b4c:	00 00 65 92 	unimp  0x6592
    6b50:	80 00 00 aa 	unknown
    6b54:	00 00 00 00 	unimp  0
    6b58:	00 00 65 a9 	unimp  0x65a9
    6b5c:	80 00 00 b5 	unknown
    6b60:	00 00 00 00 	unimp  0
    6b64:	00 00 65 bf 	unimp  0x65bf
    6b68:	80 00 00 bd 	unknown
    6b6c:	00 00 00 00 	unimp  0
    6b70:	00 00 65 d6 	unimp  0x65d6
    6b74:	80 00 00 d3 	unknown
    6b78:	00 00 00 00 	unimp  0
    6b7c:	00 00 65 ed 	unimp  0x65ed
    6b80:	80 00 00 00 	add  %g0, %g0, %g0
    6b84:	00 00 00 00 	unimp  0
    6b88:	00 00 66 32 	unimp  0x6632
    6b8c:	80 00 00 dd 	unknown
	...
    6b98:	a2 00 00 00 	add  %g0, %g0, %l1
    6b9c:	00 00 00 00 	unimp  0
    6ba0:	00 00 04 a7 	unimp  0x4a7
    6ba4:	c2 00 00 00 	ld  [ %g0 ], %g1
    6ba8:	00 00 28 45 	unimp  0x2845
    6bac:	00 00 66 51 	unimp  0x6651
    6bb0:	24 00 00 07 	unknown
    6bb4:	40 50 2c 74 	call  1411d84 <_trap_table-0x3f0ee27c>
    6bb8:	00 00 00 00 	unimp  0
    6bbc:	44 00 00 07 	call  10006bd8 <_trap_table-0x304f9428>
    6bc0:	00 00 00 00 	unimp  0
    6bc4:	00 00 00 00 	unimp  0
    6bc8:	44 00 00 09 	call  10006bec <_trap_table-0x304f9414>
    6bcc:	00 00 00 04 	unimp  0x4
    6bd0:	00 00 00 00 	unimp  0
    6bd4:	44 00 00 0e 	call  10006c0c <_trap_table-0x304f93f4>
    6bd8:	00 00 00 08 	unimp  0x8
    6bdc:	00 00 00 00 	unimp  0
    6be0:	44 00 00 09 	call  10006c04 <_trap_table-0x304f93fc>
    6be4:	00 00 00 0c 	unimp  0xc
    6be8:	00 00 00 00 	unimp  0
    6bec:	44 00 00 0e 	call  10006c24 <_trap_table-0x304f93dc>
    6bf0:	00 00 00 10 	unimp  0x10
    6bf4:	00 00 00 00 	unimp  0
    6bf8:	44 00 00 0b 	call  10006c24 <_trap_table-0x304f93dc>
    6bfc:	00 00 00 20 	unimp  0x20
    6c00:	00 00 00 00 	unimp  0
    6c04:	44 00 00 0e 	call  10006c3c <_trap_table-0x304f93c4>
    6c08:	00 00 00 28 	unimp  0x28
    6c0c:	00 00 00 00 	unimp  0
    6c10:	44 00 00 0b 	call  10006c3c <_trap_table-0x304f93c4>
    6c14:	00 00 00 34 	unimp  0x34
    6c18:	00 00 00 00 	unimp  0
    6c1c:	44 00 00 0e 	call  10006c54 <_trap_table-0x304f93ac>
    6c20:	00 00 00 3c 	unimp  0x3c
    6c24:	00 00 00 00 	unimp  0
    6c28:	44 00 00 0b 	call  10006c54 <_trap_table-0x304f93ac>
    6c2c:	00 00 00 3c 	unimp  0x3c
    6c30:	00 00 00 00 	unimp  0
    6c34:	44 00 00 0c 	call  10006c64 <_trap_table-0x304f939c>
    6c38:	00 00 00 44 	unimp  0x44
    6c3c:	00 00 00 00 	unimp  0
    6c40:	44 00 00 0e 	call  10006c78 <_trap_table-0x304f9388>
    6c44:	00 00 00 4c 	unimp  0x4c
    6c48:	00 00 00 00 	unimp  0
    6c4c:	44 00 00 0b 	call  10006c78 <_trap_table-0x304f9388>
    6c50:	00 00 00 50 	unimp  0x50
    6c54:	00 00 00 00 	unimp  0
    6c58:	44 00 00 0e 	call  10006c90 <_trap_table-0x304f9370>
    6c5c:	00 00 00 50 	unimp  0x50
    6c60:	00 00 66 69 	unimp  0x6669
    6c64:	40 00 00 09 	call  6c88 <_trap_table-0x404f9378>
    6c68:	00 00 00 10 	unimp  0x10
    6c6c:	00 00 00 00 	unimp  0
    6c70:	c0 00 00 00 	ld  [ %g0 ], %g0
	...
    6c7c:	e0 00 00 00 	ld  [ %g0 ], %l0
    6c80:	00 00 00 60 	unimp  0x60
    6c84:	00 00 00 00 	unimp  0
    6c88:	24 00 00 00 	unknown
    6c8c:	00 00 00 60 	unimp  0x60
    6c90:	00 00 00 00 	unimp  0
    6c94:	64 00 00 00 	call  90006c94 <LEON_REG+0x10006c94>
    6c98:	40 50 2c d4 	call  1411fe8 <_trap_table-0x3f0ee018>
    6c9c:	00 00 66 7a 	unimp  0x667a
    6ca0:	64 00 00 00 	call  90006ca0 <LEON_REG+0x10006ca0>
    6ca4:	40 50 2c d4 	call  1411ff4 <_trap_table-0x3f0ee00c>
    6ca8:	00 00 66 8a 	unimp  0x668a
    6cac:	84 00 00 00 	add  %g0, %g0, %g2
    6cb0:	40 50 2c d4 	call  1412000 <_trap_table-0x3f0ee000>
    6cb4:	00 00 00 00 	unimp  0
    6cb8:	44 00 00 32 	call  10006d80 <_trap_table-0x304f9280>
    6cbc:	40 50 2c d4 	call  141200c <_trap_table-0x3f0edff4>
    6cc0:	00 00 00 00 	unimp  0
    6cc4:	44 00 00 33 	call  10006d90 <_trap_table-0x304f9270>
    6cc8:	40 50 2c d8 	call  1412028 <_trap_table-0x3f0edfd8>
    6ccc:	00 00 00 00 	unimp  0
    6cd0:	44 00 00 39 	call  10006db4 <_trap_table-0x304f924c>
    6cd4:	40 50 2d 0c 	call  1412104 <_trap_table-0x3f0edefc>
    6cd8:	00 00 00 00 	unimp  0
    6cdc:	44 00 00 3a 	call  10006dc4 <_trap_table-0x304f923c>
    6ce0:	40 50 2d 10 	call  1412120 <_trap_table-0x3f0edee0>
    6ce4:	00 00 00 00 	unimp  0
    6ce8:	44 00 00 3b 	call  10006dd4 <_trap_table-0x304f922c>
    6cec:	40 50 2d 14 	call  141213c <_trap_table-0x3f0edec4>
    6cf0:	00 00 00 00 	unimp  0
    6cf4:	44 00 00 3c 	call  10006de4 <_trap_table-0x304f921c>
    6cf8:	40 50 2d 18 	call  1412158 <_trap_table-0x3f0edea8>
    6cfc:	00 00 00 00 	unimp  0
    6d00:	44 00 00 3d 	call  10006df4 <_trap_table-0x304f920c>
    6d04:	40 50 2d 1c 	call  1412174 <_trap_table-0x3f0ede8c>
    6d08:	00 00 00 00 	unimp  0
    6d0c:	44 00 00 41 	call  10006e10 <_trap_table-0x304f91f0>
    6d10:	40 50 2d 20 	call  1412190 <_trap_table-0x3f0ede70>
    6d14:	00 00 00 00 	unimp  0
    6d18:	44 00 00 43 	call  10006e24 <_trap_table-0x304f91dc>
    6d1c:	40 50 2d 24 	call  14121ac <_trap_table-0x3f0ede54>
    6d20:	00 00 00 00 	unimp  0
    6d24:	44 00 00 44 	call  10006e34 <_trap_table-0x304f91cc>
    6d28:	40 50 2d 28 	call  14121c8 <_trap_table-0x3f0ede38>
    6d2c:	00 00 00 00 	unimp  0
    6d30:	44 00 00 46 	call  10006e48 <_trap_table-0x304f91b8>
    6d34:	40 50 2d 2c 	call  14121e4 <_trap_table-0x3f0ede1c>
    6d38:	00 00 00 00 	unimp  0
    6d3c:	44 00 00 47 	call  10006e58 <_trap_table-0x304f91a8>
    6d40:	40 50 2d 30 	call  1412200 <_trap_table-0x3f0ede00>
    6d44:	00 00 00 00 	unimp  0
    6d48:	44 00 00 48 	call  10006e68 <_trap_table-0x304f9198>
    6d4c:	40 50 2d 34 	call  141221c <_trap_table-0x3f0edde4>
    6d50:	00 00 00 00 	unimp  0
    6d54:	44 00 00 4a 	call  10006e7c <_trap_table-0x304f9184>
    6d58:	40 50 2d 38 	call  1412238 <_trap_table-0x3f0eddc8>
    6d5c:	00 00 00 00 	unimp  0
    6d60:	44 00 00 4d 	call  10006e94 <_trap_table-0x304f916c>
    6d64:	40 50 2d 3c 	call  1412254 <_trap_table-0x3f0eddac>
    6d68:	00 00 00 00 	unimp  0
    6d6c:	44 00 00 50 	call  10006eac <_trap_table-0x304f9154>
    6d70:	40 50 2d 40 	call  1412270 <_trap_table-0x3f0edd90>
    6d74:	00 00 00 00 	unimp  0
    6d78:	44 00 00 52 	call  10006ec0 <_trap_table-0x304f9140>
    6d7c:	40 50 2d 60 	call  14122fc <_trap_table-0x3f0edd04>
    6d80:	00 00 00 00 	unimp  0
    6d84:	44 00 00 5a 	call  10006eec <_trap_table-0x304f9114>
    6d88:	40 50 2d 64 	call  1412318 <_trap_table-0x3f0edce8>
    6d8c:	00 00 00 00 	unimp  0
    6d90:	44 00 00 5b 	call  10006efc <_trap_table-0x304f9104>
    6d94:	40 50 2d 68 	call  1412334 <_trap_table-0x3f0edccc>
    6d98:	00 00 66 bf 	unimp  0x66bf
    6d9c:	64 00 00 00 	call  90006d9c <LEON_REG+0x10006d9c>
    6da0:	40 50 2d 6c 	call  1412350 <_trap_table-0x3f0edcb0>
    6da4:	00 00 66 cf 	unimp  0x66cf
    6da8:	84 00 00 00 	add  %g0, %g0, %g2
    6dac:	40 50 2d 6c 	call  141235c <_trap_table-0x3f0edca4>
    6db0:	00 00 00 00 	unimp  0
    6db4:	44 00 00 1c 	call  10006e24 <_trap_table-0x304f91dc>
    6db8:	40 50 2d 6c 	call  1412368 <_trap_table-0x3f0edc98>
    6dbc:	00 00 00 00 	unimp  0
    6dc0:	44 00 00 1d 	call  10006e34 <_trap_table-0x304f91cc>
    6dc4:	40 50 2d 74 	call  1412394 <_trap_table-0x3f0edc6c>
    6dc8:	00 00 00 00 	unimp  0
    6dcc:	44 00 00 1e 	call  10006e44 <_trap_table-0x304f91bc>
    6dd0:	40 50 2d 78 	call  14123b0 <_trap_table-0x3f0edc50>
    6dd4:	00 00 00 00 	unimp  0
    6dd8:	44 00 00 1f 	call  10006e54 <_trap_table-0x304f91ac>
    6ddc:	40 50 2d 7c 	call  14123cc <_trap_table-0x3f0edc34>
    6de0:	00 00 00 00 	unimp  0
    6de4:	44 00 00 20 	call  10006e64 <_trap_table-0x304f919c>
    6de8:	40 50 2d 80 	call  14123e8 <_trap_table-0x3f0edc18>
    6dec:	00 00 00 00 	unimp  0
    6df0:	44 00 00 22 	call  10006e78 <_trap_table-0x304f9188>
    6df4:	40 50 2d 84 	call  1412404 <_trap_table-0x3f0edbfc>
    6df8:	00 00 00 00 	unimp  0
    6dfc:	44 00 00 26 	call  10006e94 <_trap_table-0x304f916c>
    6e00:	40 50 2d 88 	call  1412420 <_trap_table-0x3f0edbe0>
    6e04:	00 00 00 00 	unimp  0
    6e08:	44 00 00 31 	call  10006ecc <_trap_table-0x304f9134>
    6e0c:	40 50 2d 8c 	call  141243c <_trap_table-0x3f0edbc4>
    6e10:	00 00 00 00 	unimp  0
    6e14:	44 00 00 35 	call  10006ee8 <_trap_table-0x304f9118>
    6e18:	40 50 2d 90 	call  1412458 <_trap_table-0x3f0edba8>
    6e1c:	00 00 00 00 	unimp  0
    6e20:	44 00 00 36 	call  10006ef8 <_trap_table-0x304f9108>
    6e24:	40 50 2d 94 	call  1412474 <_trap_table-0x3f0edb8c>
    6e28:	00 00 00 00 	unimp  0
    6e2c:	44 00 00 38 	call  10006f0c <_trap_table-0x304f90f4>
    6e30:	40 50 2d 98 	call  1412490 <_trap_table-0x3f0edb70>
    6e34:	00 00 00 00 	unimp  0
    6e38:	44 00 00 39 	call  10006f1c <_trap_table-0x304f90e4>
    6e3c:	40 50 2d 9c 	call  14124ac <_trap_table-0x3f0edb54>
    6e40:	00 00 00 00 	unimp  0
    6e44:	44 00 00 3b 	call  10006f30 <_trap_table-0x304f90d0>
    6e48:	40 50 2d a0 	call  14124c8 <_trap_table-0x3f0edb38>
    6e4c:	00 00 00 00 	unimp  0
    6e50:	44 00 00 3c 	call  10006f40 <_trap_table-0x304f90c0>
    6e54:	40 50 2d a4 	call  14124e4 <_trap_table-0x3f0edb1c>
    6e58:	00 00 00 00 	unimp  0
    6e5c:	44 00 00 3d 	call  10006f50 <_trap_table-0x304f90b0>
    6e60:	40 50 2d a8 	call  1412500 <_trap_table-0x3f0edb00>
    6e64:	00 00 00 00 	unimp  0
    6e68:	44 00 00 3e 	call  10006f60 <_trap_table-0x304f90a0>
    6e6c:	40 50 2d ac 	call  141251c <_trap_table-0x3f0edae4>
    6e70:	00 00 00 00 	unimp  0
    6e74:	44 00 00 3f 	call  10006f70 <_trap_table-0x304f9090>
    6e78:	40 50 2d b0 	call  1412538 <_trap_table-0x3f0edac8>
    6e7c:	00 00 00 00 	unimp  0
    6e80:	44 00 00 40 	call  10006f80 <_trap_table-0x304f9080>
    6e84:	40 50 2d b4 	call  1412554 <_trap_table-0x3f0edaac>
    6e88:	00 00 00 00 	unimp  0
    6e8c:	44 00 00 43 	call  10006f98 <_trap_table-0x304f9068>
    6e90:	40 50 2d b8 	call  1412570 <_trap_table-0x3f0eda90>
    6e94:	00 00 00 00 	unimp  0
    6e98:	44 00 00 44 	call  10006fa8 <_trap_table-0x304f9058>
    6e9c:	40 50 2d bc 	call  141258c <_trap_table-0x3f0eda74>
    6ea0:	00 00 00 00 	unimp  0
    6ea4:	44 00 00 46 	call  10006fbc <_trap_table-0x304f9044>
    6ea8:	40 50 2d c0 	call  14125a8 <_trap_table-0x3f0eda58>
    6eac:	00 00 00 00 	unimp  0
    6eb0:	44 00 00 47 	call  10006fcc <_trap_table-0x304f9034>
    6eb4:	40 50 2d c4 	call  14125c4 <_trap_table-0x3f0eda3c>
    6eb8:	00 00 00 00 	unimp  0
    6ebc:	44 00 00 48 	call  10006fdc <_trap_table-0x304f9024>
    6ec0:	40 50 2d c8 	call  14125e0 <_trap_table-0x3f0eda20>
    6ec4:	00 00 00 00 	unimp  0
    6ec8:	44 00 00 4a 	call  10006ff0 <_trap_table-0x304f9010>
    6ecc:	40 50 2d cc 	call  14125fc <_trap_table-0x3f0eda04>
    6ed0:	00 00 00 00 	unimp  0
    6ed4:	44 00 00 4d 	call  10007008 <_trap_table-0x304f8ff8>
    6ed8:	40 50 2d d0 	call  1412618 <_trap_table-0x3f0ed9e8>
    6edc:	00 00 00 00 	unimp  0
    6ee0:	44 00 00 4f 	call  1000701c <_trap_table-0x304f8fe4>
    6ee4:	40 50 2e 04 	call  14126f4 <_trap_table-0x3f0ed90c>
    6ee8:	00 00 00 00 	unimp  0
    6eec:	44 00 00 50 	call  1000702c <_trap_table-0x304f8fd4>
    6ef0:	40 50 2e 08 	call  1412710 <_trap_table-0x3f0ed8f0>
    6ef4:	00 00 00 00 	unimp  0
    6ef8:	44 00 00 51 	call  1000703c <_trap_table-0x304f8fc4>
    6efc:	40 50 2e 28 	call  141279c <_trap_table-0x3f0ed864>
    6f00:	00 00 00 00 	unimp  0
    6f04:	44 00 00 52 	call  1000704c <_trap_table-0x304f8fb4>
    6f08:	40 50 2e 2c 	call  14127b8 <_trap_table-0x3f0ed848>
    6f0c:	00 00 00 00 	unimp  0
    6f10:	44 00 00 59 	call  10007074 <_trap_table-0x304f8f8c>
    6f14:	40 50 2e 30 	call  14127d4 <_trap_table-0x3f0ed82c>
    6f18:	00 00 00 00 	unimp  0
    6f1c:	44 00 00 62 	call  100070a4 <_trap_table-0x304f8f5c>
    6f20:	40 50 2e 64 	call  14128b0 <_trap_table-0x3f0ed750>
    6f24:	00 00 00 00 	unimp  0
    6f28:	44 00 00 63 	call  100070b4 <_trap_table-0x304f8f4c>
    6f2c:	40 50 2e 68 	call  14128cc <_trap_table-0x3f0ed734>
    6f30:	00 00 00 00 	unimp  0
    6f34:	44 00 00 65 	call  100070c8 <_trap_table-0x304f8f38>
    6f38:	40 50 2e 74 	call  1412908 <_trap_table-0x3f0ed6f8>
    6f3c:	00 00 00 00 	unimp  0
    6f40:	44 00 00 66 	call  100070d8 <_trap_table-0x304f8f28>
    6f44:	40 50 2e 78 	call  1412924 <_trap_table-0x3f0ed6dc>
    6f48:	00 00 67 04 	unimp  0x6704
    6f4c:	64 00 00 00 	call  90006f4c <LEON_REG+0x10006f4c>
    6f50:	40 50 2e 7c 	call  1412940 <_trap_table-0x3f0ed6c0>
    6f54:	00 00 67 14 	unimp  0x6714
    6f58:	84 00 00 00 	add  %g0, %g0, %g2
    6f5c:	40 50 2e 7c 	call  141294c <_trap_table-0x3f0ed6b4>
    6f60:	00 00 00 00 	unimp  0
    6f64:	44 00 00 34 	call  10007034 <_trap_table-0x304f8fcc>
    6f68:	40 50 2e 7c 	call  1412958 <_trap_table-0x3f0ed6a8>
    6f6c:	00 00 00 00 	unimp  0
    6f70:	44 00 00 35 	call  10007044 <_trap_table-0x304f8fbc>
    6f74:	40 50 2e 80 	call  1412974 <_trap_table-0x3f0ed68c>
    6f78:	00 00 00 00 	unimp  0
    6f7c:	44 00 00 3c 	call  1000706c <_trap_table-0x304f8f94>
    6f80:	40 50 2e 98 	call  14129e0 <_trap_table-0x3f0ed620>
    6f84:	00 00 00 00 	unimp  0
    6f88:	44 00 00 3d 	call  1000707c <_trap_table-0x304f8f84>
    6f8c:	40 50 2e 9c 	call  14129fc <_trap_table-0x3f0ed604>
    6f90:	00 00 00 00 	unimp  0
    6f94:	44 00 00 3e 	call  1000708c <_trap_table-0x304f8f74>
    6f98:	40 50 2e a0 	call  1412a18 <_trap_table-0x3f0ed5e8>
    6f9c:	00 00 00 00 	unimp  0
    6fa0:	44 00 00 3f 	call  1000709c <_trap_table-0x304f8f64>
    6fa4:	40 50 2e a4 	call  1412a34 <_trap_table-0x3f0ed5cc>
    6fa8:	00 00 00 00 	unimp  0
    6fac:	44 00 00 40 	call  100070ac <_trap_table-0x304f8f54>
    6fb0:	40 50 2e a8 	call  1412a50 <_trap_table-0x3f0ed5b0>
    6fb4:	00 00 00 00 	unimp  0
    6fb8:	44 00 00 44 	call  100070c8 <_trap_table-0x304f8f38>
    6fbc:	40 50 2e ac 	call  1412a6c <_trap_table-0x3f0ed594>
    6fc0:	00 00 00 00 	unimp  0
    6fc4:	44 00 00 46 	call  100070dc <_trap_table-0x304f8f24>
    6fc8:	40 50 2e b0 	call  1412a88 <_trap_table-0x3f0ed578>
    6fcc:	00 00 00 00 	unimp  0
    6fd0:	44 00 00 47 	call  100070ec <_trap_table-0x304f8f14>
    6fd4:	40 50 2e b4 	call  1412aa4 <_trap_table-0x3f0ed55c>
    6fd8:	00 00 00 00 	unimp  0
    6fdc:	44 00 00 49 	call  10007100 <_trap_table-0x304f8f00>
    6fe0:	40 50 2e b8 	call  1412ac0 <_trap_table-0x3f0ed540>
    6fe4:	00 00 00 00 	unimp  0
    6fe8:	44 00 00 4a 	call  10007110 <_trap_table-0x304f8ef0>
    6fec:	40 50 2e bc 	call  1412adc <_trap_table-0x3f0ed524>
    6ff0:	00 00 00 00 	unimp  0
    6ff4:	44 00 00 4b 	call  10007120 <_trap_table-0x304f8ee0>
    6ff8:	40 50 2e c0 	call  1412af8 <_trap_table-0x3f0ed508>
    6ffc:	00 00 00 00 	unimp  0
    7000:	44 00 00 4d 	call  10007134 <_trap_table-0x304f8ecc>
    7004:	40 50 2e c4 	call  1412b14 <_trap_table-0x3f0ed4ec>
    7008:	00 00 00 00 	unimp  0
    700c:	44 00 00 50 	call  1000714c <_trap_table-0x304f8eb4>
    7010:	40 50 2e c8 	call  1412b30 <_trap_table-0x3f0ed4d0>
    7014:	00 00 00 00 	unimp  0
    7018:	44 00 00 53 	call  10007164 <_trap_table-0x304f8e9c>
    701c:	40 50 2e cc 	call  1412b4c <_trap_table-0x3f0ed4b4>
    7020:	00 00 00 00 	unimp  0
    7024:	44 00 00 55 	call  10007178 <_trap_table-0x304f8e88>
    7028:	40 50 2e ec 	call  1412bd8 <_trap_table-0x3f0ed428>
    702c:	00 00 00 00 	unimp  0
    7030:	44 00 00 5d 	call  100071a4 <_trap_table-0x304f8e5c>
    7034:	40 50 2e f0 	call  1412bf4 <_trap_table-0x3f0ed40c>
    7038:	00 00 00 00 	unimp  0
    703c:	44 00 00 5e 	call  100071b4 <_trap_table-0x304f8e4c>
    7040:	40 50 2e f4 	call  1412c10 <_trap_table-0x3f0ed3f0>
    7044:	00 00 67 4e 	unimp  0x674e
    7048:	64 00 00 00 	call  90007048 <LEON_REG+0x10007048>
    704c:	40 50 2e f8 	call  1412c2c <_trap_table-0x3f0ed3d4>
    7050:	00 00 67 5e 	unimp  0x675e
    7054:	84 00 00 00 	add  %g0, %g0, %g2
    7058:	40 50 2e f8 	call  1412c38 <_trap_table-0x3f0ed3c8>
    705c:	00 00 00 00 	unimp  0
    7060:	44 00 00 1e 	call  100070d8 <_trap_table-0x304f8f28>
    7064:	40 50 2e f8 	call  1412c44 <_trap_table-0x3f0ed3bc>
    7068:	00 00 00 00 	unimp  0
    706c:	44 00 00 1f 	call  100070e8 <_trap_table-0x304f8f18>
    7070:	40 50 2f 00 	call  1412c70 <_trap_table-0x3f0ed390>
    7074:	00 00 00 00 	unimp  0
    7078:	44 00 00 20 	call  100070f8 <_trap_table-0x304f8f08>
    707c:	40 50 2f 04 	call  1412c8c <_trap_table-0x3f0ed374>
    7080:	00 00 00 00 	unimp  0
    7084:	44 00 00 21 	call  10007108 <_trap_table-0x304f8ef8>
    7088:	40 50 2f 08 	call  1412ca8 <_trap_table-0x3f0ed358>
    708c:	00 00 00 00 	unimp  0
    7090:	44 00 00 22 	call  10007118 <_trap_table-0x304f8ee8>
    7094:	40 50 2f 0c 	call  1412cc4 <_trap_table-0x3f0ed33c>
    7098:	00 00 00 00 	unimp  0
    709c:	44 00 00 24 	call  1000712c <_trap_table-0x304f8ed4>
    70a0:	40 50 2f 10 	call  1412ce0 <_trap_table-0x3f0ed320>
    70a4:	00 00 00 00 	unimp  0
    70a8:	44 00 00 28 	call  10007148 <_trap_table-0x304f8eb8>
    70ac:	40 50 2f 14 	call  1412cfc <_trap_table-0x3f0ed304>
    70b0:	00 00 00 00 	unimp  0
    70b4:	44 00 00 33 	call  10007180 <_trap_table-0x304f8e80>
    70b8:	40 50 2f 18 	call  1412d18 <_trap_table-0x3f0ed2e8>
    70bc:	00 00 00 00 	unimp  0
    70c0:	44 00 00 37 	call  1000719c <_trap_table-0x304f8e64>
    70c4:	40 50 2f 1c 	call  1412d34 <_trap_table-0x3f0ed2cc>
    70c8:	00 00 00 00 	unimp  0
    70cc:	44 00 00 38 	call  100071ac <_trap_table-0x304f8e54>
    70d0:	40 50 2f 20 	call  1412d50 <_trap_table-0x3f0ed2b0>
    70d4:	00 00 00 00 	unimp  0
    70d8:	44 00 00 3a 	call  100071c0 <_trap_table-0x304f8e40>
    70dc:	40 50 2f 24 	call  1412d6c <_trap_table-0x3f0ed294>
    70e0:	00 00 00 00 	unimp  0
    70e4:	44 00 00 3b 	call  100071d0 <_trap_table-0x304f8e30>
    70e8:	40 50 2f 28 	call  1412d88 <_trap_table-0x3f0ed278>
    70ec:	00 00 00 00 	unimp  0
    70f0:	44 00 00 3d 	call  100071e4 <_trap_table-0x304f8e1c>
    70f4:	40 50 2f 2c 	call  1412da4 <_trap_table-0x3f0ed25c>
    70f8:	00 00 00 00 	unimp  0
    70fc:	44 00 00 3e 	call  100071f4 <_trap_table-0x304f8e0c>
    7100:	40 50 2f 30 	call  1412dc0 <_trap_table-0x3f0ed240>
    7104:	00 00 00 00 	unimp  0
    7108:	44 00 00 3f 	call  10007204 <_trap_table-0x304f8dfc>
    710c:	40 50 2f 34 	call  1412ddc <_trap_table-0x3f0ed224>
    7110:	00 00 00 00 	unimp  0
    7114:	44 00 00 40 	call  10007214 <_trap_table-0x304f8dec>
    7118:	40 50 2f 38 	call  1412df8 <_trap_table-0x3f0ed208>
    711c:	00 00 00 00 	unimp  0
    7120:	44 00 00 41 	call  10007224 <_trap_table-0x304f8ddc>
    7124:	40 50 2f 3c 	call  1412e14 <_trap_table-0x3f0ed1ec>
    7128:	00 00 00 00 	unimp  0
    712c:	44 00 00 42 	call  10007234 <_trap_table-0x304f8dcc>
    7130:	40 50 2f 40 	call  1412e30 <_trap_table-0x3f0ed1d0>
    7134:	00 00 00 00 	unimp  0
    7138:	44 00 00 45 	call  1000724c <_trap_table-0x304f8db4>
    713c:	40 50 2f 44 	call  1412e4c <_trap_table-0x3f0ed1b4>
    7140:	00 00 00 00 	unimp  0
    7144:	44 00 00 46 	call  1000725c <_trap_table-0x304f8da4>
    7148:	40 50 2f 48 	call  1412e68 <_trap_table-0x3f0ed198>
    714c:	00 00 00 00 	unimp  0
    7150:	44 00 00 48 	call  10007270 <_trap_table-0x304f8d90>
    7154:	40 50 2f 4c 	call  1412e84 <_trap_table-0x3f0ed17c>
    7158:	00 00 00 00 	unimp  0
    715c:	44 00 00 49 	call  10007280 <_trap_table-0x304f8d80>
    7160:	40 50 2f 50 	call  1412ea0 <_trap_table-0x3f0ed160>
    7164:	00 00 00 00 	unimp  0
    7168:	44 00 00 4a 	call  10007290 <_trap_table-0x304f8d70>
    716c:	40 50 2f 54 	call  1412ebc <_trap_table-0x3f0ed144>
    7170:	00 00 00 00 	unimp  0
    7174:	44 00 00 4c 	call  100072a4 <_trap_table-0x304f8d5c>
    7178:	40 50 2f 58 	call  1412ed8 <_trap_table-0x3f0ed128>
    717c:	00 00 00 00 	unimp  0
    7180:	44 00 00 4f 	call  100072bc <_trap_table-0x304f8d44>
    7184:	40 50 2f 5c 	call  1412ef4 <_trap_table-0x3f0ed10c>
    7188:	00 00 00 00 	unimp  0
    718c:	44 00 00 51 	call  100072d0 <_trap_table-0x304f8d30>
    7190:	40 50 2f 74 	call  1412f60 <_trap_table-0x3f0ed0a0>
    7194:	00 00 00 00 	unimp  0
    7198:	44 00 00 52 	call  100072e0 <_trap_table-0x304f8d20>
    719c:	40 50 2f 78 	call  1412f7c <_trap_table-0x3f0ed084>
    71a0:	00 00 00 00 	unimp  0
    71a4:	44 00 00 53 	call  100072f0 <_trap_table-0x304f8d10>
    71a8:	40 50 2f 98 	call  1413008 <_trap_table-0x3f0ecff8>
    71ac:	00 00 00 00 	unimp  0
    71b0:	44 00 00 54 	call  10007300 <_trap_table-0x304f8d00>
    71b4:	40 50 2f 9c 	call  1413024 <_trap_table-0x3f0ecfdc>
    71b8:	00 00 00 00 	unimp  0
    71bc:	44 00 00 5b 	call  10007328 <_trap_table-0x304f8cd8>
    71c0:	40 50 2f a0 	call  1413040 <_trap_table-0x3f0ecfc0>
    71c4:	00 00 00 00 	unimp  0
    71c8:	44 00 00 65 	call  1000735c <_trap_table-0x304f8ca4>
    71cc:	40 50 2f b8 	call  14130ac <_trap_table-0x3f0ecf54>
    71d0:	00 00 00 00 	unimp  0
    71d4:	44 00 00 66 	call  1000736c <_trap_table-0x304f8c94>
    71d8:	40 50 2f bc 	call  14130c8 <_trap_table-0x3f0ecf38>
    71dc:	00 00 00 00 	unimp  0
    71e0:	44 00 00 68 	call  10007380 <_trap_table-0x304f8c80>
    71e4:	40 50 2f c8 	call  1413104 <_trap_table-0x3f0ecefc>
    71e8:	00 00 00 00 	unimp  0
    71ec:	44 00 00 69 	call  10007390 <_trap_table-0x304f8c70>
    71f0:	40 50 2f cc 	call  1413120 <_trap_table-0x3f0ecee0>
    71f4:	00 00 67 98 	unimp  0x6798
    71f8:	64 00 00 00 	call  900071f8 <LEON_REG+0x100071f8>
    71fc:	40 50 2f d0 	call  141313c <_trap_table-0x3f0ecec4>
    7200:	00 00 67 a8 	unimp  0x67a8
    7204:	84 00 00 00 	add  %g0, %g0, %g2
    7208:	40 50 2f d0 	call  1413148 <_trap_table-0x3f0eceb8>
    720c:	00 00 00 00 	unimp  0
    7210:	44 00 00 2c 	call  100072c0 <_trap_table-0x304f8d40>
    7214:	40 50 2f d0 	call  1413154 <_trap_table-0x3f0eceac>
    7218:	00 00 00 00 	unimp  0
    721c:	44 00 00 2d 	call  100072d0 <_trap_table-0x304f8d30>
    7220:	40 50 2f d4 	call  1413170 <_trap_table-0x3f0ece90>
    7224:	00 00 00 00 	unimp  0
    7228:	44 00 00 2e 	call  100072e0 <_trap_table-0x304f8d20>
    722c:	40 50 2f d8 	call  141318c <_trap_table-0x3f0ece74>
    7230:	00 00 00 00 	unimp  0
    7234:	44 00 00 2f 	call  100072f0 <_trap_table-0x304f8d10>
    7238:	40 50 2f dc 	call  14131a8 <_trap_table-0x3f0ece58>
    723c:	00 00 00 00 	unimp  0
    7240:	44 00 00 31 	call  10007304 <_trap_table-0x304f8cfc>
    7244:	40 50 2f e0 	call  14131c4 <_trap_table-0x3f0ece3c>
    7248:	00 00 00 00 	unimp  0
    724c:	44 00 00 32 	call  10007314 <_trap_table-0x304f8cec>
    7250:	40 50 2f e4 	call  14131e0 <_trap_table-0x3f0ece20>
    7254:	00 00 00 00 	unimp  0
    7258:	44 00 00 33 	call  10007324 <_trap_table-0x304f8cdc>
    725c:	40 50 2f e8 	call  14131fc <_trap_table-0x3f0ece04>
    7260:	00 00 00 00 	unimp  0
    7264:	44 00 00 34 	call  10007334 <_trap_table-0x304f8ccc>
    7268:	40 50 2f ec 	call  1413218 <_trap_table-0x3f0ecde8>
    726c:	00 00 00 00 	unimp  0
    7270:	44 00 00 35 	call  10007344 <_trap_table-0x304f8cbc>
    7274:	40 50 2f f0 	call  1413234 <_trap_table-0x3f0ecdcc>
    7278:	00 00 00 00 	unimp  0
    727c:	44 00 00 36 	call  10007354 <_trap_table-0x304f8cac>
    7280:	40 50 2f f4 	call  1413250 <_trap_table-0x3f0ecdb0>
    7284:	00 00 00 00 	unimp  0
    7288:	44 00 00 37 	call  10007364 <_trap_table-0x304f8c9c>
    728c:	40 50 2f f8 	call  141326c <_trap_table-0x3f0ecd94>
    7290:	00 00 00 00 	unimp  0
    7294:	44 00 00 38 	call  10007374 <_trap_table-0x304f8c8c>
    7298:	40 50 2f fc 	call  1413288 <_trap_table-0x3f0ecd78>
    729c:	00 00 00 00 	unimp  0
    72a0:	44 00 00 39 	call  10007384 <_trap_table-0x304f8c7c>
    72a4:	40 50 30 00 	call  14132a4 <_trap_table-0x3f0ecd5c>
    72a8:	00 00 00 00 	unimp  0
    72ac:	44 00 00 3a 	call  10007394 <_trap_table-0x304f8c6c>
    72b0:	40 50 30 04 	call  14132c0 <_trap_table-0x3f0ecd40>
    72b4:	00 00 00 00 	unimp  0
    72b8:	44 00 00 3b 	call  100073a4 <_trap_table-0x304f8c5c>
    72bc:	40 50 30 08 	call  14132dc <_trap_table-0x3f0ecd24>
    72c0:	00 00 00 00 	unimp  0
    72c4:	44 00 00 3c 	call  100073b4 <_trap_table-0x304f8c4c>
    72c8:	40 50 30 0c 	call  14132f8 <_trap_table-0x3f0ecd08>
    72cc:	00 00 00 00 	unimp  0
    72d0:	44 00 00 3e 	call  100073c8 <_trap_table-0x304f8c38>
    72d4:	40 50 30 10 	call  1413314 <_trap_table-0x3f0eccec>
    72d8:	00 00 00 00 	unimp  0
    72dc:	44 00 00 3f 	call  100073d8 <_trap_table-0x304f8c28>
    72e0:	40 50 30 14 	call  1413330 <_trap_table-0x3f0eccd0>
    72e4:	00 00 00 00 	unimp  0
    72e8:	44 00 00 40 	call  100073e8 <_trap_table-0x304f8c18>
    72ec:	40 50 30 18 	call  141334c <_trap_table-0x3f0eccb4>
    72f0:	00 00 00 00 	unimp  0
    72f4:	44 00 00 41 	call  100073f8 <_trap_table-0x304f8c08>
    72f8:	40 50 30 1c 	call  1413368 <_trap_table-0x3f0ecc98>
    72fc:	00 00 00 00 	unimp  0
    7300:	44 00 00 43 	call  1000740c <_trap_table-0x304f8bf4>
    7304:	40 50 30 20 	call  1413384 <_trap_table-0x3f0ecc7c>
    7308:	00 00 00 00 	unimp  0
    730c:	44 00 00 44 	call  1000741c <_trap_table-0x304f8be4>
    7310:	40 50 30 24 	call  14133a0 <_trap_table-0x3f0ecc60>
    7314:	00 00 00 00 	unimp  0
    7318:	44 00 00 5b 	call  10007484 <_trap_table-0x304f8b7c>
    731c:	40 50 30 28 	call  14133bc <_trap_table-0x3f0ecc44>
    7320:	00 00 00 00 	unimp  0
    7324:	44 00 00 5c 	call  10007494 <_trap_table-0x304f8b6c>
    7328:	40 50 30 2c 	call  14133d8 <_trap_table-0x3f0ecc28>
    732c:	00 00 00 00 	unimp  0
    7330:	44 00 00 5d 	call  100074a4 <_trap_table-0x304f8b5c>
    7334:	40 50 30 30 	call  14133f4 <_trap_table-0x3f0ecc0c>
    7338:	00 00 00 00 	unimp  0
    733c:	44 00 00 5f 	call  100074b8 <_trap_table-0x304f8b48>
    7340:	40 50 30 34 	call  1413410 <_trap_table-0x3f0ecbf0>
    7344:	00 00 00 00 	unimp  0
    7348:	44 00 00 60 	call  100074c8 <_trap_table-0x304f8b38>
    734c:	40 50 30 38 	call  141342c <_trap_table-0x3f0ecbd4>
    7350:	00 00 00 00 	unimp  0
    7354:	44 00 00 61 	call  100074d8 <_trap_table-0x304f8b28>
    7358:	40 50 30 3c 	call  1413448 <_trap_table-0x3f0ecbb8>
    735c:	00 00 00 00 	unimp  0
    7360:	44 00 00 62 	call  100074e8 <_trap_table-0x304f8b18>
    7364:	40 50 30 40 	call  1413464 <_trap_table-0x3f0ecb9c>
    7368:	00 00 00 00 	unimp  0
    736c:	44 00 00 63 	call  100074f8 <_trap_table-0x304f8b08>
    7370:	40 50 30 44 	call  1413480 <_trap_table-0x3f0ecb80>
    7374:	00 00 00 00 	unimp  0
    7378:	44 00 00 64 	call  10007508 <_trap_table-0x304f8af8>
    737c:	40 50 30 48 	call  141349c <_trap_table-0x3f0ecb64>
    7380:	00 00 00 00 	unimp  0
    7384:	44 00 00 65 	call  10007518 <_trap_table-0x304f8ae8>
    7388:	40 50 30 4c 	call  14134b8 <_trap_table-0x3f0ecb48>
    738c:	00 00 00 00 	unimp  0
    7390:	44 00 00 66 	call  10007528 <_trap_table-0x304f8ad8>
    7394:	40 50 30 50 	call  14134d4 <_trap_table-0x3f0ecb2c>
    7398:	00 00 00 00 	unimp  0
    739c:	44 00 00 67 	call  10007538 <_trap_table-0x304f8ac8>
    73a0:	40 50 30 54 	call  14134f0 <_trap_table-0x3f0ecb10>
    73a4:	00 00 00 00 	unimp  0
    73a8:	44 00 00 68 	call  10007548 <_trap_table-0x304f8ab8>
    73ac:	40 50 30 58 	call  141350c <_trap_table-0x3f0ecaf4>
    73b0:	00 00 00 00 	unimp  0
    73b4:	44 00 00 69 	call  10007558 <_trap_table-0x304f8aa8>
    73b8:	40 50 30 5c 	call  1413528 <_trap_table-0x3f0ecad8>
    73bc:	00 00 00 00 	unimp  0
    73c0:	44 00 00 6a 	call  10007568 <_trap_table-0x304f8a98>
    73c4:	40 50 30 60 	call  1413544 <_trap_table-0x3f0ecabc>
    73c8:	00 00 00 00 	unimp  0
    73cc:	44 00 00 6c 	call  1000757c <_trap_table-0x304f8a84>
    73d0:	40 50 30 64 	call  1413560 <_trap_table-0x3f0ecaa0>
    73d4:	00 00 00 00 	unimp  0
    73d8:	44 00 00 6d 	call  1000758c <_trap_table-0x304f8a74>
    73dc:	40 50 30 68 	call  141357c <_trap_table-0x3f0eca84>
    73e0:	00 00 00 00 	unimp  0
    73e4:	44 00 00 6e 	call  1000759c <_trap_table-0x304f8a64>
    73e8:	40 50 30 6c 	call  1413598 <_trap_table-0x3f0eca68>
    73ec:	00 00 00 00 	unimp  0
    73f0:	44 00 00 6f 	call  100075ac <_trap_table-0x304f8a54>
    73f4:	40 50 30 70 	call  14135b4 <_trap_table-0x3f0eca4c>
    73f8:	00 00 00 00 	unimp  0
    73fc:	44 00 00 71 	call  100075c0 <_trap_table-0x304f8a40>
    7400:	40 50 30 74 	call  14135d0 <_trap_table-0x3f0eca30>
    7404:	00 00 00 00 	unimp  0
    7408:	44 00 00 72 	call  100075d0 <_trap_table-0x304f8a30>
    740c:	40 50 30 78 	call  14135ec <_trap_table-0x3f0eca14>
    7410:	00 00 00 00 	unimp  0
    7414:	44 00 00 83 	call  10007620 <_trap_table-0x304f89e0>
    7418:	40 50 30 7c 	call  1413608 <_trap_table-0x3f0ec9f8>
    741c:	00 00 00 00 	unimp  0
    7420:	44 00 00 84 	call  10007630 <_trap_table-0x304f89d0>
    7424:	40 50 30 80 	call  1413624 <_trap_table-0x3f0ec9dc>
    7428:	00 00 00 00 	unimp  0
    742c:	44 00 00 85 	call  10007640 <_trap_table-0x304f89c0>
    7430:	40 50 30 84 	call  1413640 <_trap_table-0x3f0ec9c0>
    7434:	00 00 00 00 	unimp  0
    7438:	44 00 00 86 	call  10007650 <_trap_table-0x304f89b0>
    743c:	40 50 30 88 	call  141365c <_trap_table-0x3f0ec9a4>
    7440:	00 00 00 00 	unimp  0
    7444:	44 00 00 87 	call  10007660 <_trap_table-0x304f89a0>
    7448:	40 50 30 8c 	call  1413678 <_trap_table-0x3f0ec988>
    744c:	00 00 00 00 	unimp  0
    7450:	44 00 00 88 	call  10007670 <_trap_table-0x304f8990>
    7454:	40 50 30 90 	call  1413694 <_trap_table-0x3f0ec96c>
    7458:	00 00 00 00 	unimp  0
    745c:	44 00 00 89 	call  10007680 <_trap_table-0x304f8980>
    7460:	40 50 30 94 	call  14136b0 <_trap_table-0x3f0ec950>
    7464:	00 00 00 00 	unimp  0
    7468:	44 00 00 8a 	call  10007690 <_trap_table-0x304f8970>
    746c:	40 50 30 98 	call  14136cc <_trap_table-0x3f0ec934>
    7470:	00 00 00 00 	unimp  0
    7474:	44 00 00 8b 	call  100076a0 <_trap_table-0x304f8960>
    7478:	40 50 30 9c 	call  14136e8 <_trap_table-0x3f0ec918>
    747c:	00 00 00 00 	unimp  0
    7480:	44 00 00 8c 	call  100076b0 <_trap_table-0x304f8950>
    7484:	40 50 30 a0 	call  1413704 <_trap_table-0x3f0ec8fc>
    7488:	00 00 00 00 	unimp  0
    748c:	44 00 00 8d 	call  100076c0 <_trap_table-0x304f8940>
    7490:	40 50 30 a4 	call  1413720 <_trap_table-0x3f0ec8e0>
    7494:	00 00 00 00 	unimp  0
    7498:	44 00 00 8e 	call  100076d0 <_trap_table-0x304f8930>
    749c:	40 50 30 a8 	call  141373c <_trap_table-0x3f0ec8c4>
    74a0:	00 00 00 00 	unimp  0
    74a4:	44 00 00 8f 	call  100076e0 <_trap_table-0x304f8920>
    74a8:	40 50 30 ac 	call  1413758 <_trap_table-0x3f0ec8a8>
    74ac:	00 00 00 00 	unimp  0
    74b0:	44 00 00 90 	call  100076f0 <_trap_table-0x304f8910>
    74b4:	40 50 30 b0 	call  1413774 <_trap_table-0x3f0ec88c>
    74b8:	00 00 27 b1 	unimp  0x27b1
    74bc:	64 00 00 00 	call  900074bc <LEON_REG+0x100074bc>
    74c0:	40 50 30 b4 	call  1413790 <_trap_table-0x3f0ec870>
    74c4:	00 00 67 df 	unimp  0x67df
    74c8:	64 00 00 00 	call  900074c8 <LEON_REG+0x100074c8>
    74cc:	40 50 30 b4 	call  141379c <_trap_table-0x3f0ec864>
    74d0:	00 00 01 23 	unimp  0x123
    74d4:	3c 00 00 00 	unknown
    74d8:	00 00 00 00 	unimp  0
    74dc:	00 00 01 32 	unimp  0x132
    74e0:	80 00 00 00 	add  %g0, %g0, %g0
    74e4:	00 00 00 00 	unimp  0
    74e8:	00 00 01 5c 	unimp  0x15c
    74ec:	80 00 00 00 	add  %g0, %g0, %g0
    74f0:	00 00 00 00 	unimp  0
    74f4:	00 00 01 76 	unimp  0x176
    74f8:	80 00 00 00 	add  %g0, %g0, %g0
    74fc:	00 00 00 00 	unimp  0
    7500:	00 00 01 a5 	unimp  0x1a5
    7504:	80 00 00 00 	add  %g0, %g0, %g0
    7508:	00 00 00 00 	unimp  0
    750c:	00 00 01 dd 	unimp  0x1dd
    7510:	80 00 00 00 	add  %g0, %g0, %g0
    7514:	00 00 00 00 	unimp  0
    7518:	00 00 02 1a 	unimp  0x21a
    751c:	80 00 00 00 	add  %g0, %g0, %g0
    7520:	00 00 00 00 	unimp  0
    7524:	00 00 02 6b 	unimp  0x26b
    7528:	80 00 00 00 	add  %g0, %g0, %g0
    752c:	00 00 00 00 	unimp  0
    7530:	00 00 02 bc 	unimp  0x2bc
    7534:	80 00 00 00 	add  %g0, %g0, %g0
    7538:	00 00 00 00 	unimp  0
    753c:	00 00 02 e7 	unimp  0x2e7
    7540:	80 00 00 00 	add  %g0, %g0, %g0
    7544:	00 00 00 00 	unimp  0
    7548:	00 00 03 16 	unimp  0x316
    754c:	80 00 00 00 	add  %g0, %g0, %g0
    7550:	00 00 00 00 	unimp  0
    7554:	00 00 03 40 	unimp  0x340
    7558:	80 00 00 00 	add  %g0, %g0, %g0
    755c:	00 00 00 00 	unimp  0
    7560:	00 00 03 69 	unimp  0x369
    7564:	80 00 00 00 	add  %g0, %g0, %g0
    7568:	00 00 00 00 	unimp  0
    756c:	00 00 03 83 	unimp  0x383
    7570:	80 00 00 00 	add  %g0, %g0, %g0
    7574:	00 00 00 00 	unimp  0
    7578:	00 00 03 9e 	unimp  0x39e
    757c:	80 00 00 00 	add  %g0, %g0, %g0
    7580:	00 00 00 00 	unimp  0
    7584:	00 00 03 be 	unimp  0x3be
    7588:	80 00 00 00 	add  %g0, %g0, %g0
    758c:	00 00 00 00 	unimp  0
    7590:	00 00 03 f7 	unimp  0x3f7
    7594:	80 00 00 00 	add  %g0, %g0, %g0
    7598:	00 00 00 00 	unimp  0
    759c:	00 00 04 15 	unimp  0x415
    75a0:	80 00 00 00 	add  %g0, %g0, %g0
    75a4:	00 00 00 00 	unimp  0
    75a8:	00 00 04 35 	unimp  0x435
    75ac:	80 00 00 00 	add  %g0, %g0, %g0
    75b0:	00 00 00 00 	unimp  0
    75b4:	00 00 04 5a 	unimp  0x45a
    75b8:	80 00 00 00 	add  %g0, %g0, %g0
    75bc:	00 00 00 00 	unimp  0
    75c0:	00 00 04 6e 	unimp  0x46e
    75c4:	80 00 00 00 	add  %g0, %g0, %g0
    75c8:	00 00 00 00 	unimp  0
    75cc:	00 00 04 90 	unimp  0x490
    75d0:	80 00 00 00 	add  %g0, %g0, %g0
    75d4:	00 00 00 00 	unimp  0
    75d8:	00 00 68 12 	unimp  0x6812
    75dc:	20 00 00 17 	unknown
	...
    75e8:	64 00 00 00 	call  900075e8 <LEON_REG+0x100075e8>
    75ec:	40 50 30 b4 	call  14138bc <_trap_table-0x3f0ec744>
Disassembly of section .stabstr:

00000000 <.stabstr>:
       0:	00 2f 74 6d 	unimp  0xffef746d
       4:	70 2f 63 63 	call  c0bd8d90 <LEON_REG+0x40bd8d90>
       8:	4f 38 63 68 	call  3ce18da8 <_trap_table-0x36e7258>
       c:	69 6f 2e 73 	call  a5bcb9d8 <LEON_REG+0x25bcb9d8>
      10:	00 2e 2e 2f 	unimp  0xffee2e2f
      14:	2e 2e 2f 2e 	unknown
      18:	2e 2f 2e 2e 	unknown
      1c:	2f 2e 2e 2f 	sethi  %hi(0xb8b8bc00), %l7
      20:	67 63 63 2d 	call  9d8d8cd4 <LEON_REG+0x1d8d8cd4>
      24:	33 2e 34 2e 	sethi  %hi(0xb8d0b800), %i1
      28:	34 2f 6c 69 	unknown
      2c:	62 67 6c 6f 	call  899db1e8 <LEON_REG+0x99db1e8>
      30:	73 73 2f 73 	call  cdccbdfc <LEON_REG+0x4dccbdfc>
      34:	70 61 72 63 	call  c185c9c0 <LEON_REG+0x4185c9c0>
      38:	5f 6c 65 6f 	call  7db195f4 <__end+0x3d6156bc>
      3c:	6e 2f 6c 6f 	call  b8bdb1f8 <LEON_REG+0x38bdb1f8>
      40:	63 6f 72 65 	call  8dbdc9d4 <LEON_REG+0xdbdc9d4>
      44:	5f 6d 76 74 	call  7db5da14 <__end+0x3d659adc>
      48:	2e 53 00 2f 	unknown
      4c:	74 6d 70 2f 	call  d1b5c108 <LEON_REG+0x51b5c108>
      50:	63 63 53 43 	call  8d8d4d5c <LEON_REG+0xd8d4d5c>
      54:	75 51 44 6d 	call  d5451208 <LEON_REG+0x55451208>
      58:	2e 73 00 2e 	unknown
      5c:	2e 2f 2e 2e 	unknown
      60:	2f 2e 2e 2f 	sethi  %hi(0xb8b8bc00), %l7
      64:	2e 2e 2f 2e 	unknown
      68:	2e 2f 67 63 	unknown
      6c:	63 2d 33 2e 	call  8cb4cd24 <LEON_REG+0xcb4cd24>
      70:	34 2e 34 2f 	unknown
      74:	6c 69 62 67 	call  b1a58a10 <LEON_REG+0x31a58a10>
      78:	6c 6f 73 73 	call  b1bdce44 <LEON_REG+0x31bdce44>
      7c:	2f 73 70 61 	unknown
      80:	72 63 5f 6c 	call  c98d7e30 <LEON_REG+0x498d7e30>
      84:	65 6f 6e 2f 	call  95bdb940 <LEON_REG+0x15bdb940>
      88:	63 72 74 30 	call  8dc9d148 <LEON_REG+0xdc9d148>
      8c:	2e 53 00 2f 	unknown
      90:	68 6f 6d 65 	call  a1bdb624 <LEON_REG+0x21bdb624>
      94:	2f 6a 6f 6e 	unknown
      98:	61 73 2f 73 	call  85ccbe64 <LEON_REG+0x5ccbe64>
      9c:	72 63 2f 74 	call  c98cbe6c <LEON_REG+0x498cbe6c>
      a0:	6f 6f 6c 63 	call  bdbdb22c <LEON_REG+0x3dbdb22c>
      a4:	68 61 69 6e 	call  a185a65c <LEON_REG+0x2185a65c>
      a8:	73 2f 62 63 	call  ccbd8a34 <LEON_REG+0x4cbd8a34>
      ac:	63 2f 67 63 	call  8cbd9e38 <LEON_REG+0xcbd9e38>
      b0:	63 2d 33 2e 	call  8cb4cd68 <LEON_REG+0xcb4cd68>
      b4:	34 2e 34 2d 	unknown
      b8:	67 63 63 2d 	call  9d8d8d6c <LEON_REG+0x1d8d8d6c>
      bc:	33 2e 34 2e 	sethi  %hi(0xb8d0b800), %i1
      c0:	34 2d 62 75 	unknown
      c4:	69 6c 64 2f 	call  a5b19180 <LEON_REG+0x25b19180>
      c8:	73 70 61 72 	call  cdc18690 <LEON_REG+0x4dc18690>
      cc:	63 2d 65 6c 	call  8cb5967c <LEON_REG+0xcb5967c>
      d0:	66 2f 73 6f 	call  98bdce8c <LEON_REG+0x18bdce8c>
      d4:	66 74 2f 6e 	call  99d0be8c <LEON_REG+0x19d0be8c>
      d8:	65 77 6c 69 	call  95ddb27c <LEON_REG+0x15ddb27c>
      dc:	62 2f 6c 69 	call  88bdb280 <LEON_REG+0x8bdb280>
      e0:	62 63 2f 73 	call  898cbeac <LEON_REG+0x98cbeac>
      e4:	74 64 6c 69 	call  d191b288 <LEON_REG+0x5191b288>
      e8:	62 2f 00 2e 	call  88bc01a0 <LEON_REG+0x8bc01a0>
      ec:	2e 2f 2e 2e 	unknown
      f0:	2f 2e 2e 2f 	sethi  %hi(0xb8b8bc00), %l7
      f4:	2e 2e 2f 2e 	unknown
      f8:	2e 2f 2e 2e 	unknown
      fc:	2f 67 63 63 	unknown
     100:	2d 33 2e 34 	sethi  %hi(0xccb8d000), %l6
     104:	2e 34 2f 6e 	unknown
     108:	65 77 6c 69 	call  95ddb2ac <LEON_REG+0x15ddb2ac>
     10c:	62 2f 6c 69 	call  88bdb2b0 <LEON_REG+0x8bdb2b0>
     110:	62 63 2f 73 	call  898cbedc <LEON_REG+0x98cbedc>
     114:	74 64 6c 69 	call  d191b2b8 <LEON_REG+0x5191b2b8>
     118:	62 2f 61 74 	call  88bd86e8 <LEON_REG+0x8bd86e8>
     11c:	65 78 69 74 	call  95e1a6ec <LEON_REG+0x15e1a6ec>
     120:	2e 63 00 67 	unknown
     124:	63 63 32 5f 	call  8d8ccaa0 <LEON_REG+0xd8ccaa0>
     128:	63 6f 6d 70 	call  8dbdb6e8 <LEON_REG+0xdbdb6e8>
     12c:	69 6c 65 64 	call  a5b196bc <LEON_REG+0x25b196bc>
     130:	2e 00 69 6e 	unknown
     134:	74 3a 74 28 	call  d0e9d1d4 <LEON_REG+0x50e9d1d4>
     138:	30 2c 31 29 	unknown
     13c:	3d 72 28 30 	unknown
     140:	2c 31 29 3b 	unknown
     144:	2d 32 31 34 	sethi  %hi(0xc8c4d000), %l6
     148:	37 34 38 33 	sethi  %hi(0xd0e0cc00), %i3
     14c:	36 34 38 3b 	unknown
     150:	32 31 34 37 	unknown
     154:	34 38 33 36 	unknown
     158:	34 37 3b 00 	unknown
     15c:	63 68 61 72 	call  8da18724 <LEON_REG+0xda18724>
     160:	3a 74 28 30 	unknown
     164:	2c 32 29 3d 	unknown
     168:	72 28 30 2c 	call  c8a0c218 <LEON_REG+0x48a0c218>
     16c:	32 29 3b 30 	unknown
     170:	3b 31 32 37 	sethi  %hi(0xc4c8dc00), %i5
     174:	3b 00 6c 6f 	sethi  %hi(0x1b1bc00), %i5
     178:	6e 67 20 69 	call  b99c831c <LEON_REG+0x399c831c>
     17c:	6e 74 3a 74 	call  b9d0eb4c <LEON_REG+0x39d0eb4c>
     180:	28 30 2c 33 	unknown
     184:	29 3d 72 28 	sethi  %hi(0xf5c8a000), %l4
     188:	30 2c 33 29 	unknown
     18c:	3b 2d 32 31 	sethi  %hi(0xb4c8c400), %i5
     190:	34 37 34 38 	unknown
     194:	33 36 34 38 	sethi  %hi(0xd8d0e000), %i1
     198:	3b 32 31 34 	sethi  %hi(0xc8c4d000), %i5
     19c:	37 34 38 33 	sethi  %hi(0xd0e0cc00), %i3
     1a0:	36 34 37 3b 	unknown
     1a4:	00 75 6e 73 	unknown
     1a8:	69 67 6e 65 	call  a59dbb3c <LEON_REG+0x259dbb3c>
     1ac:	64 20 69 6e 	call  9081a764 <LEON_REG+0x1081a764>
     1b0:	74 3a 74 28 	call  d0e9d250 <LEON_REG+0x50e9d250>
     1b4:	30 2c 34 29 	unknown
     1b8:	3d 72 28 30 	unknown
     1bc:	2c 34 29 3b 	unknown
     1c0:	30 30 30 30 	unknown
     1c4:	30 30 30 30 	unknown
     1c8:	30 30 30 30 	unknown
     1cc:	30 3b 30 30 	unknown
     1d0:	33 37 37 37 	sethi  %hi(0xdcdcdc00), %i1
     1d4:	37 37 37 37 	sethi  %hi(0xdcdcdc00), %i3
     1d8:	37 37 37 3b 	sethi  %hi(0xdcdcec00), %i3
     1dc:	00 6c 6f 6e 	unknown
     1e0:	67 20 75 6e 	call  9c81d798 <LEON_REG+0x1c81d798>
     1e4:	73 69 67 6e 	call  cda59f9c <LEON_REG+0x4da59f9c>
     1e8:	65 64 20 69 	call  9590838c <LEON_REG+0x1590838c>
     1ec:	6e 74 3a 74 	call  b9d0ebbc <LEON_REG+0x39d0ebbc>
     1f0:	28 30 2c 35 	unknown
     1f4:	29 3d 72 28 	sethi  %hi(0xf5c8a000), %l4
     1f8:	30 2c 35 29 	unknown
     1fc:	3b 30 30 30 	sethi  %hi(0xc0c0c000), %i5
     200:	30 30 30 30 	unknown
     204:	30 30 30 30 	unknown
     208:	30 30 3b 30 	unknown
     20c:	30 33 37 37 	unknown
     210:	37 37 37 37 	sethi  %hi(0xdcdcdc00), %i3
     214:	37 37 37 37 	sethi  %hi(0xdcdcdc00), %i3
     218:	3b 00 6c 6f 	sethi  %hi(0x1b1bc00), %i5
     21c:	6e 67 20 6c 	call  b99c83cc <LEON_REG+0x399c83cc>
     220:	6f 6e 67 20 	call  bdb99ea0 <LEON_REG+0x3db99ea0>
     224:	69 6e 74 3a 	call  a5b9d30c <LEON_REG+0x25b9d30c>
     228:	74 28 30 2c 	call  d0a0c2d8 <LEON_REG+0x50a0c2d8>
     22c:	36 29 3d 40 	unknown
     230:	73 36 34 3b 	call  ccd8d31c <LEON_REG+0x4cd8d31c>
     234:	72 28 30 2c 	call  c8a0c2e4 <LEON_REG+0x48a0c2e4>
     238:	36 29 3b 30 	unknown
     23c:	31 30 30 30 	sethi  %hi(0xc0c0c000), %i0
     240:	30 30 30 30 	unknown
     244:	30 30 30 30 	unknown
     248:	30 30 30 30 	unknown
     24c:	30 30 30 30 	unknown
     250:	30 30 3b 30 	unknown
     254:	37 37 37 37 	sethi  %hi(0xdcdcdc00), %i3
     258:	37 37 37 37 	sethi  %hi(0xdcdcdc00), %i3
     25c:	37 37 37 37 	sethi  %hi(0xdcdcdc00), %i3
     260:	37 37 37 37 	sethi  %hi(0xdcdcdc00), %i3
     264:	37 37 37 37 	sethi  %hi(0xdcdcdc00), %i3
     268:	37 3b 00 6c 	sethi  %hi(0xec01b000), %i3
     26c:	6f 6e 67 20 	call  bdb99eec <LEON_REG+0x3db99eec>
     270:	6c 6f 6e 67 	call  b1bdbc0c <LEON_REG+0x31bdbc0c>
     274:	20 75 6e 73 	unknown
     278:	69 67 6e 65 	call  a59dbc0c <LEON_REG+0x259dbc0c>
     27c:	64 20 69 6e 	call  9081a834 <LEON_REG+0x1081a834>
     280:	74 3a 74 28 	call  d0e9d320 <LEON_REG+0x50e9d320>
     284:	30 2c 37 29 	unknown
     288:	3d 40 73 36 	unknown
     28c:	34 3b 72 28 	unknown
     290:	30 2c 37 29 	unknown
     294:	3b 30 30 30 	sethi  %hi(0xc0c0c000), %i5
     298:	30 30 30 30 	unknown
     29c:	30 30 30 30 	unknown
     2a0:	30 30 3b 30 	unknown
     2a4:	31 37 37 37 	sethi  %hi(0xdcdcdc00), %i0
     2a8:	37 37 37 37 	sethi  %hi(0xdcdcdc00), %i3
     2ac:	37 37 37 37 	sethi  %hi(0xdcdcdc00), %i3
     2b0:	37 37 37 37 	sethi  %hi(0xdcdcdc00), %i3
     2b4:	37 37 37 37 	sethi  %hi(0xdcdcdc00), %i3
     2b8:	37 37 3b 00 	sethi  %hi(0xdcec0000), %i3
     2bc:	73 68 6f 72 	call  cda1c084 <LEON_REG+0x4da1c084>
     2c0:	74 20 69 6e 	call  d081a878 <LEON_REG+0x5081a878>
     2c4:	74 3a 74 28 	call  d0e9d364 <LEON_REG+0x50e9d364>
     2c8:	30 2c 38 29 	unknown
     2cc:	3d 40 73 31 	unknown
     2d0:	36 3b 72 28 	unknown
     2d4:	30 2c 38 29 	unknown
     2d8:	3b 2d 33 32 	sethi  %hi(0xb4ccc800), %i5
     2dc:	37 36 38 3b 	sethi  %hi(0xd8e0ec00), %i3
     2e0:	33 32 37 36 	sethi  %hi(0xc8dcd800), %i1
     2e4:	37 3b 00 73 	sethi  %hi(0xec01cc00), %i3
     2e8:	68 6f 72 74 	call  a1bdccb8 <LEON_REG+0x21bdccb8>
     2ec:	20 75 6e 73 	unknown
     2f0:	69 67 6e 65 	call  a59dbc84 <LEON_REG+0x259dbc84>
     2f4:	64 20 69 6e 	call  9081a8ac <LEON_REG+0x1081a8ac>
     2f8:	74 3a 74 28 	call  d0e9d398 <LEON_REG+0x50e9d398>
     2fc:	30 2c 39 29 	unknown
     300:	3d 40 73 31 	unknown
     304:	36 3b 72 28 	unknown
     308:	30 2c 39 29 	unknown
     30c:	3b 30 3b 36 	sethi  %hi(0xc0ecd800), %i5
     310:	35 35 33 35 	sethi  %hi(0xd4ccd400), %i2
     314:	3b 00 73 69 	sethi  %hi(0x1cda400), %i5
     318:	67 6e 65 64 	call  9db998a8 <LEON_REG+0x1db998a8>
     31c:	20 63 68 61 	unknown
     320:	72 3a 74 28 	call  c8e9d3c0 <LEON_REG+0x48e9d3c0>
     324:	30 2c 31 30 	unknown
     328:	29 3d 40 73 	sethi  %hi(0xf501cc00), %l4
     32c:	38 3b 72 28 	unknown
     330:	30 2c 31 30 	unknown
     334:	29 3b 2d 31 	sethi  %hi(0xecb4c400), %l4
     338:	32 38 3b 31 	unknown
     33c:	32 37 3b 00 	unknown
     340:	75 6e 73 69 	call  d5b9d0e4 <LEON_REG+0x55b9d0e4>
     344:	67 6e 65 64 	call  9db998d4 <LEON_REG+0x1db998d4>
     348:	20 63 68 61 	unknown
     34c:	72 3a 74 28 	call  c8e9d3ec <LEON_REG+0x48e9d3ec>
     350:	30 2c 31 31 	unknown
     354:	29 3d 40 73 	sethi  %hi(0xf501cc00), %l4
     358:	38 3b 72 28 	unknown
     35c:	30 2c 31 31 	unknown
     360:	29 3b 30 3b 	sethi  %hi(0xecc0ec00), %l4
     364:	32 35 35 3b 	unknown
     368:	00 66 6c 6f 	unknown
     36c:	61 74 3a 74 	call  85d0ed3c <LEON_REG+0x5d0ed3c>
     370:	28 30 2c 31 	unknown
     374:	32 29 3d 72 	unknown
     378:	28 30 2c 31 	unknown
     37c:	29 3b 34 3b 	sethi  %hi(0xecd0ec00), %l4
     380:	30 3b 00 64 	unknown
     384:	6f 75 62 6c 	call  bdd58d34 <LEON_REG+0x3dd58d34>
     388:	65 3a 74 28 	call  94e9d428 <LEON_REG+0x14e9d428>
     38c:	30 2c 31 33 	unknown
     390:	29 3d 72 28 	sethi  %hi(0xf5c8a000), %l4
     394:	30 2c 31 29 	unknown
     398:	3b 38 3b 30 	sethi  %hi(0xe0ecc000), %i5
     39c:	3b 00 6c 6f 	sethi  %hi(0x1b1bc00), %i5
     3a0:	6e 67 20 64 	call  b99c8530 <LEON_REG+0x399c8530>
     3a4:	6f 75 62 6c 	call  bdd58d54 <LEON_REG+0x3dd58d54>
     3a8:	65 3a 74 28 	call  94e9d448 <LEON_REG+0x14e9d448>
     3ac:	30 2c 31 34 	unknown
     3b0:	29 3d 72 28 	sethi  %hi(0xf5c8a000), %l4
     3b4:	30 2c 31 29 	unknown
     3b8:	3b 38 3b 30 	sethi  %hi(0xe0ecc000), %i5
     3bc:	3b 00 63 6f 	sethi  %hi(0x18dbc00), %i5
     3c0:	6d 70 6c 65 	call  b5c1b554 <LEON_REG+0x35c1b554>
     3c4:	78 20 69 6e 	call  e081a97c <LEON_REG+0x6081a97c>
     3c8:	74 3a 74 28 	call  d0e9d468 <LEON_REG+0x50e9d468>
     3cc:	30 2c 31 35 	unknown
     3d0:	29 3d 73 38 	sethi  %hi(0xf5cce000), %l4
     3d4:	72 65 61 6c 	call  c9958984 <LEON_REG+0x49958984>
     3d8:	3a 28 30 2c 	unknown
     3dc:	31 29 2c 30 	sethi  %hi(0xa4b0c000), %i0
     3e0:	2c 33 32 3b 	unknown
     3e4:	69 6d 61 67 	call  a5b58980 <LEON_REG+0x25b58980>
     3e8:	3a 28 30 2c 	unknown
     3ec:	31 29 2c 33 	sethi  %hi(0xa4b0cc00), %i0
     3f0:	32 2c 33 32 	unknown
     3f4:	3b 3b 00 63 	sethi  %hi(0xec018c00), %i5
     3f8:	6f 6d 70 6c 	call  bdb5c5a8 <LEON_REG+0x3db5c5a8>
     3fc:	65 78 20 66 	call  95e08594 <LEON_REG+0x15e08594>
     400:	6c 6f 61 74 	call  b1bd89d0 <LEON_REG+0x31bd89d0>
     404:	3a 74 28 30 	unknown
     408:	2c 31 36 29 	unknown
     40c:	3d 52 33 3b 	unknown
     410:	38 3b 30 3b 	unknown
     414:	00 63 6f 6d 	unknown
     418:	70 6c 65 78 	call  c1b199f8 <LEON_REG+0x41b199f8>
     41c:	20 64 6f 75 	unknown
     420:	62 6c 65 3a 	call  89b19908 <LEON_REG+0x9b19908>
     424:	74 28 30 2c 	call  d0a0c4d4 <LEON_REG+0x50a0c4d4>
     428:	31 37 29 3d 	sethi  %hi(0xdca4f400), %i0
     42c:	52 33 3b 31 	call  48ccf0f0 <__end+0x87cb1b8>
     430:	36 3b 30 3b 	unknown
     434:	00 63 6f 6d 	unknown
     438:	70 6c 65 78 	call  c1b19a18 <LEON_REG+0x41b19a18>
     43c:	20 6c 6f 6e 	unknown
     440:	67 20 64 6f 	call  9c8195fc <LEON_REG+0x1c8195fc>
     444:	75 62 6c 65 	call  d589b5d8 <LEON_REG+0x5589b5d8>
     448:	3a 74 28 30 	unknown
     44c:	2c 31 38 29 	unknown
     450:	3d 52 33 3b 	unknown
     454:	31 36 3b 30 	sethi  %hi(0xd8ecc000), %i0
     458:	3b 00 76 6f 	sethi  %hi(0x1d9bc00), %i5
     45c:	69 64 3a 74 	call  a590ee2c <LEON_REG+0x2590ee2c>
     460:	28 30 2c 31 	unknown
     464:	39 29 3d 28 	sethi  %hi(0xa4f4a000), %i4
     468:	30 2c 31 39 	unknown
     46c:	29 00 5f 5f 	sethi  %hi(0x17d7c00), %l4
     470:	62 75 69 6c 	call  89d5aa20 <LEON_REG+0x9d5aa20>
     474:	74 69 6e 5f 	call  d1a5bdf0 <LEON_REG+0x51a5bdf0>
     478:	76 61 5f 6c 	call  d9858228 <LEON_REG+0x59858228>
     47c:	69 73 74 3a 	call  a5cdd564 <LEON_REG+0x25cdd564>
     480:	74 28 30 2c 	call  d0a0c530 <LEON_REG+0x50a0c530>
     484:	32 30 29 3d 	unknown
     488:	2a 28 30 2c 	unknown
     48c:	31 39 29 00 	sethi  %hi(0xe4a40000), %i0
     490:	5f 42 6f 6f 	call  7d09c24c <__end+0x3cb98314>
     494:	6c 3a 74 28 	call  b0e9d534 <LEON_REG+0x30e9d534>
     498:	30 2c 32 31 	unknown
     49c:	29 3d 40 73 	sethi  %hi(0xf501cc00), %l4
     4a0:	38 3b 2d 31 	unknown
     4a4:	36 3b 00 2f 	unknown
     4a8:	68 6f 6d 65 	call  a1bdba3c <LEON_REG+0x21bdba3c>
     4ac:	2f 6a 6f 6e 	unknown
     4b0:	61 73 2f 73 	call  85ccc27c <LEON_REG+0x5ccc27c>
     4b4:	72 63 2f 74 	call  c98cc284 <LEON_REG+0x498cc284>
     4b8:	6f 6f 6c 63 	call  bdbdb644 <LEON_REG+0x3dbdb644>
     4bc:	68 61 69 6e 	call  a185aa74 <LEON_REG+0x2185aa74>
     4c0:	73 2f 62 63 	call  ccbd8e4c <LEON_REG+0x4cbd8e4c>
     4c4:	63 2f 67 63 	call  8cbda250 <LEON_REG+0xcbda250>
     4c8:	63 2d 33 2e 	call  8cb4d180 <LEON_REG+0xcb4d180>
     4cc:	34 2e 34 2f 	unknown
     4d0:	6e 65 77 6c 	call  b995e280 <LEON_REG+0x3995e280>
     4d4:	69 62 2f 6c 	call  a588c284 <LEON_REG+0x2588c284>
     4d8:	69 62 63 2f 	call  a5899194 <LEON_REG+0x25899194>
     4dc:	69 6e 63 6c 	call  a5b9928c <LEON_REG+0x25b9928c>
     4e0:	75 64 65 2f 	call  d591999c <LEON_REG+0x5591999c>
     4e4:	73 74 64 6c 	call  cdd19694 <LEON_REG+0x4dd19694>
     4e8:	69 62 2e 68 	call  a588be88 <LEON_REG+0x2588be88>
     4ec:	00 2f 68 6f 	unimp  0xffef686f
     4f0:	6d 65 2f 6a 	call  b594c298 <LEON_REG+0x3594c298>
     4f4:	6f 6e 61 73 	call  bdb98ac0 <LEON_REG+0x3db98ac0>
     4f8:	2f 73 72 63 	unknown
     4fc:	2f 74 6f 6f 	unknown
     500:	6c 63 68 61 	call  b18da684 <LEON_REG+0x318da684>
     504:	69 6e 73 2f 	call  a5b9d1c0 <LEON_REG+0x25b9d1c0>
     508:	62 63 63 2f 	call  898d91c4 <LEON_REG+0x98d91c4>
     50c:	67 63 63 2d 	call  9d8d91c0 <LEON_REG+0x1d8d91c0>
     510:	33 2e 34 2e 	sethi  %hi(0xb8d0b800), %i1
     514:	34 2d 67 63 	unknown
     518:	63 2d 33 2e 	call  8cb4d1d0 <LEON_REG+0xcb4d1d0>
     51c:	34 2e 34 2d 	unknown
     520:	62 75 69 6c 	call  89d5aad0 <LEON_REG+0x9d5aad0>
     524:	64 2f 67 63 	call  90bda2b0 <LEON_REG+0x10bda2b0>
     528:	63 2f 69 6e 	call  8cbdaae0 <LEON_REG+0xcbdaae0>
     52c:	63 6c 75 64 	call  8db1dabc <LEON_REG+0xdb1dabc>
     530:	65 2f 73 74 	call  94bdd300 <LEON_REG+0x14bdd300>
     534:	64 64 65 66 	call  91919acc <LEON_REG+0x11919acc>
     538:	2e 68 00 73 	unknown
     53c:	69 7a 65 5f 	call  a5e99ab8 <LEON_REG+0x25e99ab8>
     540:	74 3a 74 28 	call  d0e9d5e0 <LEON_REG+0x50e9d5e0>
     544:	32 2c 31 29 	unknown
     548:	3d 28 30 2c 	sethi  %hi(0xa0c0b000), %fp
     54c:	34 29 00 77 	unknown
     550:	63 68 61 72 	call  8da18b18 <LEON_REG+0xda18b18>
     554:	5f 74 3a 74 	call  7dd0ef24 <__end+0x3d80afec>
     558:	28 32 2c 32 	unknown
     55c:	29 3d 28 30 	sethi  %hi(0xf4a0c000), %l4
     560:	2c 33 29 00 	unknown
     564:	2f 68 6f 6d 	unknown
     568:	65 2f 6a 6f 	call  94bdaf24 <LEON_REG+0x14bdaf24>
     56c:	6e 61 73 2f 	call  b985d228 <LEON_REG+0x3985d228>
     570:	73 72 63 2f 	call  cdc9922c <LEON_REG+0x4dc9922c>
     574:	74 6f 6f 6c 	call  d1bdc324 <LEON_REG+0x51bdc324>
     578:	63 68 61 69 	call  8da18b1c <LEON_REG+0xda18b1c>
     57c:	6e 73 2f 62 	call  b9ccc304 <LEON_REG+0x39ccc304>
     580:	63 63 2f 67 	call  8d8cc31c <LEON_REG+0xd8cc31c>
     584:	63 63 2d 33 	call  8d8cba50 <LEON_REG+0xd8cba50>
     588:	2e 34 2e 34 	unknown
     58c:	2f 6e 65 77 	unknown
     590:	6c 69 62 2f 	call  b1a58e4c <LEON_REG+0x31a58e4c>
     594:	6c 69 62 63 	call  b1a58f20 <LEON_REG+0x31a58f20>
     598:	2f 69 6e 63 	unknown
     59c:	6c 75 64 65 	call  b1d59730 <LEON_REG+0x31d59730>
     5a0:	2f 73 79 73 	unknown
     5a4:	2f 72 65 65 	unknown
     5a8:	6e 74 2e 68 	call  b9d0bf48 <LEON_REG+0x39d0bf48>
     5ac:	00 2f 68 6f 	unimp  0xffef686f
     5b0:	6d 65 2f 6a 	call  b594c358 <LEON_REG+0x3594c358>
     5b4:	6f 6e 61 73 	call  bdb98b80 <LEON_REG+0x3db98b80>
     5b8:	2f 73 72 63 	unknown
     5bc:	2f 74 6f 6f 	unknown
     5c0:	6c 63 68 61 	call  b18da744 <LEON_REG+0x318da744>
     5c4:	69 6e 73 2f 	call  a5b9d280 <LEON_REG+0x25b9d280>
     5c8:	62 63 63 2f 	call  898d9284 <LEON_REG+0x98d9284>
     5cc:	67 63 63 2d 	call  9d8d9280 <LEON_REG+0x1d8d9280>
     5d0:	33 2e 34 2e 	sethi  %hi(0xb8d0b800), %i1
     5d4:	34 2f 6e 65 	unknown
     5d8:	77 6c 69 62 	call  ddb1ab60 <LEON_REG+0x5db1ab60>
     5dc:	2f 6c 69 62 	unknown
     5e0:	63 2f 69 6e 	call  8cbdab98 <LEON_REG+0xcbdab98>
     5e4:	63 6c 75 64 	call  8db1db74 <LEON_REG+0xdb1db74>
     5e8:	65 2f 73 79 	call  94bdd3cc <LEON_REG+0x14bdd3cc>
     5ec:	73 2f 5f 74 	call  ccbd83bc <LEON_REG+0x4cbd83bc>
     5f0:	79 70 65 73 	call  e5c19bbc <LEON_REG+0x65c19bbc>
     5f4:	2e 68 00 2f 	unknown
     5f8:	68 6f 6d 65 	call  a1bdbb8c <LEON_REG+0x21bdbb8c>
     5fc:	2f 6a 6f 6e 	unknown
     600:	61 73 2f 73 	call  85ccc3cc <LEON_REG+0x5ccc3cc>
     604:	72 63 2f 74 	call  c98cc3d4 <LEON_REG+0x498cc3d4>
     608:	6f 6f 6c 63 	call  bdbdb794 <LEON_REG+0x3dbdb794>
     60c:	68 61 69 6e 	call  a185abc4 <LEON_REG+0x2185abc4>
     610:	73 2f 62 63 	call  ccbd8f9c <LEON_REG+0x4cbd8f9c>
     614:	63 2f 67 63 	call  8cbda3a0 <LEON_REG+0xcbda3a0>
     618:	63 2d 33 2e 	call  8cb4d2d0 <LEON_REG+0xcb4d2d0>
     61c:	34 2e 34 2d 	unknown
     620:	67 63 63 2d 	call  9d8d92d4 <LEON_REG+0x1d8d92d4>
     624:	33 2e 34 2e 	sethi  %hi(0xb8d0b800), %i1
     628:	34 2d 62 75 	unknown
     62c:	69 6c 64 2f 	call  a5b196e8 <LEON_REG+0x25b196e8>
     630:	73 70 61 72 	call  cdc18bf8 <LEON_REG+0x4dc18bf8>
     634:	63 2d 65 6c 	call  8cb59be4 <LEON_REG+0xcb59be4>
     638:	66 2f 73 6f 	call  98bdd3f4 <LEON_REG+0x18bdd3f4>
     63c:	66 74 2f 6e 	call  99d0c3f4 <LEON_REG+0x19d0c3f4>
     640:	65 77 6c 69 	call  95ddb7e4 <LEON_REG+0x15ddb7e4>
     644:	62 2f 74 61 	call  88bdd7c8 <LEON_REG+0x8bdd7c8>
     648:	72 67 2d 69 	call  c99cbbec <LEON_REG+0x499cbbec>
     64c:	6e 63 6c 75 	call  b98db820 <LEON_REG+0x398db820>
     650:	64 65 2f 73 	call  9194c41c <LEON_REG+0x1194c41c>
     654:	79 73 2f 6c 	call  e5ccc404 <LEON_REG+0x65ccc404>
     658:	6f 63 6b 2e 	call  bd8db310 <LEON_REG+0x3d8db310>
     65c:	68 00 2f 68 	call  a000c3fc <LEON_REG+0x2000c3fc>
     660:	6f 6d 65 2f 	call  bdb59b1c <LEON_REG+0x3db59b1c>
     664:	6a 6f 6e 61 	call  a9bdbfe8 <LEON_REG+0x29bdbfe8>
     668:	73 2f 73 72 	call  ccbdd430 <LEON_REG+0x4cbdd430>
     66c:	63 2f 74 6f 	call  8cbdd828 <LEON_REG+0xcbdd828>
     670:	6f 6c 63 68 	call  bdb19410 <LEON_REG+0x3db19410>
     674:	61 69 6e 73 	call  85a5c040 <LEON_REG+0x5a5c040>
     678:	2f 62 63 63 	unknown
     67c:	2f 67 63 63 	unknown
     680:	2d 33 2e 34 	sethi  %hi(0xccb8d000), %l6
     684:	2e 34 2d 67 	unknown
     688:	63 63 2d 33 	call  8d8cbb54 <LEON_REG+0xd8cbb54>
     68c:	2e 34 2e 34 	unknown
     690:	2d 62 75 69 	unknown
     694:	6c 64 2f 73 	call  b190c460 <LEON_REG+0x3190c460>
     698:	70 61 72 63 	call  c185d024 <LEON_REG+0x4185d024>
     69c:	2d 65 6c 66 	unknown
     6a0:	2f 73 6f 66 	unknown
     6a4:	74 2f 6e 65 	call  d0bdc038 <LEON_REG+0x50bdc038>
     6a8:	77 6c 69 62 	call  ddb1ac30 <LEON_REG+0x5db1ac30>
     6ac:	2f 74 61 72 	unknown
     6b0:	67 2d 69 6e 	call  9cb5ac68 <LEON_REG+0x1cb5ac68>
     6b4:	63 6c 75 64 	call  8db1dc44 <LEON_REG+0xdb1dc44>
     6b8:	65 2f 73 79 	call  94bdd49c <LEON_REG+0x14bdd49c>
     6bc:	73 2f 66 73 	call  ccbda088 <LEON_REG+0x4cbda088>
     6c0:	75 5f 70 74 	call  d57dc890 <LEON_REG+0x557dc890>
     6c4:	68 72 65 61 	call  a1c99c48 <LEON_REG+0x21c99c48>
     6c8:	64 5f 6d 75 	call  917dbc9c <LEON_REG+0x117dbc9c>
     6cc:	74 65 78 2e 	call  d195e784 <LEON_REG+0x5195e784>
     6d0:	68 00 70 74 	call  a001c8a0 <LEON_REG+0x2001c8a0>
     6d4:	68 72 65 61 	call  a1c99c58 <LEON_REG+0x21c99c58>
     6d8:	64 5f 70 72 	call  917dc8a0 <LEON_REG+0x117dc8a0>
     6dc:	6f 74 6f 63 	call  bdd1c468 <LEON_REG+0x3dd1c468>
     6e0:	6f 6c 5f 74 	call  bdb184b0 <LEON_REG+0x3db184b0>
     6e4:	3a 74 28 36 	unknown
     6e8:	2c 31 29 3d 	unknown
     6ec:	28 30 2c 31 	unknown
     6f0:	29 00 70 74 	sethi  %hi(0x1c1d000), %l4
     6f4:	68 72 65 61 	call  a1c99c78 <LEON_REG+0x21c99c78>
     6f8:	64 5f 71 75 	call  917dcccc <LEON_REG+0x117dcccc>
     6fc:	65 75 65 3a 	call  95d59be4 <LEON_REG+0x15d59be4>
     700:	54 28 36 2c 	call  50a0dfb0 <__end+0x1050a078>
     704:	32 29 3d 73 	unknown
     708:	31 32 74 71 	sethi  %hi(0xc9d1c400), %i0
     70c:	68 5f 66 69 	call  a17da0b0 <LEON_REG+0x217da0b0>
     710:	72 73 74 3a 	call  c9cdd7f8 <LEON_REG+0x49cdd7f8>
     714:	28 36 2c 33 	unknown
     718:	29 3d 2a 28 	sethi  %hi(0xf4a8a000), %l4
     71c:	36 2c 34 29 	unknown
     720:	3d 78 73 70 	unknown
     724:	74 68 72 65 	call  d1a1d0b8 <LEON_REG+0x51a1d0b8>
     728:	61 64 3a 2c 	call  8590efd8 <LEON_REG+0x590efd8>
     72c:	30 2c 33 32 	unknown
     730:	3b 74 71 68 	unknown
     734:	5f 6c 61 73 	call  7db18d00 <__end+0x3d614dc8>
     738:	74 3a 28 36 	call  d0e8a810 <LEON_REG+0x50e8a810>
     73c:	2c 35 29 3d 	unknown
     740:	2a 28 36 2c 	unknown
     744:	33 29 2c 33 	sethi  %hi(0xa4b0cc00), %i1
     748:	32 2c 33 32 	unknown
     74c:	3b 74 71 68 	unknown
     750:	5f 6e 61 6d 	call  7db98d04 <__end+0x3d694dcc>
     754:	65 3a 28 36 	call  94e8a82c <LEON_REG+0x14e8a82c>
     758:	2c 36 29 3d 	unknown
     75c:	2a 28 30 2c 	unknown
     760:	32 29 2c 36 	unknown
     764:	34 2c 33 32 	unknown
     768:	3b 3b 00 70 	sethi  %hi(0xec01c000), %i5
     76c:	74 68 72 65 	call  d1a1d100 <LEON_REG+0x51a1d100>
     770:	61 64 5f 71 	call  85918534 <LEON_REG+0x5918534>
     774:	75 65 75 65 	call  d595dd08 <LEON_REG+0x5595dd08>
     778:	5f 74 3a 74 	call  7dd0f148 <__end+0x3d80b210>
     77c:	28 36 2c 37 	unknown
     780:	29 3d 28 36 	sethi  %hi(0xf4a0d800), %l4
     784:	2c 38 29 3d 	unknown
     788:	2a 28 36 2c 	unknown
     78c:	32 29 00 70 	unknown
     790:	74 68 72 65 	call  d1a1d124 <LEON_REG+0x51a1d124>
     794:	61 64 5f 6d 	call  85918548 <LEON_REG+0x5918548>
     798:	75 74 65 78 	call  d5d19d78 <LEON_REG+0x55d19d78>
     79c:	3a 54 28 36 	unknown
     7a0:	2c 39 29 3d 	unknown
     7a4:	73 31 31 36 	call  ccc4cc7c <LEON_REG+0x4cc4cc7c>
     7a8:	71 75 65 75 	call  c5d59d7c <LEON_REG+0x45d59d7c>
     7ac:	65 3a 28 36 	call  94e8a884 <LEON_REG+0x14e8a884>
     7b0:	2c 32 29 2c 	unknown
     7b4:	30 2c 39 36 	unknown
     7b8:	3b 6c 6f 63 	unknown
     7bc:	6b 3a 28 30 	call  ace8a87c <LEON_REG+0x2ce8a87c>
     7c0:	2c 32 29 2c 	unknown
     7c4:	39 36 2c 38 	sethi  %hi(0xd8b0e000), %i4
     7c8:	3b 6f 77 6e 	unknown
     7cc:	65 72 3a 28 	call  95c8f06c <LEON_REG+0x15c8f06c>
     7d0:	36 2c 33 29 	unknown
     7d4:	2c 31 32 38 	unknown
     7d8:	2c 33 32 3b 	unknown
     7dc:	66 6c 61 67 	call  99b18d78 <LEON_REG+0x19b18d78>
     7e0:	73 3a 28 30 	call  cce8a8a0 <LEON_REG+0x4ce8a8a0>
     7e4:	2c 31 29 2c 	unknown
     7e8:	31 36 30 2c 	sethi  %hi(0xd8c0b000), %i0
     7ec:	33 32 3b 63 	sethi  %hi(0xc8ed8c00), %i1
     7f0:	6f 75 6e 74 	call  bdd5c1c0 <LEON_REG+0x3dd5c1c0>
     7f4:	3a 28 30 2c 	unknown
     7f8:	31 29 2c 31 	sethi  %hi(0xa4b0c400), %i0
     7fc:	39 32 2c 33 	sethi  %hi(0xc8b0cc00), %i4
     800:	32 3b 70 72 	unknown
     804:	69 6f 63 65 	call  a5bd9598 <LEON_REG+0x25bd9598>
     808:	69 6c 69 6e 	call  a5b1adc0 <LEON_REG+0x25b1adc0>
     80c:	67 3a 28 30 	call  9ce8a8cc <LEON_REG+0x1ce8a8cc>
     810:	2c 31 29 2c 	unknown
     814:	32 32 34 2c 	unknown
     818:	33 32 3b 70 	sethi  %hi(0xc8edc000), %i1
     81c:	72 6f 74 6f 	call  c9bdd9d8 <LEON_REG+0x49bdd9d8>
     820:	63 6f 6c 3a 	call  8dbdb908 <LEON_REG+0xdbdb908>
     824:	28 36 2c 31 	unknown
     828:	29 2c 32 35 	sethi  %hi(0xb0c8d400), %l4
     82c:	36 2c 33 32 	unknown
     830:	3b 70 72 65 	unknown
     834:	76 5f 6d 61 	call  d97dbdb8 <LEON_REG+0x597dbdb8>
     838:	78 5f 63 65 	call  e17d95cc <LEON_REG+0x617d95cc>
     83c:	69 6c 69 6e 	call  a5b1adf4 <LEON_REG+0x25b1adf4>
     840:	67 5f 70 72 	call  9d7dca08 <LEON_REG+0x1d7dca08>
     844:	69 6f 3a 28 	call  a5bcf0e4 <LEON_REG+0x25bcf0e4>
     848:	30 2c 31 29 	unknown
     84c:	2c 32 38 38 	unknown
     850:	2c 33 32 3b 	unknown
     854:	64 62 67 6c 	call  9189a604 <LEON_REG+0x1189a604>
     858:	69 73 74 3a 	call  a5cdd940 <LEON_REG+0x25cdd940>
     85c:	28 36 2c 31 	unknown
     860:	30 29 3d 73 	unknown
     864:	38 74 71 65 	unknown
     868:	5f 6e 65 78 	call  7db99e48 <__end+0x3d695f10>
     86c:	74 3a 28 36 	call  d0e8a944 <LEON_REG+0x50e8a944>
     870:	2c 31 31 29 	unknown
     874:	3d 2a 28 36 	sethi  %hi(0xa8a0d800), %fp
     878:	2c 39 29 2c 	unknown
     87c:	30 2c 33 32 	unknown
     880:	3b 74 71 65 	unknown
     884:	5f 70 72 65 	call  7dc1d218 <__end+0x3d7192e0>
     888:	76 3a 28 36 	call  d8e8a960 <LEON_REG+0x58e8a960>
     88c:	2c 31 32 29 	unknown
     890:	3d 2a 28 36 	sethi  %hi(0xa8a0d800), %fp
     894:	2c 31 31 29 	unknown
     898:	2c 33 32 2c 	unknown
     89c:	33 32 3b 3b 	sethi  %hi(0xc8ecec00), %i1
     8a0:	2c 33 32 30 	unknown
     8a4:	2c 36 34 3b 	unknown
     8a8:	64 62 67 6e 	call  9189a660 <LEON_REG+0x1189a660>
     8ac:	61 6d 65 3a 	call  85b59d94 <LEON_REG+0x5b59d94>
     8b0:	28 36 2c 36 	unknown
     8b4:	29 2c 33 38 	sethi  %hi(0xb0cce000), %l4
     8b8:	34 2c 33 32 	unknown
     8bc:	3b 5f 66 69 	unknown
     8c0:	74 6f 74 68 	call  d1bdda60 <LEON_REG+0x51bdda60>
     8c4:	65 72 73 3a 	call  95c9d5ac <LEON_REG+0x15c9d5ac>
     8c8:	28 36 2c 31 	unknown
     8cc:	33 29 3d 61 	sethi  %hi(0xa4f58400), %i1
     8d0:	72 28 36 2c 	call  c8a0e180 <LEON_REG+0x48a0e180>
     8d4:	31 34 29 3d 	sethi  %hi(0xd0a4f400), %i0
     8d8:	72 28 36 2c 	call  c8a0e188 <LEON_REG+0x48a0e188>
     8dc:	31 34 29 3b 	sethi  %hi(0xd0a4ec00), %i0
     8e0:	30 30 30 30 	unknown
     8e4:	30 30 30 30 	unknown
     8e8:	30 30 30 30 	unknown
     8ec:	30 3b 30 30 	unknown
     8f0:	33 37 37 37 	sethi  %hi(0xdcdcdc00), %i1
     8f4:	37 37 37 37 	sethi  %hi(0xdcdcdc00), %i3
     8f8:	37 37 37 3b 	sethi  %hi(0xdcdcec00), %i3
     8fc:	3b 30 3b 31 	sethi  %hi(0xc0ecc400), %i5
     900:	35 3b 28 30 	sethi  %hi(0xeca0c000), %i2
     904:	2c 31 29 2c 	unknown
     908:	34 31 36 2c 	unknown
     90c:	35 31 32 3b 	sethi  %hi(0xc4c8ec00), %i2
     910:	3b 00 70 74 	sethi  %hi(0x1c1d000), %i5
     914:	68 72 65 61 	call  a1c99e98 <LEON_REG+0x21c99e98>
     918:	64 5f 6d 75 	call  917dbeec <LEON_REG+0x117dbeec>
     91c:	74 65 78 5f 	call  d195ea98 <LEON_REG+0x5195ea98>
     920:	74 3a 74 28 	call  d0e9d9c0 <LEON_REG+0x50e9d9c0>
     924:	36 2c 31 35 	unknown
     928:	29 3d 28 36 	sethi  %hi(0xf4a0d800), %l4
     92c:	2c 39 29 00 	unknown
     930:	70 74 68 72 	call  c1d1aaf8 <LEON_REG+0x41d1aaf8>
     934:	65 61 64 5f 	call  95859ab0 <LEON_REG+0x15859ab0>
     938:	6d 75 74 65 	call  b5d5dacc <LEON_REG+0x35d5dacc>
     93c:	78 61 74 74 	call  e185db0c <LEON_REG+0x6185db0c>
     940:	72 5f 74 3a 	call  c97dda28 <LEON_REG+0x497dda28>
     944:	74 28 36 2c 	call  d0a0e1f4 <LEON_REG+0x50a0e1f4>
     948:	31 36 29 3d 	sethi  %hi(0xd8a4f400), %i0
     94c:	28 36 2c 31 	unknown
     950:	37 29 3d 73 	sethi  %hi(0xa4f5cc00), %i3
     954:	31 32 66 6c 	sethi  %hi(0xc999b000), %i0
     958:	61 67 73 3a 	call  859dd640 <LEON_REG+0x59dd640>
     95c:	28 30 2c 31 	unknown
     960:	29 2c 30 2c 	sethi  %hi(0xb0c0b000), %l4
     964:	33 32 3b 70 	sethi  %hi(0xc8edc000), %i1
     968:	72 69 6f 63 	call  c9a5c6f4 <LEON_REG+0x49a5c6f4>
     96c:	65 69 6c 69 	call  95a5bb10 <LEON_REG+0x15a5bb10>
     970:	6e 67 3a 28 	call  b99cf210 <LEON_REG+0x399cf210>
     974:	30 2c 31 29 	unknown
     978:	2c 33 32 2c 	unknown
     97c:	33 32 3b 70 	sethi  %hi(0xc8edc000), %i1
     980:	72 6f 74 6f 	call  c9bddb3c <LEON_REG+0x49bddb3c>
     984:	63 6f 6c 3a 	call  8dbdba6c <LEON_REG+0xdbdba6c>
     988:	28 36 2c 31 	unknown
     98c:	29 2c 36 34 	sethi  %hi(0xb0d8d000), %l4
     990:	2c 33 32 3b 	unknown
     994:	3b 00 5f 5f 	sethi  %hi(0x17d7c00), %i5
     998:	6c 69 62 63 	call  b1a59324 <LEON_REG+0x31a59324>
     99c:	5f 6c 6f 63 	call  7db1c728 <__end+0x3d6187f0>
     9a0:	6b 5f 74 3a 	call  ad7dda88 <LEON_REG+0x2d7dda88>
     9a4:	74 28 35 2c 	call  d0a0de54 <LEON_REG+0x50a0de54>
     9a8:	31 29 3d 28 	sethi  %hi(0xa4f4a000), %i0
     9ac:	36 2c 31 35 	unknown
     9b0:	29 00 5f 5f 	sethi  %hi(0x17d7c00), %l4
     9b4:	6c 69 62 63 	call  b1a59340 <LEON_REG+0x31a59340>
     9b8:	5f 6c 6f 63 	call  7db1c744 <__end+0x3d61880c>
     9bc:	6b 5f 72 65 	call  ad7dd350 <LEON_REG+0x2d7dd350>
     9c0:	63 75 72 73 	call  8dd5d38c <LEON_REG+0xdd5d38c>
     9c4:	69 76 65 5f 	call  a5d99f40 <LEON_REG+0x25d99f40>
     9c8:	74 3a 74 28 	call  d0e9da68 <LEON_REG+0x50e9da68>
     9cc:	35 2c 32 29 	sethi  %hi(0xb0c8a400), %i2
     9d0:	3d 28 36 2c 	sethi  %hi(0xa0d8b000), %fp
     9d4:	31 35 29 00 	sethi  %hi(0xd4a40000), %i0
     9d8:	5f 4c 4f 43 	call  7d3146e4 <__end+0x3ce107ac>
     9dc:	4b 5f 54 3a 	call  2d7d5ac4 <_trap_table-0x12d2a53c>
     9e0:	74 28 35 2c 	call  d0a0de90 <LEON_REG+0x50a0de90>
     9e4:	33 29 3d 28 	sethi  %hi(0xa4f4a000), %i1
     9e8:	35 2c 31 29 	sethi  %hi(0xb0c4a400), %i2
     9ec:	00 5f 4c 4f 	unknown
     9f0:	43 4b 5f 52 	call  d2d8738 <_trap_table-0x332278c8>
     9f4:	45 43 55 52 	call  150d5f3c <_trap_table-0x2b42a0c4>
     9f8:	53 49 56 45 	call  4d25630c <__end+0xcd523d4>
     9fc:	5f 54 3a 74 	call  7d50f3cc <__end+0x3d00b494>
     a00:	28 35 2c 34 	unknown
     a04:	29 3d 28 35 	sethi  %hi(0xf4a0d400), %l4
     a08:	2c 32 29 00 	unknown
     a0c:	5f 6f 66 66 	call  7dbda3a4 <__end+0x3d6d646c>
     a10:	5f 74 3a 74 	call  7dd0f3e0 <__end+0x3d80b4a8>
     a14:	28 34 2c 31 	unknown
     a18:	29 3d 28 30 	sethi  %hi(0xf4a0c000), %l4
     a1c:	2c 33 29 00 	unknown
     a20:	5f 6f 66 66 	call  7dbda3b8 <__end+0x3d6d6480>
     a24:	36 34 5f 74 	unknown
     a28:	3a 74 28 34 	unknown
     a2c:	2c 32 29 3d 	unknown
     a30:	28 30 2c 36 	unknown
     a34:	29 00 5f 73 	sethi  %hi(0x17dcc00), %l4
     a38:	73 69 7a 65 	call  cda5f3cc <LEON_REG+0x4da5f3cc>
     a3c:	5f 74 3a 74 	call  7dd0f40c <__end+0x3d80b4d4>
     a40:	28 34 2c 33 	unknown
     a44:	29 3d 28 30 	sethi  %hi(0xf4a0c000), %l4
     a48:	2c 31 29 00 	unknown
     a4c:	77 69 6e 74 	call  dda5c41c <LEON_REG+0x5da5c41c>
     a50:	5f 74 3a 74 	call  7dd0f420 <__end+0x3d80b4e8>
     a54:	28 37 2c 31 	unknown
     a58:	29 3d 28 30 	sethi  %hi(0xf4a0c000), %l4
     a5c:	2c 33 29 00 	unknown
     a60:	5f 6d 62 73 	call  7db5942c <__end+0x3d6554f4>
     a64:	74 61 74 65 	call  d185dbf8 <LEON_REG+0x5185dbf8>
     a68:	5f 74 3a 74 	call  7dd0f438 <__end+0x3d80b500>
     a6c:	28 34 2c 34 	unknown
     a70:	29 3d 28 34 	sethi  %hi(0xf4a0d000), %l4
     a74:	2c 35 29 3d 	unknown
     a78:	73 38 5f 5f 	call  cce187f4 <LEON_REG+0x4ce187f4>
     a7c:	63 6f 75 6e 	call  8dbde034 <LEON_REG+0xdbde034>
     a80:	74 3a 28 30 	call  d0e8ab40 <LEON_REG+0x50e8ab40>
     a84:	2c 31 29 2c 	unknown
     a88:	30 2c 33 32 	unknown
     a8c:	3b 5f 5f 76 	unknown
     a90:	61 6c 75 65 	call  85b1e024 <LEON_REG+0x5b1e024>
     a94:	3a 28 34 2c 	unknown
     a98:	36 29 3d 75 	unknown
     a9c:	34 5f 5f 77 	unknown
     aa0:	63 68 3a 28 	call  8da0f340 <LEON_REG+0xda0f340>
     aa4:	37 2c 31 29 	sethi  %hi(0xb0c4a400), %i3
     aa8:	2c 30 2c 33 	unknown
     aac:	32 3b 5f 5f 	unknown
     ab0:	77 63 68 62 	call  dd8dac38 <LEON_REG+0x5d8dac38>
     ab4:	3a 28 34 2c 	unknown
     ab8:	37 29 3d 61 	sethi  %hi(0xa4f58400), %i3
     abc:	72 28 36 2c 	call  c8a0e36c <LEON_REG+0x48a0e36c>
     ac0:	31 34 29 3b 	sethi  %hi(0xd0a4ec00), %i0
     ac4:	30 3b 33 3b 	unknown
     ac8:	28 30 2c 31 	unknown
     acc:	31 29 2c 30 	sethi  %hi(0xa4b0c000), %i0
     ad0:	2c 33 32 3b 	unknown
     ad4:	3b 2c 33 32 	sethi  %hi(0xb0ccc800), %i5
     ad8:	2c 33 32 3b 	unknown
     adc:	3b 00 5f 66 	sethi  %hi(0x17d9800), %i5
     ae0:	6c 6f 63 6b 	call  b1bd988c <LEON_REG+0x31bd988c>
     ae4:	5f 74 3a 74 	call  7dd0f4b4 <__end+0x3d80b57c>
     ae8:	28 34 2c 38 	unknown
     aec:	29 3d 28 35 	sethi  %hi(0xf4a0d400), %l4
     af0:	2c 34 29 00 	unknown
     af4:	5f 69 63 6f 	call  7da598b0 <__end+0x3d555978>
     af8:	6e 76 5f 74 	call  b9d988c8 <LEON_REG+0x39d988c8>
     afc:	3a 74 28 34 	unknown
     b00:	2c 39 29 3d 	unknown
     b04:	28 34 2c 31 	unknown
     b08:	30 29 3d 2a 	unknown
     b0c:	28 30 2c 31 	unknown
     b10:	39 29 00 5f 	sethi  %hi(0xa4017c00), %i4
     b14:	5f 55 4c 6f 	call  7d553cd0 <__end+0x3d04fd98>
     b18:	6e 67 3a 74 	call  b99cf4e8 <LEON_REG+0x399cf4e8>
     b1c:	28 33 2c 31 	unknown
     b20:	29 3d 28 30 	sethi  %hi(0xf4a0c000), %l4
     b24:	2c 35 29 00 	unknown
     b28:	5f 42 69 67 	call  7d09b0c4 <__end+0x3cb9718c>
     b2c:	69 6e 74 3a 	call  a5b9dc14 <LEON_REG+0x25b9dc14>
     b30:	54 28 33 2c 	call  50a0d7e0 <__end+0x105098a8>
     b34:	32 29 3d 73 	unknown
     b38:	32 34 5f 6e 	unknown
     b3c:	65 78 74 3a 	call  95e1dc24 <LEON_REG+0x15e1dc24>
     b40:	28 33 2c 33 	unknown
     b44:	29 3d 2a 28 	sethi  %hi(0xf4a8a000), %l4
     b48:	33 2c 32 29 	sethi  %hi(0xb0c8a400), %i1
     b4c:	2c 30 2c 33 	unknown
     b50:	32 3b 5f 6b 	unknown
     b54:	3a 28 30 2c 	unknown
     b58:	31 29 2c 33 	sethi  %hi(0xa4b0cc00), %i0
     b5c:	32 2c 33 32 	unknown
     b60:	3b 5f 6d 61 	unknown
     b64:	78 77 64 73 	call  e1dd9d30 <LEON_REG+0x61dd9d30>
     b68:	3a 28 30 2c 	unknown
     b6c:	31 29 2c 36 	sethi  %hi(0xa4b0d800), %i0
     b70:	34 2c 33 32 	unknown
     b74:	3b 5f 73 69 	unknown
     b78:	67 6e 3a 28 	call  9db8f418 <LEON_REG+0x1db8f418>
     b7c:	30 2c 31 29 	unknown
     b80:	2c 39 36 2c 	unknown
     b84:	33 32 3b 5f 	sethi  %hi(0xc8ed7c00), %i1
     b88:	77 64 73 3a 	call  dd91d870 <LEON_REG+0x5d91d870>
     b8c:	28 30 2c 31 	unknown
     b90:	29 2c 31 32 	sethi  %hi(0xb0c4c800), %l4
     b94:	38 2c 33 32 	unknown
     b98:	3b 5f 78 3a 	unknown
     b9c:	28 33 2c 34 	unknown
     ba0:	29 3d 61 72 	sethi  %hi(0xf585c800), %l4
     ba4:	28 36 2c 31 	unknown
     ba8:	34 29 3b 30 	unknown
     bac:	3b 30 3b 28 	sethi  %hi(0xc0eca000), %i5
     bb0:	33 2c 31 29 	sethi  %hi(0xb0c4a400), %i1
     bb4:	2c 31 36 30 	unknown
     bb8:	2c 33 32 3b 	unknown
     bbc:	3b 00 5f 5f 	sethi  %hi(0x17d7c00), %i5
     bc0:	74 6d 3a 54 	call  d1b4f510 <LEON_REG+0x51b4f510>
     bc4:	28 33 2c 35 	unknown
     bc8:	29 3d 73 33 	sethi  %hi(0xf5cccc00), %l4
     bcc:	36 5f 5f 74 	unknown
     bd0:	6d 5f 73 65 	call  b57dd964 <LEON_REG+0x357dd964>
     bd4:	63 3a 28 30 	call  8ce8ac94 <LEON_REG+0xce8ac94>
     bd8:	2c 31 29 2c 	unknown
     bdc:	30 2c 33 32 	unknown
     be0:	3b 5f 5f 74 	unknown
     be4:	6d 5f 6d 69 	call  b57dc188 <LEON_REG+0x357dc188>
     be8:	6e 3a 28 30 	call  b8e8aca8 <LEON_REG+0x38e8aca8>
     bec:	2c 31 29 2c 	unknown
     bf0:	33 32 2c 33 	sethi  %hi(0xc8b0cc00), %i1
     bf4:	32 3b 5f 5f 	unknown
     bf8:	74 6d 5f 68 	call  d1b58998 <LEON_REG+0x51b58998>
     bfc:	6f 75 72 3a 	call  bdd5d4e4 <LEON_REG+0x3dd5d4e4>
     c00:	28 30 2c 31 	unknown
     c04:	29 2c 36 34 	sethi  %hi(0xb0d8d000), %l4
     c08:	2c 33 32 3b 	unknown
     c0c:	5f 5f 74 6d 	call  7d7dddc0 <__end+0x3d2d9e88>
     c10:	5f 6d 64 61 	call  7db59d94 <__end+0x3d655e5c>
     c14:	79 3a 28 30 	call  e4e8acd4 <LEON_REG+0x64e8acd4>
     c18:	2c 31 29 2c 	unknown
     c1c:	39 36 2c 33 	sethi  %hi(0xd8b0cc00), %i4
     c20:	32 3b 5f 5f 	unknown
     c24:	74 6d 5f 6d 	call  d1b589d8 <LEON_REG+0x51b589d8>
     c28:	6f 6e 3a 28 	call  bdb8f4c8 <LEON_REG+0x3db8f4c8>
     c2c:	30 2c 31 29 	unknown
     c30:	2c 31 32 38 	unknown
     c34:	2c 33 32 3b 	unknown
     c38:	5f 5f 74 6d 	call  7d7dddec <__end+0x3d2d9eb4>
     c3c:	5f 79 65 61 	call  7de5a1c0 <__end+0x3d956288>
     c40:	72 3a 28 30 	call  c8e8ad00 <LEON_REG+0x48e8ad00>
     c44:	2c 31 29 2c 	unknown
     c48:	31 36 30 2c 	sethi  %hi(0xd8c0b000), %i0
     c4c:	33 32 3b 5f 	sethi  %hi(0xc8ed7c00), %i1
     c50:	5f 74 6d 5f 	call  7dd1c1cc <__end+0x3d818294>
     c54:	77 64 61 79 	call  dd919238 <LEON_REG+0x5d919238>
     c58:	3a 28 30 2c 	unknown
     c5c:	31 29 2c 31 	sethi  %hi(0xa4b0c400), %i0
     c60:	39 32 2c 33 	sethi  %hi(0xc8b0cc00), %i4
     c64:	32 3b 5f 5f 	unknown
     c68:	74 6d 5f 79 	call  d1b58a4c <LEON_REG+0x51b58a4c>
     c6c:	64 61 79 3a 	call  9185f154 <LEON_REG+0x1185f154>
     c70:	28 30 2c 31 	unknown
     c74:	29 2c 32 32 	sethi  %hi(0xb0c8c800), %l4
     c78:	34 2c 33 32 	unknown
     c7c:	3b 5f 5f 74 	unknown
     c80:	6d 5f 69 73 	call  b57db24c <LEON_REG+0x357db24c>
     c84:	64 73 74 3a 	call  91cddd6c <LEON_REG+0x11cddd6c>
     c88:	28 30 2c 31 	unknown
     c8c:	29 2c 32 35 	sethi  %hi(0xb0c8d400), %l4
     c90:	36 2c 33 32 	unknown
     c94:	3b 3b 00 5f 	sethi  %hi(0xec017c00), %i5
     c98:	6f 6e 5f 65 	call  bdb98a2c <LEON_REG+0x3db98a2c>
     c9c:	78 69 74 5f 	call  e1a5de18 <LEON_REG+0x61a5de18>
     ca0:	61 72 67 73 	call  85c9aa6c <LEON_REG+0x5c9aa6c>
     ca4:	3a 54 28 33 	unknown
     ca8:	2c 36 29 3d 	unknown
     cac:	73 32 36 34 	call  ccc8e57c <LEON_REG+0x4cc8e57c>
     cb0:	5f 66 6e 61 	call  7d99c634 <__end+0x3d4986fc>
     cb4:	72 67 73 3a 	call  c99dd99c <LEON_REG+0x499dd99c>
     cb8:	28 33 2c 37 	unknown
     cbc:	29 3d 61 72 	sethi  %hi(0xf585c800), %l4
     cc0:	28 36 2c 31 	unknown
     cc4:	34 29 3b 30 	unknown
     cc8:	3b 33 31 3b 	sethi  %hi(0xccc4ec00), %i5
     ccc:	28 34 2c 31 	unknown
     cd0:	30 29 2c 30 	unknown
     cd4:	2c 31 30 32 	unknown
     cd8:	34 3b 5f 64 	unknown
     cdc:	73 6f 5f 68 	call  cdbd8a7c <LEON_REG+0x4dbd8a7c>
     ce0:	61 6e 64 6c 	call  85b99e90 <LEON_REG+0x5b99e90>
     ce4:	65 3a 28 33 	call  94e8adb0 <LEON_REG+0x14e8adb0>
     ce8:	2c 37 29 2c 	unknown
     cec:	31 30 32 34 	sethi  %hi(0xc0c8d000), %i0
     cf0:	2c 31 30 32 	unknown
     cf4:	34 3b 5f 66 	unknown
     cf8:	6e 74 79 70 	call  b9d1f2b8 <LEON_REG+0x39d1f2b8>
     cfc:	65 73 3a 28 	call  95ccf59c <LEON_REG+0x15ccf59c>
     d00:	33 2c 31 29 	sethi  %hi(0xb0c4a400), %i1
     d04:	2c 32 30 34 	unknown
     d08:	38 2c 33 32 	unknown
     d0c:	3b 5f 69 73 	unknown
     d10:	5f 63 78 61 	call  7d8dee94 <__end+0x3d3daf5c>
     d14:	3a 28 33 2c 	unknown
     d18:	31 29 2c 32 	sethi  %hi(0xa4b0c800), %i0
     d1c:	30 38 30 2c 	unknown
     d20:	33 32 3b 3b 	sethi  %hi(0xc8ecec00), %i1
     d24:	00 5f 61 74 	unknown
     d28:	65 78 69 74 	call  95e1b2f8 <LEON_REG+0x15e1b2f8>
     d2c:	3a 54 28 33 	unknown
     d30:	2c 38 29 3d 	unknown
     d34:	73 34 30 30 	call  ccd0cdf4 <LEON_REG+0x4cd0cdf4>
     d38:	5f 6e 65 78 	call  7db9a318 <__end+0x3d6963e0>
     d3c:	74 3a 28 33 	call  d0e8ae08 <LEON_REG+0x50e8ae08>
     d40:	2c 39 29 3d 	unknown
     d44:	2a 28 33 2c 	unknown
     d48:	38 29 2c 30 	unknown
     d4c:	2c 33 32 3b 	unknown
     d50:	5f 69 6e 64 	call  7da5c6e0 <__end+0x3d5587a8>
     d54:	3a 28 30 2c 	unknown
     d58:	31 29 2c 33 	sethi  %hi(0xa4b0cc00), %i0
     d5c:	32 2c 33 32 	unknown
     d60:	3b 5f 66 6e 	unknown
     d64:	73 3a 28 33 	call  cce8ae30 <LEON_REG+0x4ce8ae30>
     d68:	2c 31 30 29 	unknown
     d6c:	3d 61 72 28 	unknown
     d70:	36 2c 31 34 	unknown
     d74:	29 3b 30 3b 	sethi  %hi(0xecc0ec00), %l4
     d78:	33 31 3b 28 	sethi  %hi(0xc4eca000), %i1
     d7c:	33 2c 31 31 	sethi  %hi(0xb0c4c400), %i1
     d80:	29 3d 2a 28 	sethi  %hi(0xf4a8a000), %l4
     d84:	33 2c 31 32 	sethi  %hi(0xb0c4c800), %i1
     d88:	29 3d 66 28 	sethi  %hi(0xf598a000), %l4
     d8c:	30 2c 31 39 	unknown
     d90:	29 2c 36 34 	sethi  %hi(0xb0d8d000), %l4
     d94:	2c 31 30 32 	unknown
     d98:	34 3b 5f 6f 	unknown
     d9c:	6e 5f 65 78 	call  b97da37c <LEON_REG+0x397da37c>
     da0:	69 74 5f 61 	call  a5d18b24 <LEON_REG+0x25d18b24>
     da4:	72 67 73 3a 	call  c99dda8c <LEON_REG+0x499dda8c>
     da8:	28 33 2c 36 	unknown
     dac:	29 2c 31 30 	sethi  %hi(0xb0c4c000), %l4
     db0:	38 38 2c 32 	unknown
     db4:	31 31 32 3b 	sethi  %hi(0xc4c8ec00), %i0
     db8:	3b 00 5f 5f 	sethi  %hi(0x17d7c00), %i5
     dbc:	73 62 75 66 	call  cd89e354 <LEON_REG+0x4d89e354>
     dc0:	3a 54 28 33 	unknown
     dc4:	2c 31 33 29 	unknown
     dc8:	3d 73 38 5f 	unknown
     dcc:	62 61 73 65 	call  8985db60 <LEON_REG+0x985db60>
     dd0:	3a 28 33 2c 	unknown
     dd4:	31 34 29 3d 	sethi  %hi(0xd0a4f400), %i0
     dd8:	2a 28 30 2c 	unknown
     ddc:	31 31 29 2c 	sethi  %hi(0xc4a4b000), %i0
     de0:	30 2c 33 32 	unknown
     de4:	3b 5f 73 69 	unknown
     de8:	7a 65 3a 28 	call  e994f688 <LEON_REG+0x6994f688>
     dec:	30 2c 31 29 	unknown
     df0:	2c 33 32 2c 	unknown
     df4:	33 32 3b 3b 	sethi  %hi(0xc8ecec00), %i1
     df8:	00 5f 66 70 	unknown
     dfc:	6f 73 5f 74 	call  bdcd8bcc <LEON_REG+0x3dcd8bcc>
     e00:	3a 74 28 33 	unknown
     e04:	2c 31 35 29 	unknown
     e08:	3d 28 30 2c 	sethi  %hi(0xa0c0b000), %fp
     e0c:	33 29 00 5f 	sethi  %hi(0xa4017c00), %i1
     e10:	5f 73 46 49 	call  7dcd2734 <__end+0x3d7ce7fc>
     e14:	4c 45 3a 54 	call  3114f764 <_trap_table-0xf3b089c>
     e18:	28 33 2c 31 	unknown
     e1c:	36 29 3d 73 	unknown
     e20:	32 30 34 5f 	unknown
     e24:	70 3a 28 33 	call  c0e8aef0 <LEON_REG+0x40e8aef0>
     e28:	2c 31 34 29 	unknown
     e2c:	2c 30 2c 33 	unknown
     e30:	32 3b 5f 72 	unknown
     e34:	3a 28 30 2c 	unknown
     e38:	31 29 2c 33 	sethi  %hi(0xa4b0cc00), %i0
     e3c:	32 2c 33 32 	unknown
     e40:	3b 5f 77 3a 	unknown
     e44:	28 30 2c 31 	unknown
     e48:	29 2c 36 34 	sethi  %hi(0xb0d8d000), %l4
     e4c:	2c 33 32 3b 	unknown
     e50:	5f 66 6c 61 	call  7d99bfd4 <__end+0x3d49809c>
     e54:	67 73 3a 28 	call  9dccf6f4 <LEON_REG+0x1dccf6f4>
     e58:	30 2c 38 29 	unknown
     e5c:	2c 39 36 2c 	unknown
     e60:	31 36 3b 5f 	sethi  %hi(0xd8ed7c00), %i0
     e64:	66 69 6c 65 	call  99a5bff8 <LEON_REG+0x19a5bff8>
     e68:	3a 28 30 2c 	unknown
     e6c:	38 29 2c 31 	unknown
     e70:	31 32 2c 31 	sethi  %hi(0xc8b0c400), %i0
     e74:	36 3b 5f 62 	unknown
     e78:	66 3a 28 33 	call  98e8af44 <LEON_REG+0x18e8af44>
     e7c:	2c 31 33 29 	unknown
     e80:	2c 31 32 38 	unknown
     e84:	2c 36 34 3b 	unknown
     e88:	5f 6c 62 66 	call  7db19820 <__end+0x3d6158e8>
     e8c:	73 69 7a 65 	call  cda5f820 <LEON_REG+0x4da5f820>
     e90:	3a 28 30 2c 	unknown
     e94:	31 29 2c 31 	sethi  %hi(0xa4b0c400), %i0
     e98:	39 32 2c 33 	sethi  %hi(0xc8b0cc00), %i4
     e9c:	32 3b 5f 63 	unknown
     ea0:	6f 6f 6b 69 	call  bdbdbc44 <LEON_REG+0x3dbdbc44>
     ea4:	65 3a 28 34 	call  94e8af74 <LEON_REG+0x14e8af74>
     ea8:	2c 31 30 29 	unknown
     eac:	2c 32 32 34 	unknown
     eb0:	2c 33 32 3b 	unknown
     eb4:	5f 72 65 61 	call  7dc9a438 <__end+0x3d796500>
     eb8:	64 3a 28 33 	call  90e8af84 <LEON_REG+0x10e8af84>
     ebc:	2c 31 37 29 	unknown
     ec0:	3d 2a 28 33 	sethi  %hi(0xa8a0cc00), %fp
     ec4:	2c 31 38 29 	unknown
     ec8:	3d 66 28 30 	unknown
     ecc:	2c 31 29 2c 	unknown
     ed0:	32 35 36 2c 	unknown
     ed4:	33 32 3b 5f 	sethi  %hi(0xc8ed7c00), %i1
     ed8:	77 72 69 74 	call  ddc9b4a8 <LEON_REG+0x5dc9b4a8>
     edc:	65 3a 28 33 	call  94e8afa8 <LEON_REG+0x14e8afa8>
     ee0:	2c 31 39 29 	unknown
     ee4:	3d 2a 28 33 	sethi  %hi(0xa8a0cc00), %fp
     ee8:	2c 32 30 29 	unknown
     eec:	3d 66 28 30 	unknown
     ef0:	2c 31 29 2c 	unknown
     ef4:	32 38 38 2c 	unknown
     ef8:	33 32 3b 5f 	sethi  %hi(0xc8ed7c00), %i1
     efc:	73 65 65 6b 	call  cd95a4a8 <LEON_REG+0x4d95a4a8>
     f00:	3a 28 33 2c 	unknown
     f04:	32 31 29 3d 	unknown
     f08:	2a 28 33 2c 	unknown
     f0c:	32 32 29 3d 	unknown
     f10:	66 28 33 2c 	call  98a0dbc0 <LEON_REG+0x18a0dbc0>
     f14:	31 35 29 2c 	sethi  %hi(0xd4a4b000), %i0
     f18:	33 32 30 2c 	sethi  %hi(0xc8c0b000), %i1
     f1c:	33 32 3b 5f 	sethi  %hi(0xc8ed7c00), %i1
     f20:	63 6c 6f 73 	call  8db1ccec <LEON_REG+0xdb1ccec>
     f24:	65 3a 28 33 	call  94e8aff0 <LEON_REG+0x14e8aff0>
     f28:	2c 32 33 29 	unknown
     f2c:	3d 2a 28 33 	sethi  %hi(0xa8a0cc00), %fp
     f30:	2c 32 34 29 	unknown
     f34:	3d 66 28 30 	unknown
     f38:	2c 31 29 2c 	unknown
     f3c:	33 35 32 2c 	sethi  %hi(0xd4c8b000), %i1
     f40:	33 32 3b 5f 	sethi  %hi(0xc8ed7c00), %i1
     f44:	75 62 3a 28 	call  d588f7e4 <LEON_REG+0x5588f7e4>
     f48:	33 2c 31 33 	sethi  %hi(0xb0c4cc00), %i1
     f4c:	29 2c 33 38 	sethi  %hi(0xb0cce000), %l4
     f50:	34 2c 36 34 	unknown
     f54:	3b 5f 75 70 	unknown
     f58:	3a 28 33 2c 	unknown
     f5c:	31 34 29 2c 	sethi  %hi(0xd0a4b000), %i0
     f60:	34 34 38 2c 	unknown
     f64:	33 32 3b 5f 	sethi  %hi(0xc8ed7c00), %i1
     f68:	75 72 3a 28 	call  d5c8f808 <LEON_REG+0x55c8f808>
     f6c:	30 2c 31 29 	unknown
     f70:	2c 34 38 30 	unknown
     f74:	2c 33 32 3b 	unknown
     f78:	5f 75 62 75 	call  7dd5994c <__end+0x3d855a14>
     f7c:	66 3a 28 33 	call  98e8b048 <LEON_REG+0x18e8b048>
     f80:	2c 32 35 29 	unknown
     f84:	3d 61 72 28 	unknown
     f88:	36 2c 31 34 	unknown
     f8c:	29 3b 30 3b 	sethi  %hi(0xecc0ec00), %l4
     f90:	32 3b 28 30 	unknown
     f94:	2c 31 31 29 	unknown
     f98:	2c 35 31 32 	unknown
     f9c:	2c 32 34 3b 	unknown
     fa0:	5f 6e 62 75 	call  7db99974 <__end+0x3d695a3c>
     fa4:	66 3a 28 33 	call  98e8b070 <LEON_REG+0x18e8b070>
     fa8:	2c 32 36 29 	unknown
     fac:	3d 61 72 28 	unknown
     fb0:	36 2c 31 34 	unknown
     fb4:	29 3b 30 3b 	sethi  %hi(0xecc0ec00), %l4
     fb8:	30 3b 28 30 	unknown
     fbc:	2c 31 31 29 	unknown
     fc0:	2c 35 33 36 	unknown
     fc4:	2c 38 3b 5f 	unknown
     fc8:	6c 62 3a 28 	call  b188f868 <LEON_REG+0x3188f868>
     fcc:	33 2c 31 33 	sethi  %hi(0xb0c4cc00), %i1
     fd0:	29 2c 35 34 	sethi  %hi(0xb0d4d000), %l4
     fd4:	34 2c 36 34 	unknown
     fd8:	3b 5f 62 6c 	unknown
     fdc:	6b 73 69 7a 	call  adcdb5c4 <LEON_REG+0x2dcdb5c4>
     fe0:	65 3a 28 30 	call  94e8b0a0 <LEON_REG+0x14e8b0a0>
     fe4:	2c 31 29 2c 	unknown
     fe8:	36 30 38 2c 	unknown
     fec:	33 32 3b 5f 	sethi  %hi(0xc8ed7c00), %i1
     ff0:	6f 66 66 73 	call  bd99a9bc <LEON_REG+0x3d99a9bc>
     ff4:	65 74 3a 28 	call  95d0f894 <LEON_REG+0x15d0f894>
     ff8:	30 2c 31 29 	unknown
     ffc:	2c 36 34 30 	unknown
    1000:	2c 33 32 3b 	unknown
    1004:	5f 64 61 74 	call  7d9195d4 <__end+0x3d41569c>
    1008:	61 3a 28 33 	call  84e8b0d4 <LEON_REG+0x4e8b0d4>
    100c:	2c 32 37 29 	unknown
    1010:	3d 2a 28 33 	sethi  %hi(0xa8a0cc00), %fp
    1014:	2c 32 38 29 	unknown
    1018:	3d 78 73 5f 	unknown
    101c:	72 65 65 6e 	call  c995a5d4 <LEON_REG+0x4995a5d4>
    1020:	74 3a 2c 36 	call  d0e8c0f8 <LEON_REG+0x50e8c0f8>
    1024:	37 32 2c 33 	sethi  %hi(0xc8b0cc00), %i3
    1028:	32 3b 5f 6c 	unknown
    102c:	6f 63 6b 3a 	call  bd8dbd14 <LEON_REG+0x3d8dbd14>
    1030:	28 34 2c 38 	unknown
    1034:	29 2c 37 30 	sethi  %hi(0xb0dcc000), %l4
    1038:	34 2c 39 32 	unknown
    103c:	38 3b 3b 00 	unknown
    1040:	5f 5f 46 49 	call  7d7d2964 <__end+0x3d2cea2c>
    1044:	4c 45 3a 74 	call  3114fa14 <_trap_table-0xf3b05ec>
    1048:	28 33 2c 32 	unknown
    104c:	39 29 3d 28 	sethi  %hi(0xa4f4a000), %i4
    1050:	33 2c 31 36 	sethi  %hi(0xb0c4d800), %i1
    1054:	29 00 5f 67 	sethi  %hi(0x17d9c00), %l4
    1058:	6c 75 65 3a 	call  b1d5a540 <LEON_REG+0x31d5a540>
    105c:	54 28 33 2c 	call  50a0dd0c <__end+0x10509dd4>
    1060:	33 30 29 3d 	sethi  %hi(0xc0a4f400), %i1
    1064:	73 31 32 5f 	call  ccc4d9e0 <LEON_REG+0x4cc4d9e0>
    1068:	6e 65 78 74 	call  b995f238 <LEON_REG+0x3995f238>
    106c:	3a 28 33 2c 	unknown
    1070:	33 31 29 3d 	sethi  %hi(0xc4a4f400), %i1
    1074:	2a 28 33 2c 	unknown
    1078:	33 30 29 2c 	sethi  %hi(0xc0a4b000), %i1
    107c:	30 2c 33 32 	unknown
    1080:	3b 5f 6e 69 	unknown
    1084:	6f 62 73 3a 	call  bd89dd6c <LEON_REG+0x3d89dd6c>
    1088:	28 30 2c 31 	unknown
    108c:	29 2c 33 32 	sethi  %hi(0xb0ccc800), %l4
    1090:	2c 33 32 3b 	unknown
    1094:	5f 69 6f 62 	call  7da5ce1c <__end+0x3d558ee4>
    1098:	73 3a 28 33 	call  cce8b164 <LEON_REG+0x4ce8b164>
    109c:	2c 33 32 29 	unknown
    10a0:	3d 2a 28 33 	sethi  %hi(0xa8a0cc00), %fp
    10a4:	2c 32 39 29 	unknown
    10a8:	2c 36 34 2c 	unknown
    10ac:	33 32 3b 3b 	sethi  %hi(0xc8ecec00), %i1
    10b0:	00 5f 72 61 	unknown
    10b4:	6e 64 34 38 	call  b990e194 <LEON_REG+0x3990e194>
    10b8:	3a 54 28 33 	unknown
    10bc:	2c 33 33 29 	unknown
    10c0:	3d 73 31 34 	unknown
    10c4:	5f 73 65 65 	call  7dcda658 <__end+0x3d7d6720>
    10c8:	64 3a 28 33 	call  90e8b194 <LEON_REG+0x10e8b194>
    10cc:	2c 33 34 29 	unknown
    10d0:	3d 61 72 28 	unknown
    10d4:	36 2c 31 34 	unknown
    10d8:	29 3b 30 3b 	sethi  %hi(0xecc0ec00), %l4
    10dc:	32 3b 28 30 	unknown
    10e0:	2c 39 29 2c 	unknown
    10e4:	30 2c 34 38 	unknown
    10e8:	3b 5f 6d 75 	unknown
    10ec:	6c 74 3a 28 	call  b1d0f98c <LEON_REG+0x31d0f98c>
    10f0:	33 2c 33 34 	sethi  %hi(0xb0ccd000), %i1
    10f4:	29 2c 34 38 	sethi  %hi(0xb0d0e000), %l4
    10f8:	2c 34 38 3b 	unknown
    10fc:	5f 61 64 64 	call  7d85a28c <__end+0x3d356354>
    1100:	3a 28 30 2c 	unknown
    1104:	39 29 2c 39 	sethi  %hi(0xa4b0e400), %i4
    1108:	36 2c 31 36 	unknown
    110c:	3b 3b 00 5f 	sethi  %hi(0xec017c00), %i5
    1110:	72 65 65 6e 	call  c995a6c8 <LEON_REG+0x4995a6c8>
    1114:	74 3a 54 28 	call  d0e961b4 <LEON_REG+0x50e961b4>
    1118:	33 2c 32 38 	sethi  %hi(0xb0c8e000), %i1
    111c:	29 3d 73 31 	sethi  %hi(0xf5ccc400), %l4
    1120:	33 36 30 5f 	sethi  %hi(0xd8c17c00), %i1
    1124:	65 72 72 6e 	call  95c9dadc <LEON_REG+0x15c9dadc>
    1128:	6f 3a 28 30 	call  bce8b1e8 <LEON_REG+0x3ce8b1e8>
    112c:	2c 31 29 2c 	unknown
    1130:	30 2c 33 32 	unknown
    1134:	3b 5f 73 74 	unknown
    1138:	64 69 6e 3a 	call  91a5ca20 <LEON_REG+0x11a5ca20>
    113c:	28 33 2c 33 	unknown
    1140:	32 29 2c 33 	unknown
    1144:	32 2c 33 32 	unknown
    1148:	3b 5f 73 74 	unknown
    114c:	64 6f 75 74 	call  91bde71c <LEON_REG+0x11bde71c>
    1150:	3a 28 33 2c 	unknown
    1154:	33 32 29 2c 	sethi  %hi(0xc8a4b000), %i1
    1158:	36 34 2c 33 	unknown
    115c:	32 3b 5f 73 	unknown
    1160:	74 64 65 72 	call  d191a728 <LEON_REG+0x5191a728>
    1164:	72 3a 28 33 	call  c8e8b230 <LEON_REG+0x48e8b230>
    1168:	2c 33 32 29 	unknown
    116c:	2c 39 36 2c 	unknown
    1170:	33 32 3b 5f 	sethi  %hi(0xc8ed7c00), %i1
    1174:	69 6e 63 3a 	call  a5b99e5c <LEON_REG+0x25b99e5c>
    1178:	28 30 2c 31 	unknown
    117c:	29 2c 31 32 	sethi  %hi(0xb0c4c800), %l4
    1180:	38 2c 33 32 	unknown
    1184:	3b 5f 65 6d 	unknown
    1188:	65 72 67 65 	call  95c9af1c <LEON_REG+0x15c9af1c>
    118c:	6e 63 79 3a 	call  b98df674 <LEON_REG+0x398df674>
    1190:	28 33 2c 33 	unknown
    1194:	35 29 3d 61 	sethi  %hi(0xa4f58400), %i2
    1198:	72 28 36 2c 	call  c8a0ea48 <LEON_REG+0x48a0ea48>
    119c:	31 34 29 3b 	sethi  %hi(0xd0a4ec00), %i0
    11a0:	30 3b 32 34 	unknown
    11a4:	3b 28 30 2c 	sethi  %hi(0xa0c0b000), %i5
    11a8:	32 29 2c 31 	unknown
    11ac:	36 30 2c 32 	unknown
    11b0:	30 30 3b 5f 	unknown
    11b4:	63 75 72 72 	call  8dd5db7c <LEON_REG+0xdd5db7c>
    11b8:	65 6e 74 5f 	call  95b9e334 <LEON_REG+0x15b9e334>
    11bc:	63 61 74 65 	call  8d85e350 <LEON_REG+0xd85e350>
    11c0:	67 6f 72 79 	call  9dbddba4 <LEON_REG+0x1dbddba4>
    11c4:	3a 28 30 2c 	unknown
    11c8:	31 29 2c 33 	sethi  %hi(0xa4b0cc00), %i0
    11cc:	38 34 2c 33 	unknown
    11d0:	32 3b 5f 63 	unknown
    11d4:	75 72 72 65 	call  d5c9db68 <LEON_REG+0x55c9db68>
    11d8:	6e 74 5f 6c 	call  b9d18f88 <LEON_REG+0x39d18f88>
    11dc:	6f 63 61 6c 	call  bd8d978c <LEON_REG+0x3d8d978c>
    11e0:	65 3a 28 33 	call  94e8b2ac <LEON_REG+0x14e8b2ac>
    11e4:	2c 33 36 29 	unknown
    11e8:	3d 2a 28 33 	sethi  %hi(0xa8a0cc00), %fp
    11ec:	2c 33 37 29 	unknown
    11f0:	3d 6b 28 30 	unknown
    11f4:	2c 32 29 2c 	unknown
    11f8:	34 31 36 2c 	unknown
    11fc:	33 32 3b 5f 	sethi  %hi(0xc8ed7c00), %i1
    1200:	5f 73 64 69 	call  7dcda3a4 <__end+0x3d7d646c>
    1204:	64 69 6e 69 	call  91a5cba8 <LEON_REG+0x11a5cba8>
    1208:	74 3a 28 30 	call  d0e8b2c8 <LEON_REG+0x50e8b2c8>
    120c:	2c 31 29 2c 	unknown
    1210:	34 34 38 2c 	unknown
    1214:	33 32 3b 5f 	sethi  %hi(0xc8ed7c00), %i1
    1218:	5f 63 6c 65 	call  7d8dc3ac <__end+0x3d3d8474>
    121c:	61 6e 75 70 	call  85b9e7dc <LEON_REG+0x5b9e7dc>
    1220:	3a 28 33 2c 	unknown
    1224:	33 38 29 3d 	sethi  %hi(0xe0a4f400), %i1
    1228:	2a 28 33 2c 	unknown
    122c:	33 39 29 3d 	sethi  %hi(0xe4a4f400), %i1
    1230:	66 28 30 2c 	call  98a0d2e0 <LEON_REG+0x18a0d2e0>
    1234:	31 39 29 2c 	sethi  %hi(0xe4a4b000), %i0
    1238:	34 38 30 2c 	unknown
    123c:	33 32 3b 5f 	sethi  %hi(0xc8ed7c00), %i1
    1240:	72 65 73 75 	call  c995e014 <LEON_REG+0x4995e014>
    1244:	6c 74 3a 28 	call  b1d0fae4 <LEON_REG+0x31d0fae4>
    1248:	33 2c 33 29 	sethi  %hi(0xb0cca400), %i1
    124c:	2c 35 31 32 	unknown
    1250:	2c 33 32 3b 	unknown
    1254:	5f 72 65 73 	call  7dc9a820 <__end+0x3d7968e8>
    1258:	75 6c 74 5f 	call  d5b1e3d4 <LEON_REG+0x55b1e3d4>
    125c:	6b 3a 28 30 	call  ace8b31c <LEON_REG+0x2ce8b31c>
    1260:	2c 31 29 2c 	unknown
    1264:	35 34 34 2c 	sethi  %hi(0xd0d0b000), %i2
    1268:	33 32 3b 5f 	sethi  %hi(0xc8ed7c00), %i1
    126c:	70 35 73 3a 	call  c0d5df54 <LEON_REG+0x40d5df54>
    1270:	28 33 2c 33 	unknown
    1274:	29 2c 35 37 	sethi  %hi(0xb0d4dc00), %l4
    1278:	36 2c 33 32 	unknown
    127c:	3b 5f 66 72 	unknown
    1280:	65 65 6c 69 	call  9595c424 <LEON_REG+0x1595c424>
    1284:	73 74 3a 28 	call  cdd0fb24 <LEON_REG+0x4dd0fb24>
    1288:	33 2c 34 30 	sethi  %hi(0xb0d0c000), %i1
    128c:	29 3d 2a 28 	sethi  %hi(0xf4a8a000), %l4
    1290:	33 2c 33 29 	sethi  %hi(0xb0cca400), %i1
    1294:	2c 36 30 38 	unknown
    1298:	2c 33 32 3b 	unknown
    129c:	5f 63 76 74 	call  7d8dec6c <__end+0x3d3dad34>
    12a0:	6c 65 6e 3a 	call  b195cb88 <LEON_REG+0x3195cb88>
    12a4:	28 30 2c 31 	unknown
    12a8:	29 2c 36 34 	sethi  %hi(0xb0d8d000), %l4
    12ac:	30 2c 33 32 	unknown
    12b0:	3b 5f 63 76 	unknown
    12b4:	74 62 75 66 	call  d189e84c <LEON_REG+0x5189e84c>
    12b8:	3a 28 36 2c 	unknown
    12bc:	36 29 2c 36 	unknown
    12c0:	37 32 2c 33 	sethi  %hi(0xc8b0cc00), %i3
    12c4:	32 3b 5f 6e 	unknown
    12c8:	65 77 3a 28 	call  95dcfb68 <LEON_REG+0x15dcfb68>
    12cc:	33 2c 34 31 	sethi  %hi(0xb0d0c400), %i1
    12d0:	29 3d 75 32 	sethi  %hi(0xf5d4c800), %l4
    12d4:	34 30 5f 72 	unknown
    12d8:	65 65 6e 74 	call  9595cca8 <LEON_REG+0x1595cca8>
    12dc:	3a 28 33 2c 	unknown
    12e0:	34 32 29 3d 	unknown
    12e4:	73 32 30 38 	call  ccc8d3c4 <LEON_REG+0x4cc8d3c4>
    12e8:	5f 75 6e 75 	call  7dd5ccbc <__end+0x3d858d84>
    12ec:	73 65 64 5f 	call  cd95a468 <LEON_REG+0x4d95a468>
    12f0:	72 61 6e 64 	call  c985cc80 <LEON_REG+0x4985cc80>
    12f4:	3a 28 30 2c 	unknown
    12f8:	34 29 2c 30 	unknown
    12fc:	2c 33 32 3b 	unknown
    1300:	5f 73 74 72 	call  7dcde4c8 <__end+0x3d7da590>
    1304:	74 6f 6b 5f 	call  d1bdc080 <LEON_REG+0x51bdc080>
    1308:	6c 61 73 74 	call  b185e0d8 <LEON_REG+0x3185e0d8>
    130c:	3a 28 36 2c 	unknown
    1310:	36 29 2c 33 	unknown
    1314:	32 2c 33 32 	unknown
    1318:	3b 5f 61 73 	unknown
    131c:	63 74 69 6d 	call  8dd1b8d0 <LEON_REG+0xdd1b8d0>
    1320:	65 5f 62 75 	call  957d9cf4 <LEON_REG+0x157d9cf4>
    1324:	66 3a 28 33 	call  98e8b3f0 <LEON_REG+0x18e8b3f0>
    1328:	2c 34 33 29 	unknown
    132c:	3d 61 72 28 	unknown
    1330:	36 2c 31 34 	unknown
    1334:	29 3b 30 3b 	sethi  %hi(0xecc0ec00), %l4
    1338:	32 35 3b 28 	unknown
    133c:	30 2c 32 29 	unknown
    1340:	2c 36 34 2c 	unknown
    1344:	32 30 38 3b 	unknown
    1348:	5f 6c 6f 63 	call  7db1d0d4 <__end+0x3d61919c>
    134c:	61 6c 74 69 	call  85b1e4f0 <LEON_REG+0x5b1e4f0>
    1350:	6d 65 5f 62 	call  b59590d8 <LEON_REG+0x359590d8>
    1354:	75 66 3a 28 	call  d598fbf4 <LEON_REG+0x5598fbf4>
    1358:	33 2c 35 29 	sethi  %hi(0xb0d4a400), %i1
    135c:	2c 32 38 38 	unknown
    1360:	2c 32 38 38 	unknown
    1364:	3b 5f 67 61 	unknown
    1368:	6d 6d 61 5f 	call  b5b598e4 <LEON_REG+0x35b598e4>
    136c:	73 69 67 6e 	call  cda5b124 <LEON_REG+0x4da5b124>
    1370:	67 61 6d 3a 	call  9d85c858 <LEON_REG+0x1d85c858>
    1374:	28 30 2c 31 	unknown
    1378:	29 2c 35 37 	sethi  %hi(0xb0d4dc00), %l4
    137c:	36 2c 33 32 	unknown
    1380:	3b 5f 72 61 	unknown
    1384:	6e 64 5f 6e 	call  b991913c <LEON_REG+0x3991913c>
    1388:	65 78 74 3a 	call  95e1e470 <LEON_REG+0x15e1e470>
    138c:	28 30 2c 37 	unknown
    1390:	29 2c 36 34 	sethi  %hi(0xb0d8d000), %l4
    1394:	30 2c 36 34 	unknown
    1398:	3b 5f 72 34 	unknown
    139c:	38 3a 28 33 	unknown
    13a0:	2c 33 33 29 	unknown
    13a4:	2c 37 30 34 	unknown
    13a8:	2c 31 31 32 	unknown
    13ac:	3b 5f 6d 62 	unknown
    13b0:	6c 65 6e 5f 	call  b195cd2c <LEON_REG+0x3195cd2c>
    13b4:	73 74 61 74 	call  cdd19984 <LEON_REG+0x4dd19984>
    13b8:	65 3a 28 34 	call  94e8b488 <LEON_REG+0x14e8b488>
    13bc:	2c 34 29 2c 	unknown
    13c0:	38 33 32 2c 	unknown
    13c4:	36 34 3b 5f 	unknown
    13c8:	6d 62 74 6f 	call  b589e584 <LEON_REG+0x3589e584>
    13cc:	77 63 5f 73 	call  dd8d9198 <LEON_REG+0x5d8d9198>
    13d0:	74 61 74 65 	call  d185e564 <LEON_REG+0x5185e564>
    13d4:	3a 28 34 2c 	unknown
    13d8:	34 29 2c 38 	unknown
    13dc:	39 36 2c 36 	sethi  %hi(0xd8b0d800), %i4
    13e0:	34 3b 5f 77 	unknown
    13e4:	63 74 6f 6d 	call  8dd1d198 <LEON_REG+0xdd1d198>
    13e8:	62 5f 73 74 	call  897de1b8 <LEON_REG+0x97de1b8>
    13ec:	61 74 65 3a 	call  85d1a8d4 <LEON_REG+0x5d1a8d4>
    13f0:	28 34 2c 34 	unknown
    13f4:	29 2c 39 36 	sethi  %hi(0xb0e4d800), %l4
    13f8:	30 2c 36 34 	unknown
    13fc:	3b 5f 6c 36 	unknown
    1400:	34 61 5f 62 	unknown
    1404:	75 66 3a 28 	call  d598fca4 <LEON_REG+0x5598fca4>
    1408:	33 2c 34 34 	sethi  %hi(0xb0d0d000), %i1
    140c:	29 3d 61 72 	sethi  %hi(0xf585c800), %l4
    1410:	28 36 2c 31 	unknown
    1414:	34 29 3b 30 	unknown
    1418:	3b 37 3b 28 	sethi  %hi(0xdceca000), %i5
    141c:	30 2c 32 29 	unknown
    1420:	2c 31 30 32 	unknown
    1424:	34 2c 36 34 	unknown
    1428:	3b 5f 73 69 	unknown
    142c:	67 6e 61 6c 	call  9db999dc <LEON_REG+0x1db999dc>
    1430:	5f 62 75 66 	call  7d89e9c8 <__end+0x3d39aa90>
    1434:	3a 28 33 2c 	unknown
    1438:	34 35 29 3d 	unknown
    143c:	61 72 28 36 	call  85c8b514 <LEON_REG+0x5c8b514>
    1440:	2c 31 34 29 	unknown
    1444:	3b 30 3b 32 	sethi  %hi(0xc0ecc800), %i5
    1448:	33 3b 28 30 	sethi  %hi(0xeca0c000), %i1
    144c:	2c 32 29 2c 	unknown
    1450:	31 30 38 38 	sethi  %hi(0xc0e0e000), %i0
    1454:	2c 31 39 32 	unknown
    1458:	3b 5f 67 65 	unknown
    145c:	74 64 61 74 	call  d1919a2c <LEON_REG+0x51919a2c>
    1460:	65 5f 65 72 	call  957daa28 <LEON_REG+0x157daa28>
    1464:	72 3a 28 30 	call  c8e8b524 <LEON_REG+0x48e8b524>
    1468:	2c 31 29 2c 	unknown
    146c:	31 32 38 30 	sethi  %hi(0xc8e0c000), %i0
    1470:	2c 33 32 3b 	unknown
    1474:	5f 6d 62 72 	call  7db59e3c <__end+0x3d655f04>
    1478:	6c 65 6e 5f 	call  b195cdf4 <LEON_REG+0x3195cdf4>
    147c:	73 74 61 74 	call  cdd19a4c <LEON_REG+0x4dd19a4c>
    1480:	65 3a 28 34 	call  94e8b550 <LEON_REG+0x14e8b550>
    1484:	2c 34 29 2c 	unknown
    1488:	31 33 31 32 	sethi  %hi(0xccc4c800), %i0
    148c:	2c 36 34 3b 	unknown
    1490:	5f 6d 62 72 	call  7db59e58 <__end+0x3d655f20>
    1494:	74 6f 77 63 	call  d1bdf220 <LEON_REG+0x51bdf220>
    1498:	5f 73 74 61 	call  7dcde61c <__end+0x3d7da6e4>
    149c:	74 65 3a 28 	call  d194fd3c <LEON_REG+0x5194fd3c>
    14a0:	34 2c 34 29 	unknown
    14a4:	2c 31 33 37 	unknown
    14a8:	36 2c 36 34 	unknown
    14ac:	3b 5c 00 5f 	unknown
    14b0:	6d 62 73 72 	call  b589e278 <LEON_REG+0x3589e278>
    14b4:	74 6f 77 63 	call  d1bdf240 <LEON_REG+0x51bdf240>
    14b8:	73 5f 73 74 	call  cd7de288 <LEON_REG+0x4d7de288>
    14bc:	61 74 65 3a 	call  85d1a9a4 <LEON_REG+0x5d1a9a4>
    14c0:	28 34 2c 34 	unknown
    14c4:	29 2c 31 34 	sethi  %hi(0xb0c4d000), %l4
    14c8:	34 30 2c 36 	unknown
    14cc:	34 3b 5f 77 	unknown
    14d0:	63 72 74 6f 	call  8dc9e68c <LEON_REG+0xdc9e68c>
    14d4:	6d 62 5f 73 	call  b58992a0 <LEON_REG+0x358992a0>
    14d8:	74 61 74 65 	call  d185e66c <LEON_REG+0x5185e66c>
    14dc:	3a 28 34 2c 	unknown
    14e0:	34 29 2c 31 	unknown
    14e4:	35 30 34 2c 	sethi  %hi(0xc0d0b000), %i2
    14e8:	36 34 3b 5f 	unknown
    14ec:	77 63 73 72 	call  dd8de2b4 <LEON_REG+0x5d8de2b4>
    14f0:	74 6f 6d 62 	call  d1bdca78 <LEON_REG+0x51bdca78>
    14f4:	73 5f 73 74 	call  cd7de2c4 <LEON_REG+0x4d7de2c4>
    14f8:	61 74 65 3a 	call  85d1a9e0 <LEON_REG+0x5d1a9e0>
    14fc:	28 34 2c 34 	unknown
    1500:	29 2c 31 35 	sethi  %hi(0xb0c4d400), %l4
    1504:	36 38 2c 36 	unknown
    1508:	34 3b 3b 2c 	unknown
    150c:	30 2c 31 36 	unknown
    1510:	36 34 3b 5f 	unknown
    1514:	75 6e 75 73 	call  d5b9eae0 <LEON_REG+0x55b9eae0>
    1518:	65 64 3a 28 	call  9590fdb8 <LEON_REG+0x1590fdb8>
    151c:	33 2c 34 36 	sethi  %hi(0xb0d0d800), %i1
    1520:	29 3d 73 32 	sethi  %hi(0xf5ccc800), %l4
    1524:	34 30 5f 6e 	unknown
    1528:	65 78 74 66 	call  95e1e6c0 <LEON_REG+0x15e1e6c0>
    152c:	3a 28 33 2c 	unknown
    1530:	34 37 29 3d 	unknown
    1534:	61 72 28 36 	call  85c8b60c <LEON_REG+0x5c8b60c>
    1538:	2c 31 34 29 	unknown
    153c:	3b 30 3b 32 	sethi  %hi(0xc0ecc800), %i5
    1540:	39 3b 28 33 	sethi  %hi(0xeca0cc00), %i4
    1544:	2c 31 34 29 	unknown
    1548:	2c 30 2c 39 	unknown
    154c:	36 30 3b 5f 	unknown
    1550:	6e 6d 61 6c 	call  b9b59b00 <LEON_REG+0x39b59b00>
    1554:	6c 6f 63 3a 	call  b1bda23c <LEON_REG+0x31bda23c>
    1558:	28 33 2c 34 	unknown
    155c:	38 29 3d 61 	unknown
    1560:	72 28 36 2c 	call  c8a0ee10 <LEON_REG+0x48a0ee10>
    1564:	31 34 29 3b 	sethi  %hi(0xd0a4ec00), %i0
    1568:	30 3b 32 39 	unknown
    156c:	3b 28 30 2c 	sethi  %hi(0xa0c0b000), %i5
    1570:	34 29 2c 39 	unknown
    1574:	36 30 2c 39 	unknown
    1578:	36 30 3b 3b 	unknown
    157c:	2c 30 2c 31 	unknown
    1580:	39 32 30 3b 	sethi  %hi(0xc8c0ec00), %i4
    1584:	3b 2c 37 30 	sethi  %hi(0xb0dcc000), %i5
    1588:	34 2c 31 39 	unknown
    158c:	32 30 3b 5f 	unknown
    1590:	61 74 65 78 	call  85d1ab70 <LEON_REG+0x5d1ab70>
    1594:	69 74 3a 28 	call  a5d0fe34 <LEON_REG+0x25d0fe34>
    1598:	33 2c 39 29 	sethi  %hi(0xb0e4a400), %i1
    159c:	2c 32 36 32 	unknown
    15a0:	34 2c 33 32 	unknown
    15a4:	3b 5f 61 74 	unknown
    15a8:	65 78 69 74 	call  95e1bb78 <LEON_REG+0x15e1bb78>
    15ac:	30 3a 28 33 	unknown
    15b0:	2c 38 29 2c 	unknown
    15b4:	32 36 35 36 	unknown
    15b8:	2c 33 32 30 	unknown
    15bc:	30 3b 5f 73 	unknown
    15c0:	69 67 5f 66 	call  a59d9358 <LEON_REG+0x259d9358>
    15c4:	75 6e 63 3a 	call  d5b9a2ac <LEON_REG+0x55b9a2ac>
    15c8:	28 33 2c 34 	unknown
    15cc:	39 29 3d 2a 	sethi  %hi(0xa4f4a800), %i4
    15d0:	28 33 2c 35 	unknown
    15d4:	30 29 3d 2a 	unknown
    15d8:	28 33 2c 35 	unknown
    15dc:	31 29 3d 66 	sethi  %hi(0xa4f59800), %i0
    15e0:	28 30 2c 31 	unknown
    15e4:	39 29 2c 35 	sethi  %hi(0xa4b0d400), %i4
    15e8:	38 35 36 2c 	unknown
    15ec:	33 32 3b 5f 	sethi  %hi(0xc8ed7c00), %i1
    15f0:	5f 73 67 6c 	call  7dcdb3a0 <__end+0x3d7d7468>
    15f4:	75 65 3a 28 	call  d594fe94 <LEON_REG+0x5594fe94>
    15f8:	33 2c 33 30 	sethi  %hi(0xb0ccc000), %i1
    15fc:	29 2c 35 38 	sethi  %hi(0xb0d4e000), %l4
    1600:	38 38 2c 39 	unknown
    1604:	36 3b 5f 5f 	unknown
    1608:	73 66 3a 28 	call  cd98fea8 <LEON_REG+0x4d98fea8>
    160c:	33 2c 35 32 	sethi  %hi(0xb0d4c800), %i1
    1610:	29 3d 61 72 	sethi  %hi(0xf585c800), %l4
    1614:	28 36 2c 31 	unknown
    1618:	34 29 3b 30 	unknown
    161c:	3b 32 3b 28 	sethi  %hi(0xc8eca000), %i5
    1620:	33 2c 32 39 	sethi  %hi(0xb0c8e400), %i1
    1624:	29 2c 35 39 	sethi  %hi(0xb0d4e400), %l4
    1628:	38 34 2c 34 	unknown
    162c:	38 39 36 3b 	unknown
    1630:	3b 00 64 69 	sethi  %hi(0x191a400), %i5
    1634:	76 5f 74 3a 	call  d97de71c <LEON_REG+0x597de71c>
    1638:	74 28 31 2c 	call  d0a0dae8 <LEON_REG+0x50a0dae8>
    163c:	31 29 3d 28 	sethi  %hi(0xa4f4a000), %i0
    1640:	31 2c 32 29 	sethi  %hi(0xb0c8a400), %i0
    1644:	3d 73 38 71 	unknown
    1648:	75 6f 74 3a 	call  d5bde730 <LEON_REG+0x55bde730>
    164c:	28 30 2c 31 	unknown
    1650:	29 2c 30 2c 	sethi  %hi(0xb0c0b000), %l4
    1654:	33 32 3b 72 	sethi  %hi(0xc8edc800), %i1
    1658:	65 6d 3a 28 	call  95b4fef8 <LEON_REG+0x15b4fef8>
    165c:	30 2c 31 29 	unknown
    1660:	2c 33 32 2c 	unknown
    1664:	33 32 3b 3b 	sethi  %hi(0xc8ecec00), %i1
    1668:	00 6c 64 69 	unknown
    166c:	76 5f 74 3a 	call  d97de754 <LEON_REG+0x597de754>
    1670:	74 28 31 2c 	call  d0a0db20 <LEON_REG+0x50a0db20>
    1674:	33 29 3d 28 	sethi  %hi(0xa4f4a000), %i1
    1678:	31 2c 34 29 	sethi  %hi(0xb0d0a400), %i0
    167c:	3d 73 38 71 	unknown
    1680:	75 6f 74 3a 	call  d5bde768 <LEON_REG+0x55bde768>
    1684:	28 30 2c 33 	unknown
    1688:	29 2c 30 2c 	sethi  %hi(0xb0c0b000), %l4
    168c:	33 32 3b 72 	sethi  %hi(0xc8edc800), %i1
    1690:	65 6d 3a 28 	call  95b4ff30 <LEON_REG+0x15b4ff30>
    1694:	30 2c 33 29 	unknown
    1698:	2c 33 32 2c 	unknown
    169c:	33 32 3b 3b 	sethi  %hi(0xc8ecec00), %i1
    16a0:	00 6c 6c 64 	unknown
    16a4:	69 76 5f 74 	call  a5d99474 <LEON_REG+0x25d99474>
    16a8:	3a 74 28 31 	unknown
    16ac:	2c 35 29 3d 	unknown
    16b0:	28 31 2c 36 	unknown
    16b4:	29 3d 73 31 	sethi  %hi(0xf5ccc400), %l4
    16b8:	36 71 75 6f 	unknown
    16bc:	74 3a 28 30 	call  d0e8b77c <LEON_REG+0x50e8b77c>
    16c0:	2c 36 29 2c 	unknown
    16c4:	30 2c 36 34 	unknown
    16c8:	3b 72 65 6d 	unknown
    16cc:	3a 28 30 2c 	unknown
    16d0:	36 29 2c 36 	unknown
    16d4:	34 2c 36 34 	unknown
    16d8:	3b 3b 00 2e 	sethi  %hi(0xec00b800), %i5
    16dc:	2e 2f 2e 2e 	unknown
    16e0:	2f 2e 2e 2f 	sethi  %hi(0xb8b8bc00), %l7
    16e4:	2e 2e 2f 2e 	unknown
    16e8:	2e 2f 2e 2e 	unknown
    16ec:	2f 67 63 63 	unknown
    16f0:	2d 33 2e 34 	sethi  %hi(0xccb8d000), %l6
    16f4:	2e 34 2f 6e 	unknown
    16f8:	65 77 6c 69 	call  95ddc89c <LEON_REG+0x15ddc89c>
    16fc:	62 2f 6c 69 	call  88bdc8a0 <LEON_REG+0x8bdc8a0>
    1700:	62 63 2f 73 	call  898cd4cc <LEON_REG+0x98cd4cc>
    1704:	74 64 6c 69 	call  d191c8a8 <LEON_REG+0x5191c8a8>
    1708:	62 2f 61 74 	call  88bd9cd8 <LEON_REG+0x8bd9cd8>
    170c:	65 78 69 74 	call  95e1bcdc <LEON_REG+0x15e1bcdc>
    1710:	2e 68 00 5f 	unknown
    1714:	5f 61 74 65 	call  7d85e8a8 <__end+0x3d35a970>
    1718:	78 69 74 5f 	call  e1a5e894 <LEON_REG+0x61a5e894>
    171c:	74 79 70 65 	call  d1e5d8b0 <LEON_REG+0x51e5d8b0>
    1720:	73 3a 54 28 	call  cce967c0 <LEON_REG+0x4ce967c0>
    1724:	38 2c 31 29 	unknown
    1728:	3d 65 5f 5f 	unknown
    172c:	65 74 5f 61 	call  95d194b0 <LEON_REG+0x15d194b0>
    1730:	74 65 78 69 	call  d195f8d4 <LEON_REG+0x5195f8d4>
    1734:	74 3a 30 2c 	call  d0e8d7e4 <LEON_REG+0x50e8d7e4>
    1738:	5f 5f 65 74 	call  7d7dad08 <__end+0x3d2d6dd0>
    173c:	5f 6f 6e 65 	call  7dbdd0d0 <__end+0x3d6d9198>
    1740:	78 69 74 3a 	call  e1a5e828 <LEON_REG+0x61a5e828>
    1744:	31 2c 5f 5f 	sethi  %hi(0xb17d7c00), %i0
    1748:	65 74 5f 63 	call  95d194d4 <LEON_REG+0x15d194d4>
    174c:	78 61 3a 32 	call  e1850014 <LEON_REG+0x61850014>
    1750:	2c 3b 00 5f 	unknown
    1754:	61 74 65 78 	call  85d1ad34 <LEON_REG+0x5d1ad34>
    1758:	69 74 3a 46 	call  a5d10070 <LEON_REG+0x25d10070>
    175c:	28 30 2c 31 	unknown
    1760:	29 00 66 6e 	sethi  %hi(0x199b800), %l4
    1764:	3a 50 28 33 	unknown
    1768:	2c 31 31 29 	unknown
    176c:	00 2e 2e 2f 	unimp  0xffee2e2f
    1770:	2e 2e 2f 2e 	unknown
    1774:	2e 2f 2e 2e 	unknown
    1778:	2f 2e 2e 2f 	sethi  %hi(0xb8b8bc00), %l7
    177c:	2e 2e 2f 67 	unknown
    1780:	63 63 2d 33 	call  8d8ccc4c <LEON_REG+0xd8ccc4c>
    1784:	2e 34 2e 34 	unknown
    1788:	2f 6e 65 77 	unknown
    178c:	6c 69 62 2f 	call  b1a5a048 <LEON_REG+0x31a5a048>
    1790:	6c 69 62 63 	call  b1a5a11c <LEON_REG+0x31a5a11c>
    1794:	2f 73 74 64 	unknown
    1798:	6c 69 62 2f 	call  b1a5a054 <LEON_REG+0x31a5a054>
    179c:	5f 5f 61 74 	call  7d7d9d6c <__end+0x3d2d5e34>
    17a0:	65 78 69 74 	call  95e1bd70 <LEON_REG+0x15e1bd70>
    17a4:	2e 63 00 70 	unknown
    17a8:	74 72 64 69 	call  d1c9a94c <LEON_REG+0x51c9a94c>
    17ac:	66 66 5f 74 	call  9999957c <LEON_REG+0x1999957c>
    17b0:	3a 74 28 31 	unknown
    17b4:	2c 31 29 3d 	unknown
    17b8:	28 30 2c 31 	unknown
    17bc:	29 00 73 69 	sethi  %hi(0x1cda400), %l4
    17c0:	7a 65 5f 74 	call  e9959590 <LEON_REG+0x69959590>
    17c4:	3a 74 28 31 	unknown
    17c8:	2c 32 29 3d 	unknown
    17cc:	28 30 2c 34 	unknown
    17d0:	29 00 77 63 	sethi  %hi(0x1dd8c00), %l4
    17d4:	68 61 72 5f 	call  a185e150 <LEON_REG+0x2185e150>
    17d8:	74 3a 74 28 	call  d0e9e878 <LEON_REG+0x50e9e878>
    17dc:	31 2c 33 29 	sethi  %hi(0xb0cca400), %i0
    17e0:	3d 28 30 2c 	sethi  %hi(0xa0c0b000), %fp
    17e4:	33 29 00 2f 	sethi  %hi(0xa400bc00), %i1
    17e8:	68 6f 6d 65 	call  a1bdcd7c <LEON_REG+0x21bdcd7c>
    17ec:	2f 6a 6f 6e 	unknown
    17f0:	61 73 2f 73 	call  85ccd5bc <LEON_REG+0x5ccd5bc>
    17f4:	72 63 2f 74 	call  c98cd5c4 <LEON_REG+0x498cd5c4>
    17f8:	6f 6f 6c 63 	call  bdbdc984 <LEON_REG+0x3dbdc984>
    17fc:	68 61 69 6e 	call  a185bdb4 <LEON_REG+0x2185bdb4>
    1800:	73 2f 62 63 	call  ccbda18c <LEON_REG+0x4cbda18c>
    1804:	63 2f 67 63 	call  8cbdb590 <LEON_REG+0xcbdb590>
    1808:	63 2d 33 2e 	call  8cb4e4c0 <LEON_REG+0xcb4e4c0>
    180c:	34 2e 34 2f 	unknown
    1810:	6e 65 77 6c 	call  b995f5c0 <LEON_REG+0x3995f5c0>
    1814:	69 62 2f 6c 	call  a588d5c4 <LEON_REG+0x2588d5c4>
    1818:	69 62 63 2f 	call  a589a4d4 <LEON_REG+0x2589a4d4>
    181c:	69 6e 63 6c 	call  a5b9a5cc <LEON_REG+0x25b9a5cc>
    1820:	75 64 65 2f 	call  d591acdc <LEON_REG+0x5591acdc>
    1824:	72 65 65 6e 	call  c995addc <LEON_REG+0x4995addc>
    1828:	74 2e 68 00 	call  d0b9b828 <LEON_REG+0x50b9b828>
    182c:	2f 68 6f 6d 	unknown
    1830:	65 2f 6a 6f 	call  94bdc1ec <LEON_REG+0x14bdc1ec>
    1834:	6e 61 73 2f 	call  b985e4f0 <LEON_REG+0x3985e4f0>
    1838:	73 72 63 2f 	call  cdc9a4f4 <LEON_REG+0x4dc9a4f4>
    183c:	74 6f 6f 6c 	call  d1bdd5ec <LEON_REG+0x51bdd5ec>
    1840:	63 68 61 69 	call  8da19de4 <LEON_REG+0xda19de4>
    1844:	6e 73 2f 62 	call  b9ccd5cc <LEON_REG+0x39ccd5cc>
    1848:	63 63 2f 67 	call  8d8cd5e4 <LEON_REG+0xd8cd5e4>
    184c:	63 63 2d 33 	call  8d8ccd18 <LEON_REG+0xd8ccd18>
    1850:	2e 34 2e 34 	unknown
    1854:	2f 6e 65 77 	unknown
    1858:	6c 69 62 2f 	call  b1a5a114 <LEON_REG+0x31a5a114>
    185c:	6c 69 62 63 	call  b1a5a1e8 <LEON_REG+0x31a5a1e8>
    1860:	2f 69 6e 63 	unknown
    1864:	6c 75 64 65 	call  b1d5a9f8 <LEON_REG+0x31d5a9f8>
    1868:	2f 6d 61 63 	unknown
    186c:	68 69 6e 65 	call  a1a5d200 <LEON_REG+0x21a5d200>
    1870:	2f 74 79 70 	unknown
    1874:	65 73 2e 68 	call  95ccd214 <LEON_REG+0x15ccd214>
    1878:	00 5f 5f 6f 	unknown
    187c:	66 66 5f 74 	call  9999964c <LEON_REG+0x1999964c>
    1880:	3a 74 28 39 	unknown
    1884:	2c 31 29 3d 	unknown
    1888:	28 30 2c 33 	unknown
    188c:	29 00 5f 5f 	sethi  %hi(0x17d7c00), %l4
    1890:	70 69 64 5f 	call  c1a5aa0c <LEON_REG+0x41a5aa0c>
    1894:	74 3a 74 28 	call  d0e9e934 <LEON_REG+0x50e9e934>
    1898:	39 2c 32 29 	sethi  %hi(0xb0c8a400), %i4
    189c:	3d 28 30 2c 	sethi  %hi(0xa0c0b000), %fp
    18a0:	31 29 00 5f 	sethi  %hi(0xa4017c00), %i0
    18a4:	5f 6c 6f 66 	call  7db1d63c <__end+0x3d619704>
    18a8:	66 5f 74 3a 	call  997de990 <LEON_REG+0x197de990>
    18ac:	74 28 39 2c 	call  d0a0fd5c <LEON_REG+0x50a0fd5c>
    18b0:	33 29 3d 28 	sethi  %hi(0xa4f4a000), %i1
    18b4:	30 2c 36 29 	unknown
    18b8:	00 5f 5f 72 	unknown
    18bc:	65 67 69 73 	call  959dbe88 <LEON_REG+0x159dbe88>
    18c0:	74 65 72 5f 	call  d195e23c <LEON_REG+0x5195e23c>
    18c4:	65 78 69 74 	call  95e1be94 <LEON_REG+0x15e1be94>
    18c8:	70 72 6f 63 	call  c1c9d654 <LEON_REG+0x41c9d654>
    18cc:	3a 46 28 30 	unknown
    18d0:	2c 31 29 00 	unknown
    18d4:	74 79 70 65 	call  d1e5da68 <LEON_REG+0x51e5da68>
    18d8:	3a 50 28 30 	unknown
    18dc:	2c 31 29 00 	unknown
    18e0:	61 72 67 3a 	call  85c9b5c8 <LEON_REG+0x5c9b5c8>
    18e4:	50 28 34 2c 	call  40a0e994 <__end+0x50aa5c>
    18e8:	31 30 29 00 	sethi  %hi(0xc0a40000), %i0
    18ec:	64 3a 50 28 	call  90e9598c <LEON_REG+0x10e9598c>
    18f0:	34 2c 31 30 	unknown
    18f4:	29 00 61 72 	sethi  %hi(0x185c800), %l4
    18f8:	67 73 3a 72 	call  9dcd02c0 <LEON_REG+0x1dcd02c0>
    18fc:	28 30 2c 32 	unknown
    1900:	32 29 3d 2a 	unknown
    1904:	28 33 2c 36 	unknown
    1908:	29 00 70 3a 	sethi  %hi(0x1c0e800), %l4
    190c:	72 28 33 2c 	call  c8a0e5bc <LEON_REG+0x48a0e5bc>
    1910:	39 29 00 6c 	sethi  %hi(0xa401b000), %i4
    1914:	6f 63 6b 3a 	call  bd8dc5fc <LEON_REG+0x3d8dc5fc>
    1918:	53 28 35 2c 	call  4ca0edc8 <__end+0xc50ae90>
    191c:	31 29 00 2f 	sethi  %hi(0xa400bc00), %i0
    1920:	68 6f 6d 65 	call  a1bdceb4 <LEON_REG+0x21bdceb4>
    1924:	2f 6a 6f 6e 	unknown
    1928:	61 73 2f 73 	call  85ccd6f4 <LEON_REG+0x5ccd6f4>
    192c:	72 63 2f 74 	call  c98cd6fc <LEON_REG+0x498cd6fc>
    1930:	6f 6f 6c 63 	call  bdbdcabc <LEON_REG+0x3dbdcabc>
    1934:	68 61 69 6e 	call  a185beec <LEON_REG+0x2185beec>
    1938:	73 2f 62 63 	call  ccbda2c4 <LEON_REG+0x4cbda2c4>
    193c:	63 2f 67 63 	call  8cbdb6c8 <LEON_REG+0xcbdb6c8>
    1940:	63 2d 33 2e 	call  8cb4e5f8 <LEON_REG+0xcb4e5f8>
    1944:	34 2e 34 2d 	unknown
    1948:	67 63 63 2d 	call  9d8da5fc <LEON_REG+0x1d8da5fc>
    194c:	33 2e 34 2e 	sethi  %hi(0xb8d0b800), %i1
    1950:	34 2d 62 75 	unknown
    1954:	69 6c 64 2f 	call  a5b1aa10 <LEON_REG+0x25b1aa10>
    1958:	73 70 61 72 	call  cdc19f20 <LEON_REG+0x4dc19f20>
    195c:	63 2d 65 6c 	call  8cb5af0c <LEON_REG+0xcb5af0c>
    1960:	66 2f 73 6f 	call  98bde71c <LEON_REG+0x18bde71c>
    1964:	66 74 2f 6e 	call  99d0d71c <LEON_REG+0x19d0d71c>
    1968:	65 77 6c 69 	call  95ddcb0c <LEON_REG+0x15ddcb0c>
    196c:	62 2f 6c 69 	call  88bdcb10 <LEON_REG+0x8bdcb10>
    1970:	62 63 2f 72 	call  898cd738 <LEON_REG+0x98cd738>
    1974:	65 65 6e 74 	call  9595d344 <LEON_REG+0x1595d344>
    1978:	2f 00 2e 2e 	sethi  %hi(0xb8b800), %l7
    197c:	2f 2e 2e 2f 	sethi  %hi(0xb8b8bc00), %l7
    1980:	2e 2e 2f 2e 	unknown
    1984:	2e 2f 2e 2e 	unknown
    1988:	2f 2e 2e 2f 	sethi  %hi(0xb8b8bc00), %l7
    198c:	67 63 63 2d 	call  9d8da640 <LEON_REG+0x1d8da640>
    1990:	33 2e 34 2e 	sethi  %hi(0xb8d0b800), %i1
    1994:	34 2f 6e 65 	unknown
    1998:	77 6c 69 62 	call  ddb1bf20 <LEON_REG+0x5db1bf20>
    199c:	2f 6c 69 62 	unknown
    19a0:	63 2f 72 65 	call  8cbde334 <LEON_REG+0xcbde334>
    19a4:	65 6e 74 2f 	call  95b9ea60 <LEON_REG+0x15b9ea60>
    19a8:	69 6d 70 75 	call  a5b5db7c <LEON_REG+0x25b5db7c>
    19ac:	72 65 2e 63 	call  c994d338 <LEON_REG+0x4994d338>
    19b0:	00 70 74 72 	unknown
    19b4:	64 69 66 66 	call  91a5b34c <LEON_REG+0x11a5b34c>
    19b8:	5f 74 3a 74 	call  7dd10388 <__end+0x3d80c450>
    19bc:	28 38 2c 31 	unknown
    19c0:	29 3d 28 30 	sethi  %hi(0xf4a0c000), %l4
    19c4:	2c 31 29 00 	unknown
    19c8:	73 69 7a 65 	call  cda6035c <LEON_REG+0x4da6035c>
    19cc:	5f 74 3a 74 	call  7dd1039c <__end+0x3d80c464>
    19d0:	28 38 2c 32 	unknown
    19d4:	29 3d 28 30 	sethi  %hi(0xf4a0c000), %l4
    19d8:	2c 34 29 00 	unknown
    19dc:	5f 69 6d 70 	call  7da5cf9c <__end+0x3d559064>
    19e0:	75 72 65 5f 	call  d5c9af5c <LEON_REG+0x55c9af5c>
    19e4:	70 74 72 3a 	call  c1d1e2cc <LEON_REG+0x41d1e2cc>
    19e8:	47 28 32 2c 	call  1ca0e298 <_trap_table-0x23af1d68>
    19ec:	32 37 29 00 	unknown
    19f0:	5f 67 6c 6f 	call  7d9dcbac <__end+0x3d4d8c74>
    19f4:	62 61 6c 5f 	call  8985cb70 <LEON_REG+0x985cb70>
    19f8:	69 6d 70 75 	call  a5b5dbcc <LEON_REG+0x25b5dbcc>
    19fc:	72 65 5f 70 	call  c99597bc <LEON_REG+0x499597bc>
    1a00:	74 72 3a 47 	call  d1c9031c <LEON_REG+0x51c9031c>
    1a04:	28 30 2c 32 	unknown
    1a08:	32 29 3d 6b 	unknown
    1a0c:	28 32 2c 32 	unknown
    1a10:	37 29 00 69 	sethi  %hi(0xa401a400), %i3
    1a14:	6d 70 75 72 	call  b5c1efdc <LEON_REG+0x35c1efdc>
    1a18:	65 5f 64 61 	call  957dab9c <LEON_REG+0x157dab9c>
    1a1c:	74 61 3a 53 	call  d1850368 <LEON_REG+0x51850368>
    1a20:	28 32 2c 32 	unknown
    1a24:	38 29 00 2e 	unknown
    1a28:	2e 2f 2e 2e 	unknown
    1a2c:	2f 2e 2e 2f 	sethi  %hi(0xb8b8bc00), %l7
    1a30:	2e 2e 2f 2e 	unknown
    1a34:	2e 2f 2e 2e 	unknown
    1a38:	2f 67 63 63 	unknown
    1a3c:	2d 33 2e 34 	sethi  %hi(0xccb8d000), %l6
    1a40:	2e 34 2f 6e 	unknown
    1a44:	65 77 6c 69 	call  95ddcbe8 <LEON_REG+0x15ddcbe8>
    1a48:	62 2f 6c 69 	call  88bdcbec <LEON_REG+0x8bdcbec>
    1a4c:	62 63 2f 73 	call  898cd818 <LEON_REG+0x98cd818>
    1a50:	74 64 6c 69 	call  d191cbf4 <LEON_REG+0x5191cbf4>
    1a54:	62 2f 6d 61 	call  88bdcfd8 <LEON_REG+0x8bdcfd8>
    1a58:	6c 6c 6f 63 	call  b1b1d7e4 <LEON_REG+0x31b1d7e4>
    1a5c:	2e 63 00 77 	unknown
    1a60:	63 68 61 72 	call  8da1a028 <LEON_REG+0xda1a028>
    1a64:	5f 74 3a 74 	call  7dd10434 <__end+0x3d80c4fc>
    1a68:	28 31 30 2c 	unknown
    1a6c:	31 29 3d 28 	sethi  %hi(0xa4f4a000), %i0
    1a70:	30 2c 33 29 	unknown
    1a74:	00 2f 68 6f 	unimp  0xffef686f
    1a78:	6d 65 2f 6a 	call  b594d820 <LEON_REG+0x3594d820>
    1a7c:	6f 6e 61 73 	call  bdb9a048 <LEON_REG+0x3db9a048>
    1a80:	2f 73 72 63 	unknown
    1a84:	2f 74 6f 6f 	unknown
    1a88:	6c 63 68 61 	call  b18dbc0c <LEON_REG+0x318dbc0c>
    1a8c:	69 6e 73 2f 	call  a5b9e748 <LEON_REG+0x25b9e748>
    1a90:	62 63 63 2f 	call  898da74c <LEON_REG+0x98da74c>
    1a94:	67 63 63 2d 	call  9d8da748 <LEON_REG+0x1d8da748>
    1a98:	33 2e 34 2e 	sethi  %hi(0xb8d0b800), %i1
    1a9c:	34 2f 6e 65 	unknown
    1aa0:	77 6c 69 62 	call  ddb1c028 <LEON_REG+0x5db1c028>
    1aa4:	2f 6c 69 62 	unknown
    1aa8:	63 2f 69 6e 	call  8cbdc060 <LEON_REG+0xcbdc060>
    1aac:	63 6c 75 64 	call  8db1f03c <LEON_REG+0xdb1f03c>
    1ab0:	65 2f 6d 61 	call  94bdd034 <LEON_REG+0x14bdd034>
    1ab4:	6c 6c 6f 63 	call  b1b1d840 <LEON_REG+0x31b1d840>
    1ab8:	2e 68 00 6d 	unknown
    1abc:	61 6c 6c 69 	call  85b1cc60 <LEON_REG+0x5b1cc60>
    1ac0:	6e 66 6f 3a 	call  b999d7a8 <LEON_REG+0x3999d7a8>
    1ac4:	54 28 31 31 	call  50a0df88 <__end+0x1050a050>
    1ac8:	2c 31 29 3d 	unknown
    1acc:	73 34 30 61 	call  ccd0dc50 <LEON_REG+0x4cd0dc50>
    1ad0:	72 65 6e 61 	call  c995d454 <LEON_REG+0x4995d454>
    1ad4:	3a 28 30 2c 	unknown
    1ad8:	31 29 2c 30 	sethi  %hi(0xa4b0c000), %i0
    1adc:	2c 33 32 3b 	unknown
    1ae0:	6f 72 64 62 	call  bdc9ac68 <LEON_REG+0x3dc9ac68>
    1ae4:	6c 6b 73 3a 	call  b1ade7cc <LEON_REG+0x31ade7cc>
    1ae8:	28 30 2c 31 	unknown
    1aec:	29 2c 33 32 	sethi  %hi(0xb0ccc800), %l4
    1af0:	2c 33 32 3b 	unknown
    1af4:	73 6d 62 6c 	call  cdb5a4a4 <LEON_REG+0x4db5a4a4>
    1af8:	6b 73 3a 28 	call  adcd0398 <LEON_REG+0x2dcd0398>
    1afc:	30 2c 31 29 	unknown
    1b00:	2c 36 34 2c 	unknown
    1b04:	33 32 3b 68 	sethi  %hi(0xc8eda000), %i1
    1b08:	62 6c 6b 73 	call  89b1c8d4 <LEON_REG+0x9b1c8d4>
    1b0c:	3a 28 30 2c 	unknown
    1b10:	31 29 2c 39 	sethi  %hi(0xa4b0e400), %i0
    1b14:	36 2c 33 32 	unknown
    1b18:	3b 68 62 6c 	unknown
    1b1c:	6b 68 64 3a 	call  ada1ac04 <LEON_REG+0x2da1ac04>
    1b20:	28 30 2c 31 	unknown
    1b24:	29 2c 31 32 	sethi  %hi(0xb0c4c800), %l4
    1b28:	38 2c 33 32 	unknown
    1b2c:	3b 75 73 6d 	unknown
    1b30:	62 6c 6b 73 	call  89b1c8fc <LEON_REG+0x9b1c8fc>
    1b34:	3a 28 30 2c 	unknown
    1b38:	31 29 2c 31 	sethi  %hi(0xa4b0c400), %i0
    1b3c:	36 30 2c 33 	unknown
    1b40:	32 3b 66 73 	unknown
    1b44:	6d 62 6c 6b 	call  b589ccf0 <LEON_REG+0x3589ccf0>
    1b48:	73 3a 28 30 	call  cce8bc08 <LEON_REG+0x4ce8bc08>
    1b4c:	2c 31 29 2c 	unknown
    1b50:	31 39 32 2c 	sethi  %hi(0xe4c8b000), %i0
    1b54:	33 32 3b 75 	sethi  %hi(0xc8edd400), %i1
    1b58:	6f 72 64 62 	call  bdc9ace0 <LEON_REG+0x3dc9ace0>
    1b5c:	6c 6b 73 3a 	call  b1ade844 <LEON_REG+0x31ade844>
    1b60:	28 30 2c 31 	unknown
    1b64:	29 2c 32 32 	sethi  %hi(0xb0c8c800), %l4
    1b68:	34 2c 33 32 	unknown
    1b6c:	3b 66 6f 72 	unknown
    1b70:	64 62 6c 6b 	call  9189cd1c <LEON_REG+0x1189cd1c>
    1b74:	73 3a 28 30 	call  cce8bc34 <LEON_REG+0x4ce8bc34>
    1b78:	2c 31 29 2c 	unknown
    1b7c:	32 35 36 2c 	unknown
    1b80:	33 32 3b 6b 	sethi  %hi(0xc8edac00), %i1
    1b84:	65 65 70 63 	call  9595dd10 <LEON_REG+0x1595dd10>
    1b88:	6f 73 74 3a 	call  bdcdec70 <LEON_REG+0x3dcdec70>
    1b8c:	28 30 2c 31 	unknown
    1b90:	29 2c 32 38 	sethi  %hi(0xb0c8e000), %l4
    1b94:	38 2c 33 32 	unknown
    1b98:	3b 3b 00 6d 	sethi  %hi(0xec01b400), %i5
    1b9c:	61 6c 6c 6f 	call  85b1cd58 <LEON_REG+0x5b1cd58>
    1ba0:	63 3a 46 28 	call  8ce93440 <LEON_REG+0xce93440>
    1ba4:	33 2c 31 30 	sethi  %hi(0xb0c4c000), %i1
    1ba8:	29 00 6e 62 	sethi  %hi(0x1b98800), %l4
    1bac:	79 74 65 73 	call  e5d1b178 <LEON_REG+0x65d1b178>
    1bb0:	3a 50 28 38 	unknown
    1bb4:	2c 32 29 00 	unknown
    1bb8:	66 72 65 65 	call  99c9b14c <LEON_REG+0x19c9b14c>
    1bbc:	3a 46 28 30 	unknown
    1bc0:	2c 31 39 29 	unknown
    1bc4:	00 61 70 74 	unknown
    1bc8:	72 3a 50 28 	call  c8e95c68 <LEON_REG+0x48e95c68>
    1bcc:	33 2c 31 30 	sethi  %hi(0xb0c4c000), %i1
    1bd0:	29 00 2e 2e 	sethi  %hi(0xb8b800), %l4
    1bd4:	2f 2e 2e 2f 	sethi  %hi(0xb8b8bc00), %l7
    1bd8:	2e 2e 2f 2e 	unknown
    1bdc:	2e 2f 2e 2e 	unknown
    1be0:	2f 2e 2e 2f 	sethi  %hi(0xb8b8bc00), %l7
    1be4:	67 63 63 2d 	call  9d8da898 <LEON_REG+0x1d8da898>
    1be8:	33 2e 34 2e 	sethi  %hi(0xb8d0b800), %i1
    1bec:	34 2f 6e 65 	unknown
    1bf0:	77 6c 69 62 	call  ddb1c178 <LEON_REG+0x5db1c178>
    1bf4:	2f 6c 69 62 	unknown
    1bf8:	63 2f 73 74 	call  8cbde9c8 <LEON_REG+0xcbde9c8>
    1bfc:	64 6c 69 62 	call  91b1c184 <LEON_REG+0x11b1c184>
    1c00:	2f 6d 61 6c 	unknown
    1c04:	6c 6f 63 72 	call  b1bda9cc <LEON_REG+0x31bda9cc>
    1c08:	2e 63 00 2f 	unknown
    1c0c:	68 6f 6d 65 	call  a1bdd1a0 <LEON_REG+0x21bdd1a0>
    1c10:	2f 6a 6f 6e 	unknown
    1c14:	61 73 2f 73 	call  85ccd9e0 <LEON_REG+0x5ccd9e0>
    1c18:	72 63 2f 74 	call  c98cd9e8 <LEON_REG+0x498cd9e8>
    1c1c:	6f 6f 6c 63 	call  bdbdcda8 <LEON_REG+0x3dbdcda8>
    1c20:	68 61 69 6e 	call  a185c1d8 <LEON_REG+0x2185c1d8>
    1c24:	73 2f 62 63 	call  ccbda5b0 <LEON_REG+0x4cbda5b0>
    1c28:	63 2f 67 63 	call  8cbdb9b4 <LEON_REG+0xcbdb9b4>
    1c2c:	63 2d 33 2e 	call  8cb4e8e4 <LEON_REG+0xcb4e8e4>
    1c30:	34 2e 34 2f 	unknown
    1c34:	6e 65 77 6c 	call  b995f9e4 <LEON_REG+0x3995f9e4>
    1c38:	69 62 2f 6c 	call  a588d9e8 <LEON_REG+0x2588d9e8>
    1c3c:	69 62 63 2f 	call  a589a8f8 <LEON_REG+0x2589a8f8>
    1c40:	69 6e 63 6c 	call  a5b9a9f0 <LEON_REG+0x25b9a9f0>
    1c44:	75 64 65 2f 	call  d591b100 <LEON_REG+0x5591b100>
    1c48:	73 74 64 69 	call  cdd1adec <LEON_REG+0x4dd1adec>
    1c4c:	6f 2e 68 00 	call  bcb9bc4c <LEON_REG+0x3cb9bc4c>
    1c50:	2f 68 6f 6d 	unknown
    1c54:	65 2f 6a 6f 	call  94bdc610 <LEON_REG+0x14bdc610>
    1c58:	6e 61 73 2f 	call  b985e914 <LEON_REG+0x3985e914>
    1c5c:	73 72 63 2f 	call  cdc9a918 <LEON_REG+0x4dc9a918>
    1c60:	74 6f 6f 6c 	call  d1bdda10 <LEON_REG+0x51bdda10>
    1c64:	63 68 61 69 	call  8da1a208 <LEON_REG+0xda1a208>
    1c68:	6e 73 2f 62 	call  b9ccd9f0 <LEON_REG+0x39ccd9f0>
    1c6c:	63 63 2f 67 	call  8d8cda08 <LEON_REG+0xd8cda08>
    1c70:	63 63 2d 33 	call  8d8cd13c <LEON_REG+0xd8cd13c>
    1c74:	2e 34 2e 34 	unknown
    1c78:	2d 67 63 63 	unknown
    1c7c:	2d 33 2e 34 	sethi  %hi(0xccb8d000), %l6
    1c80:	2e 34 2d 62 	unknown
    1c84:	75 69 6c 64 	call  d5a5ce14 <LEON_REG+0x55a5ce14>
    1c88:	2f 67 63 63 	unknown
    1c8c:	2f 69 6e 63 	unknown
    1c90:	6c 75 64 65 	call  b1d5ae24 <LEON_REG+0x31d5ae24>
    1c94:	2f 73 74 64 	unknown
    1c98:	61 72 67 2e 	call  85c9b950 <LEON_REG+0x5c9b950>
    1c9c:	68 00 5f 5f 	call  a0019a18 <LEON_REG+0x20019a18>
    1ca0:	67 6e 75 63 	call  9db9f22c <LEON_REG+0x1db9f22c>
    1ca4:	5f 76 61 5f 	call  7dd9a220 <__end+0x3d8962e8>
    1ca8:	6c 69 73 74 	call  b1a5ea78 <LEON_REG+0x31a5ea78>
    1cac:	3a 74 28 33 	unknown
    1cb0:	2c 31 29 3d 	unknown
    1cb4:	28 30 2c 32 	unknown
    1cb8:	30 29 00 2f 	unknown
    1cbc:	68 6f 6d 65 	call  a1bdd250 <LEON_REG+0x21bdd250>
    1cc0:	2f 6a 6f 6e 	unknown
    1cc4:	61 73 2f 73 	call  85ccda90 <LEON_REG+0x5ccda90>
    1cc8:	72 63 2f 74 	call  c98cda98 <LEON_REG+0x498cda98>
    1ccc:	6f 6f 6c 63 	call  bdbdce58 <LEON_REG+0x3dbdce58>
    1cd0:	68 61 69 6e 	call  a185c288 <LEON_REG+0x2185c288>
    1cd4:	73 2f 62 63 	call  ccbda660 <LEON_REG+0x4cbda660>
    1cd8:	63 2f 67 63 	call  8cbdba64 <LEON_REG+0xcbdba64>
    1cdc:	63 2d 33 2e 	call  8cb4e994 <LEON_REG+0xcb4e994>
    1ce0:	34 2e 34 2f 	unknown
    1ce4:	6e 65 77 6c 	call  b995fa94 <LEON_REG+0x3995fa94>
    1ce8:	69 62 2f 6c 	call  a588da98 <LEON_REG+0x2588da98>
    1cec:	69 62 63 2f 	call  a589a9a8 <LEON_REG+0x2589a9a8>
    1cf0:	69 6e 63 6c 	call  a5b9aaa0 <LEON_REG+0x25b9aaa0>
    1cf4:	75 64 65 2f 	call  d591b1b0 <LEON_REG+0x5591b1b0>
    1cf8:	73 79 73 2f 	call  cde5e9b4 <LEON_REG+0x4de5e9b4>
    1cfc:	74 79 70 65 	call  d1e5de90 <LEON_REG+0x51e5de90>
    1d00:	73 2e 68 00 	call  ccb9bd00 <LEON_REG+0x4cb9bd00>
    1d04:	5f 5f 69 6e 	call  7d7dc2bc <__end+0x3d2d8384>
    1d08:	74 31 36 5f 	call  d0c4f684 <LEON_REG+0x50c4f684>
    1d0c:	74 3a 74 28 	call  d0e9edac <LEON_REG+0x50e9edac>
    1d10:	39 2c 31 29 	sethi  %hi(0xb0c4a400), %i4
    1d14:	3d 28 30 2c 	sethi  %hi(0xa0c0b000), %fp
    1d18:	38 29 00 5f 	unknown
    1d1c:	5f 75 69 6e 	call  7dd5c2d4 <__end+0x3d85839c>
    1d20:	74 31 36 5f 	call  d0c4f69c <LEON_REG+0x50c4f69c>
    1d24:	74 3a 74 28 	call  d0e9edc4 <LEON_REG+0x50e9edc4>
    1d28:	39 2c 32 29 	sethi  %hi(0xb0c8a400), %i4
    1d2c:	3d 28 30 2c 	sethi  %hi(0xa0c0b000), %fp
    1d30:	39 29 00 5f 	sethi  %hi(0xa4017c00), %i4
    1d34:	5f 69 6e 74 	call  7da5d704 <__end+0x3d5597cc>
    1d38:	33 32 5f 74 	sethi  %hi(0xc97dd000), %i1
    1d3c:	3a 74 28 39 	unknown
    1d40:	2c 33 29 3d 	unknown
    1d44:	28 30 2c 31 	unknown
    1d48:	29 00 5f 5f 	sethi  %hi(0x17d7c00), %l4
    1d4c:	75 69 6e 74 	call  d5a5d71c <LEON_REG+0x55a5d71c>
    1d50:	33 32 5f 74 	sethi  %hi(0xc97dd000), %i1
    1d54:	3a 74 28 39 	unknown
    1d58:	2c 34 29 3d 	unknown
    1d5c:	28 30 2c 34 	unknown
    1d60:	29 00 5f 5f 	sethi  %hi(0x17d7c00), %l4
    1d64:	69 6e 74 36 	call  a5b9ee3c <LEON_REG+0x25b9ee3c>
    1d68:	34 5f 74 3a 	unknown
    1d6c:	74 28 39 2c 	call  d0a1021c <LEON_REG+0x50a1021c>
    1d70:	35 29 3d 28 	sethi  %hi(0xa4f4a000), %i2
    1d74:	30 2c 36 29 	unknown
    1d78:	00 5f 5f 75 	unknown
    1d7c:	69 6e 74 36 	call  a5b9ee54 <LEON_REG+0x25b9ee54>
    1d80:	34 5f 74 3a 	unknown
    1d84:	74 28 39 2c 	call  d0a10234 <LEON_REG+0x50a10234>
    1d88:	36 29 3d 28 	unknown
    1d8c:	30 2c 37 29 	unknown
    1d90:	00 75 5f 63 	unknown
    1d94:	68 61 72 3a 	call  a185e67c <LEON_REG+0x2185e67c>
    1d98:	74 28 39 2c 	call  d0a10248 <LEON_REG+0x50a10248>
    1d9c:	37 29 3d 28 	sethi  %hi(0xa4f4a000), %i3
    1da0:	30 2c 31 31 	unknown
    1da4:	29 00 75 5f 	sethi  %hi(0x1d57c00), %l4
    1da8:	73 68 6f 72 	call  cda1db70 <LEON_REG+0x4da1db70>
    1dac:	74 3a 74 28 	call  d0e9ee4c <LEON_REG+0x50e9ee4c>
    1db0:	39 2c 38 29 	sethi  %hi(0xb0e0a400), %i4
    1db4:	3d 28 30 2c 	sethi  %hi(0xa0c0b000), %fp
    1db8:	39 29 00 75 	sethi  %hi(0xa401d400), %i4
    1dbc:	5f 69 6e 74 	call  7da5d78c <__end+0x3d559854>
    1dc0:	3a 74 28 39 	unknown
    1dc4:	2c 39 29 3d 	unknown
    1dc8:	28 30 2c 34 	unknown
    1dcc:	29 00 75 5f 	sethi  %hi(0x1d57c00), %l4
    1dd0:	6c 6f 6e 67 	call  b1bdd76c <LEON_REG+0x31bdd76c>
    1dd4:	3a 74 28 39 	unknown
    1dd8:	2c 31 30 29 	unknown
    1ddc:	3d 28 30 2c 	sethi  %hi(0xa0c0b000), %fp
    1de0:	35 29 00 75 	sethi  %hi(0xa401d400), %i2
    1de4:	73 68 6f 72 	call  cda1dbac <LEON_REG+0x4da1dbac>
    1de8:	74 3a 74 28 	call  d0e9ee88 <LEON_REG+0x50e9ee88>
    1dec:	39 2c 31 31 	sethi  %hi(0xb0c4c400), %i4
    1df0:	29 3d 28 30 	sethi  %hi(0xf4a0c000), %l4
    1df4:	2c 39 29 00 	unknown
    1df8:	75 69 6e 74 	call  d5a5d7c8 <LEON_REG+0x55a5d7c8>
    1dfc:	3a 74 28 39 	unknown
    1e00:	2c 31 32 29 	unknown
    1e04:	3d 28 30 2c 	sethi  %hi(0xa0c0b000), %fp
    1e08:	34 29 00 63 	unknown
    1e0c:	6c 6f 63 6b 	call  b1bdabb8 <LEON_REG+0x31bdabb8>
    1e10:	5f 74 3a 74 	call  7dd107e0 <__end+0x3d80c8a8>
    1e14:	28 39 2c 31 	unknown
    1e18:	33 29 3d 28 	sethi  %hi(0xa4f4a000), %i1
    1e1c:	30 2c 35 29 	unknown
    1e20:	00 74 69 6d 	unknown
    1e24:	65 5f 74 3a 	call  957def0c <LEON_REG+0x157def0c>
    1e28:	74 28 39 2c 	call  d0a102d8 <LEON_REG+0x50a102d8>
    1e2c:	31 34 29 3d 	sethi  %hi(0xd0a4f400), %i0
    1e30:	28 30 2c 33 	unknown
    1e34:	29 00 74 69 	sethi  %hi(0x1d1a400), %l4
    1e38:	6d 65 73 70 	call  b595ebf8 <LEON_REG+0x3595ebf8>
    1e3c:	65 63 3a 54 	call  958d078c <LEON_REG+0x158d078c>
    1e40:	28 39 2c 31 	unknown
    1e44:	35 29 3d 73 	sethi  %hi(0xa4f5cc00), %i2
    1e48:	38 74 76 5f 	unknown
    1e4c:	73 65 63 3a 	call  cd95ab34 <LEON_REG+0x4d95ab34>
    1e50:	28 39 2c 31 	unknown
    1e54:	34 29 2c 30 	unknown
    1e58:	2c 33 32 3b 	unknown
    1e5c:	74 76 5f 6e 	call  d1d99c14 <LEON_REG+0x51d99c14>
    1e60:	73 65 63 3a 	call  cd95ab48 <LEON_REG+0x4d95ab48>
    1e64:	28 30 2c 33 	unknown
    1e68:	29 2c 33 32 	sethi  %hi(0xb0ccc800), %l4
    1e6c:	2c 33 32 3b 	unknown
    1e70:	3b 00 69 74 	sethi  %hi(0x1a5d000), %i5
    1e74:	69 6d 65 72 	call  a5b5b43c <LEON_REG+0x25b5b43c>
    1e78:	73 70 65 63 	call  cdc1b404 <LEON_REG+0x4dc1b404>
    1e7c:	3a 54 28 39 	unknown
    1e80:	2c 31 36 29 	unknown
    1e84:	3d 73 31 36 	unknown
    1e88:	69 74 5f 69 	call  a5d19c2c <LEON_REG+0x25d19c2c>
    1e8c:	6e 74 65 72 	call  b9d1b454 <LEON_REG+0x39d1b454>
    1e90:	76 61 6c 3a 	call  d985cf78 <LEON_REG+0x5985cf78>
    1e94:	28 39 2c 31 	unknown
    1e98:	35 29 2c 30 	sethi  %hi(0xa4b0c000), %i2
    1e9c:	2c 36 34 3b 	unknown
    1ea0:	69 74 5f 76 	call  a5d19c78 <LEON_REG+0x25d19c78>
    1ea4:	61 6c 75 65 	call  85b1f438 <LEON_REG+0x5b1f438>
    1ea8:	3a 28 39 2c 	unknown
    1eac:	31 35 29 2c 	sethi  %hi(0xd4a4b000), %i0
    1eb0:	36 34 2c 36 	unknown
    1eb4:	34 3b 3b 00 	unknown
    1eb8:	64 61 64 64 	call  9185b048 <LEON_REG+0x1185b048>
    1ebc:	72 5f 74 3a 	call  c97defa4 <LEON_REG+0x497defa4>
    1ec0:	74 28 39 2c 	call  d0a10370 <LEON_REG+0x50a10370>
    1ec4:	31 37 29 3d 	sethi  %hi(0xdca4f400), %i0
    1ec8:	28 30 2c 33 	unknown
    1ecc:	29 00 63 61 	sethi  %hi(0x18d8400), %l4
    1ed0:	64 64 72 5f 	call  9191e84c <LEON_REG+0x1191e84c>
    1ed4:	74 3a 74 28 	call  d0e9ef74 <LEON_REG+0x50e9ef74>
    1ed8:	39 2c 31 38 	sethi  %hi(0xb0c4e000), %i4
    1edc:	29 3d 28 37 	sethi  %hi(0xf4a0dc00), %l4
    1ee0:	2c 36 29 00 	unknown
    1ee4:	69 6e 6f 5f 	call  a5b9dc60 <LEON_REG+0x25b9dc60>
    1ee8:	74 3a 74 28 	call  d0e9ef88 <LEON_REG+0x50e9ef88>
    1eec:	39 2c 31 39 	sethi  %hi(0xb0c4e400), %i4
    1ef0:	29 3d 28 30 	sethi  %hi(0xf4a0c000), %l4
    1ef4:	2c 35 29 00 	unknown
    1ef8:	64 65 76 5f 	call  9195f874 <LEON_REG+0x1195f874>
    1efc:	74 3a 74 28 	call  d0e9ef9c <LEON_REG+0x50e9ef9c>
    1f00:	39 2c 32 30 	sethi  %hi(0xb0c8c000), %i4
    1f04:	29 3d 28 30 	sethi  %hi(0xf4a0c000), %l4
    1f08:	2c 38 29 00 	unknown
    1f0c:	6f 66 66 5f 	call  bd99b888 <LEON_REG+0x3d99b888>
    1f10:	74 3a 74 28 	call  d0e9efb0 <LEON_REG+0x50e9efb0>
    1f14:	39 2c 32 31 	sethi  %hi(0xb0c8c400), %i4
    1f18:	29 3d 28 30 	sethi  %hi(0xf4a0c000), %l4
    1f1c:	2c 33 29 00 	unknown
    1f20:	75 69 64 5f 	call  d5a5b09c <LEON_REG+0x55a5b09c>
    1f24:	74 3a 74 28 	call  d0e9efc4 <LEON_REG+0x50e9efc4>
    1f28:	39 2c 32 32 	sethi  %hi(0xb0c8c800), %i4
    1f2c:	29 3d 28 30 	sethi  %hi(0xf4a0c000), %l4
    1f30:	2c 39 29 00 	unknown
    1f34:	67 69 64 5f 	call  9da5b0b0 <LEON_REG+0x1da5b0b0>
    1f38:	74 3a 74 28 	call  d0e9efd8 <LEON_REG+0x50e9efd8>
    1f3c:	39 2c 32 33 	sethi  %hi(0xb0c8cc00), %i4
    1f40:	29 3d 28 30 	sethi  %hi(0xf4a0c000), %l4
    1f44:	2c 39 29 00 	unknown
    1f48:	70 69 64 5f 	call  c1a5b0c4 <LEON_REG+0x41a5b0c4>
    1f4c:	74 3a 74 28 	call  d0e9efec <LEON_REG+0x50e9efec>
    1f50:	39 2c 32 34 	sethi  %hi(0xb0c8d000), %i4
    1f54:	29 3d 28 30 	sethi  %hi(0xf4a0c000), %l4
    1f58:	2c 31 29 00 	unknown
    1f5c:	6b 65 79 5f 	call  ad9604d8 <LEON_REG+0x2d9604d8>
    1f60:	74 3a 74 28 	call  d0e9f000 <LEON_REG+0x50e9f000>
    1f64:	39 2c 32 35 	sethi  %hi(0xb0c8d400), %i4
    1f68:	29 3d 28 30 	sethi  %hi(0xf4a0c000), %l4
    1f6c:	2c 33 29 00 	unknown
    1f70:	73 73 69 7a 	call  cdcdc558 <LEON_REG+0x4dcdc558>
    1f74:	65 5f 74 3a 	call  957df05c <LEON_REG+0x157df05c>
    1f78:	74 28 39 2c 	call  d0a10428 <LEON_REG+0x50a10428>
    1f7c:	32 36 29 3d 	unknown
    1f80:	28 35 2c 33 	unknown
    1f84:	29 00 6d 6f 	sethi  %hi(0x1b5bc00), %l4
    1f88:	64 65 5f 74 	call  91959d58 <LEON_REG+0x11959d58>
    1f8c:	3a 74 28 39 	unknown
    1f90:	2c 32 37 29 	unknown
    1f94:	3d 28 30 2c 	sethi  %hi(0xa0c0b000), %fp
    1f98:	39 29 00 6e 	sethi  %hi(0xa401b800), %i4
    1f9c:	6c 69 6e 6b 	call  b1a5d948 <LEON_REG+0x31a5d948>
    1fa0:	5f 74 3a 74 	call  7dd10970 <__end+0x3d80ca38>
    1fa4:	28 39 2c 32 	unknown
    1fa8:	38 29 3d 28 	unknown
    1fac:	30 2c 39 29 	unknown
    1fb0:	00 66 64 5f 	unknown
    1fb4:	6d 61 73 6b 	call  b585ed60 <LEON_REG+0x3585ed60>
    1fb8:	3a 74 28 39 	unknown
    1fbc:	2c 32 39 29 	unknown
    1fc0:	3d 28 30 2c 	sethi  %hi(0xa0c0b000), %fp
    1fc4:	33 29 00 5f 	sethi  %hi(0xa4017c00), %i1
    1fc8:	74 79 70 65 	call  d1e5e15c <LEON_REG+0x51e5e15c>
    1fcc:	73 5f 66 64 	call  cd7db95c <LEON_REG+0x4d7db95c>
    1fd0:	5f 73 65 74 	call  7dcdb5a0 <__end+0x3d7d7668>
    1fd4:	3a 54 28 39 	unknown
    1fd8:	2c 33 30 29 	unknown
    1fdc:	3d 73 38 66 	unknown
    1fe0:	64 73 5f 62 	call  91cd9d68 <LEON_REG+0x11cd9d68>
    1fe4:	69 74 73 3a 	call  a5d1eccc <LEON_REG+0x25d1eccc>
    1fe8:	28 39 2c 33 	unknown
    1fec:	31 29 3d 61 	sethi  %hi(0xa4f58400), %i0
    1ff0:	72 28 37 2c 	call  c8a0fca0 <LEON_REG+0x48a0fca0>
    1ff4:	31 34 29 3b 	sethi  %hi(0xd0a4ec00), %i0
    1ff8:	30 3b 31 3b 	unknown
    1ffc:	28 39 2c 32 	unknown
    2000:	39 29 2c 30 	sethi  %hi(0xa4b0c000), %i4
    2004:	2c 36 34 3b 	unknown
    2008:	3b 00 5f 74 	sethi  %hi(0x17dd000), %i5
    200c:	79 70 65 73 	call  e5c1b5d8 <LEON_REG+0x65c1b5d8>
    2010:	5f 66 64 5f 	call  7d99b18c <__end+0x3d497254>
    2014:	73 65 74 3a 	call  cd95f0fc <LEON_REG+0x4d95f0fc>
    2018:	74 28 39 2c 	call  d0a104c8 <LEON_REG+0x50a104c8>
    201c:	33 32 29 3d 	sethi  %hi(0xc8a4f400), %i1
    2020:	28 39 2c 33 	unknown
    2024:	30 29 00 46 	unknown
    2028:	49 4c 45 3a 	call  25313510 <_trap_table-0x1b1ecaf0>
    202c:	74 28 32 2c 	call  d0a0e8dc <LEON_REG+0x50a0e8dc>
    2030:	31 29 3d 28 	sethi  %hi(0xa4f4a000), %i0
    2034:	34 2c 32 39 	unknown
    2038:	29 00 66 70 	sethi  %hi(0x199c000), %l4
    203c:	6f 73 5f 74 	call  bdcd9e0c <LEON_REG+0x3dcd9e0c>
    2040:	3a 74 28 32 	unknown
    2044:	2c 32 29 3d 	unknown
    2048:	28 34 2c 31 	unknown
    204c:	35 29 00 6d 	sethi  %hi(0xa401b400), %i2
    2050:	61 6c 6c 69 	call  85b1d1f4 <LEON_REG+0x5b1d1f4>
    2054:	6e 66 6f 3a 	call  b999dd3c <LEON_REG+0x3999dd3c>
    2058:	54 28 30 2c 	call  50a0e108 <__end+0x1050a1d0>
    205c:	32 32 29 3d 	unknown
    2060:	73 34 30 61 	call  ccd0e1e4 <LEON_REG+0x4cd0e1e4>
    2064:	72 65 6e 61 	call  c995d9e8 <LEON_REG+0x4995d9e8>
    2068:	3a 28 30 2c 	unknown
    206c:	31 29 2c 30 	sethi  %hi(0xa4b0c000), %i0
    2070:	2c 33 32 3b 	unknown
    2074:	6f 72 64 62 	call  bdc9b1fc <LEON_REG+0x3dc9b1fc>
    2078:	6c 6b 73 3a 	call  b1aded60 <LEON_REG+0x31aded60>
    207c:	28 30 2c 31 	unknown
    2080:	29 2c 33 32 	sethi  %hi(0xb0ccc800), %l4
    2084:	2c 33 32 3b 	unknown
    2088:	73 6d 62 6c 	call  cdb5aa38 <LEON_REG+0x4db5aa38>
    208c:	6b 73 3a 28 	call  adcd092c <LEON_REG+0x2dcd092c>
    2090:	30 2c 31 29 	unknown
    2094:	2c 36 34 2c 	unknown
    2098:	33 32 3b 68 	sethi  %hi(0xc8eda000), %i1
    209c:	62 6c 6b 73 	call  89b1ce68 <LEON_REG+0x9b1ce68>
    20a0:	3a 28 30 2c 	unknown
    20a4:	31 29 2c 39 	sethi  %hi(0xa4b0e400), %i0
    20a8:	36 2c 33 32 	unknown
    20ac:	3b 68 62 6c 	unknown
    20b0:	6b 68 64 3a 	call  ada1b198 <LEON_REG+0x2da1b198>
    20b4:	28 30 2c 31 	unknown
    20b8:	29 2c 31 32 	sethi  %hi(0xb0c4c800), %l4
    20bc:	38 2c 33 32 	unknown
    20c0:	3b 75 73 6d 	unknown
    20c4:	62 6c 6b 73 	call  89b1ce90 <LEON_REG+0x9b1ce90>
    20c8:	3a 28 30 2c 	unknown
    20cc:	31 29 2c 31 	sethi  %hi(0xa4b0c400), %i0
    20d0:	36 30 2c 33 	unknown
    20d4:	32 3b 66 73 	unknown
    20d8:	6d 62 6c 6b 	call  b589d284 <LEON_REG+0x3589d284>
    20dc:	73 3a 28 30 	call  cce8c19c <LEON_REG+0x4ce8c19c>
    20e0:	2c 31 29 2c 	unknown
    20e4:	31 39 32 2c 	sethi  %hi(0xe4c8b000), %i0
    20e8:	33 32 3b 75 	sethi  %hi(0xc8edd400), %i1
    20ec:	6f 72 64 62 	call  bdc9b274 <LEON_REG+0x3dc9b274>
    20f0:	6c 6b 73 3a 	call  b1adedd8 <LEON_REG+0x31adedd8>
    20f4:	28 30 2c 31 	unknown
    20f8:	29 2c 32 32 	sethi  %hi(0xb0c8c800), %l4
    20fc:	34 2c 33 32 	unknown
    2100:	3b 66 6f 72 	unknown
    2104:	64 62 6c 6b 	call  9189d2b0 <LEON_REG+0x1189d2b0>
    2108:	73 3a 28 30 	call  cce8c1c8 <LEON_REG+0x4ce8c1c8>
    210c:	2c 31 29 2c 	unknown
    2110:	32 35 36 2c 	unknown
    2114:	33 32 3b 6b 	sethi  %hi(0xc8edac00), %i1
    2118:	65 65 70 63 	call  9595e2a4 <LEON_REG+0x1595e2a4>
    211c:	6f 73 74 3a 	call  bdcdf204 <LEON_REG+0x3dcdf204>
    2120:	28 30 2c 31 	unknown
    2124:	29 2c 32 38 	sethi  %hi(0xb0c8e000), %l4
    2128:	38 2c 33 32 	unknown
    212c:	3b 3b 00 6d 	sethi  %hi(0xec01b400), %i5
    2130:	61 6c 6c 6f 	call  85b1d2ec <LEON_REG+0x5b1d2ec>
    2134:	63 5f 63 68 	call  8d7daed4 <LEON_REG+0xd7daed4>
    2138:	75 6e 6b 3a 	call  d5b9ce20 <LEON_REG+0x55b9ce20>
    213c:	54 28 30 2c 	call  50a0e1ec <__end+0x1050a2b4>
    2140:	32 33 29 3d 	unknown
    2144:	73 31 36 70 	call  ccc4fb04 <LEON_REG+0x4cc4fb04>
    2148:	72 65 76 5f 	call  c995fac4 <LEON_REG+0x4995fac4>
    214c:	73 69 7a 65 	call  cda60ae0 <LEON_REG+0x4da60ae0>
    2150:	3a 28 31 2c 	unknown
    2154:	32 29 2c 30 	unknown
    2158:	2c 33 32 3b 	unknown
    215c:	73 69 7a 65 	call  cda60af0 <LEON_REG+0x4da60af0>
    2160:	3a 28 31 2c 	unknown
    2164:	32 29 2c 33 	unknown
    2168:	32 2c 33 32 	unknown
    216c:	3b 66 64 3a 	unknown
    2170:	28 30 2c 32 	unknown
    2174:	34 29 3d 2a 	unknown
    2178:	28 30 2c 32 	unknown
    217c:	33 29 2c 36 	sethi  %hi(0xa4b0d800), %i1
    2180:	34 2c 33 32 	unknown
    2184:	3b 62 6b 3a 	unknown
    2188:	28 30 2c 32 	unknown
    218c:	34 29 2c 39 	unknown
    2190:	36 2c 33 32 	unknown
    2194:	3b 3b 00 6d 	sethi  %hi(0xec01b400), %i5
    2198:	63 68 75 6e 	call  8da1f750 <LEON_REG+0xda1f750>
    219c:	6b 70 74 72 	call  adc1f364 <LEON_REG+0x2dc1f364>
    21a0:	3a 74 28 30 	unknown
    21a4:	2c 32 35 29 	unknown
    21a8:	3d 28 30 2c 	sethi  %hi(0xa0c0b000), %fp
    21ac:	32 34 29 00 	unknown
    21b0:	6d 62 69 6e 	call  b589c768 <LEON_REG+0x3589c768>
    21b4:	70 74 72 3a 	call  c1d1ea9c <LEON_REG+0x41d1ea9c>
    21b8:	74 28 30 2c 	call  d0a0e268 <LEON_REG+0x50a0e268>
    21bc:	32 36 29 3d 	unknown
    21c0:	28 30 2c 32 	unknown
    21c4:	34 29 00 5f 	unknown
    21c8:	6d 61 6c 6c 	call  b585d378 <LEON_REG+0x3585d378>
    21cc:	6f 63 5f 72 	call  bd8d9f94 <LEON_REG+0x3d8d9f94>
    21d0:	3a 46 28 35 	unknown
    21d4:	2c 31 30 29 	unknown
    21d8:	00 72 65 65 	unknown
    21dc:	6e 74 5f 70 	call  b9d19f9c <LEON_REG+0x39d19f9c>
    21e0:	74 72 3a 50 	call  d1c90b20 <LEON_REG+0x51c90b20>
    21e4:	28 34 2c 32 	unknown
    21e8:	37 29 00 62 	sethi  %hi(0xa4018800), %i3
    21ec:	79 74 65 73 	call  e5d1b7b8 <LEON_REG+0x65d1b7b8>
    21f0:	3a 50 28 31 	unknown
    21f4:	2c 32 29 00 	unknown
    21f8:	76 69 63 74 	call  d9a5afc8 <LEON_REG+0x59a5afc8>
    21fc:	69 6d 3a 72 	call  a5b50bc4 <LEON_REG+0x25b50bc4>
    2200:	28 30 2c 32 	unknown
    2204:	35 29 00 76 	sethi  %hi(0xa401d800), %i2
    2208:	69 63 74 69 	call  a58df3ac <LEON_REG+0x258df3ac>
    220c:	6d 5f 73 69 	call  b57defb0 <LEON_REG+0x357defb0>
    2210:	7a 65 3a 72 	call  e9950bd8 <LEON_REG+0x69950bd8>
    2214:	28 31 2c 32 	unknown
    2218:	29 00 69 64 	sethi  %hi(0x1a59000), %l4
    221c:	78 3a 72 28 	call  e0e9eabc <LEON_REG+0x60e9eabc>
    2220:	30 2c 31 29 	unknown
    2224:	00 62 69 6e 	unknown
    2228:	3a 72 28 30 	unknown
    222c:	2c 32 36 29 	unknown
    2230:	00 72 65 6d 	unknown
    2234:	61 69 6e 64 	call  85a5dbc4 <LEON_REG+0x5a5dbc4>
    2238:	65 72 3a 72 	call  95c90c00 <LEON_REG+0x15c90c00>
    223c:	28 30 2c 32 	unknown
    2240:	35 29 00 72 	sethi  %hi(0xa401c800), %i2
    2244:	65 6d 61 69 	call  95b5a7e8 <LEON_REG+0x15b5a7e8>
    2248:	6e 64 65 72 	call  b991b810 <LEON_REG+0x3991b810>
    224c:	5f 73 69 7a 	call  7dcdc834 <__end+0x3d7d88fc>
    2250:	65 3a 72 28 	call  94e9eaf0 <LEON_REG+0x14e9eaf0>
    2254:	30 2c 33 29 	unknown
    2258:	00 72 65 6d 	unknown
    225c:	61 69 6e 64 	call  85a5dbec <LEON_REG+0x5a5dbec>
    2260:	65 72 5f 69 	call  95c9a004 <LEON_REG+0x15c9a004>
    2264:	6e 64 65 78 	call  b991b844 <LEON_REG+0x3991b844>
    2268:	3a 72 28 30 	unknown
    226c:	2c 31 29 00 	unknown
    2270:	62 6c 6f 63 	call  89b1dffc <LEON_REG+0x9b1dffc>
    2274:	6b 3a 72 28 	call  ace9eb14 <LEON_REG+0x2ce9eb14>
    2278:	30 2c 35 29 	unknown
    227c:	00 73 74 61 	unknown
    2280:	72 74 69 64 	call  c9d1c810 <LEON_REG+0x49d1c810>
    2284:	78 3a 72 28 	call  e0e9eb24 <LEON_REG+0x60e9eb24>
    2288:	30 2c 31 29 	unknown
    228c:	00 66 77 64 	unknown
    2290:	3a 72 28 30 	unknown
    2294:	2c 32 35 29 	unknown
    2298:	00 62 63 6b 	unknown
    229c:	3a 72 28 30 	unknown
    22a0:	2c 32 35 29 	unknown
    22a4:	00 71 3a 72 	unknown
    22a8:	28 30 2c 32 	unknown
    22ac:	36 29 00 6e 	unknown
    22b0:	62 3a 72 28 	call  88e9eb50 <LEON_REG+0x8e9eb50>
    22b4:	31 2c 32 29 	sethi  %hi(0xb0c8a400), %i0
    22b8:	00 62 72 6b 	unknown
    22bc:	3a 72 28 37 	unknown
    22c0:	2c 36 29 00 	unknown
    22c4:	66 72 6f 6e 	call  99c9e07c <LEON_REG+0x19c9e07c>
    22c8:	74 5f 6d 69 	call  d17dd86c <LEON_REG+0x517dd86c>
    22cc:	73 61 6c 69 	call  cd85d470 <LEON_REG+0x4d85d470>
    22d0:	67 6e 3a 72 	call  9db90c98 <LEON_REG+0x1db90c98>
    22d4:	28 31 2c 32 	unknown
    22d8:	29 00 63 6f 	sethi  %hi(0x18dbc00), %l4
    22dc:	72 72 65 63 	call  c9c9b868 <LEON_REG+0x49c9b868>
    22e0:	74 69 6f 6e 	call  d1a5e098 <LEON_REG+0x51a5e098>
    22e4:	3a 72 28 31 	unknown
    22e8:	2c 32 29 00 	unknown
    22ec:	6e 65 77 5f 	call  b9960068 <LEON_REG+0x39960068>
    22f0:	62 72 6b 3a 	call  89c9cfd8 <LEON_REG+0x9c9cfd8>
    22f4:	72 28 37 2c 	call  c8a0ffa4 <LEON_REG+0x48a0ffa4>
    22f8:	36 29 00 74 	unknown
    22fc:	6f 70 5f 73 	call  bdc1a0c8 <LEON_REG+0x3dc1a0c8>
    2300:	69 7a 65 3a 	call  a5e9b7e8 <LEON_REG+0x25e9b7e8>
    2304:	72 28 31 2c 	call  c8a0e7b4 <LEON_REG+0x48a0e7b4>
    2308:	32 29 00 6f 	unknown
    230c:	6c 64 5f 74 	call  b191a0dc <LEON_REG+0x3191a0dc>
    2310:	6f 70 5f 73 	call  bdc1a0dc <LEON_REG+0x3dc1a0dc>
    2314:	69 7a 65 3a 	call  a5e9b7fc <LEON_REG+0x25e9b7fc>
    2318:	72 28 31 2c 	call  c8a0e7c8 <LEON_REG+0x48a0e7c8>
    231c:	32 29 00 6f 	unknown
    2320:	6c 64 5f 65 	call  b191a0b4 <LEON_REG+0x3191a0b4>
    2324:	6e 64 3a 72 	call  b9910cec <LEON_REG+0x39910cec>
    2328:	28 37 2c 36 	unknown
    232c:	29 00 73 62 	sethi  %hi(0x1cd8800), %l4
    2330:	72 6b 5f 73 	call  c9ada0fc <LEON_REG+0x49ada0fc>
    2334:	69 7a 65 3a 	call  a5e9b81c <LEON_REG+0x25e9b81c>
    2338:	72 28 31 2c 	call  c8a0e7e8 <LEON_REG+0x48a0e7e8>
    233c:	32 29 00 70 	unknown
    2340:	61 67 65 73 	call  859db90c <LEON_REG+0x59db90c>
    2344:	7a 3a 72 28 	call  e8e9ebe4 <LEON_REG+0x68e9ebe4>
    2348:	30 2c 35 29 	unknown
    234c:	00 5f 5f 6d 	unknown
    2350:	61 6c 6c 6f 	call  85b1d50c <LEON_REG+0x5b1d50c>
    2354:	63 5f 61 76 	call  8d7da92c <LEON_REG+0xd7da92c>
    2358:	5f 3a 47 28 	call  7ce93ff8 <__end+0x3c9900c0>
    235c:	30 2c 32 37 	unknown
    2360:	29 3d 61 72 	sethi  %hi(0xf585c800), %l4
    2364:	28 37 2c 31 	unknown
    2368:	34 29 3b 30 	unknown
    236c:	3b 32 35 37 	sethi  %hi(0xc8d4dc00), %i5
    2370:	3b 28 30 2c 	sethi  %hi(0xa0c0b000), %i5
    2374:	32 36 29 00 	unknown
    2378:	5f 5f 6d 61 	call  7d7dd8fc <__end+0x3d2d99c4>
    237c:	6c 6c 6f 63 	call  b1b1e108 <LEON_REG+0x31b1e108>
    2380:	5f 74 72 69 	call  7dd1ed24 <__end+0x3d81adec>
    2384:	6d 5f 74 68 	call  b57df524 <LEON_REG+0x357df524>
    2388:	72 65 73 68 	call  c995f128 <LEON_REG+0x4995f128>
    238c:	6f 6c 64 3a 	call  bdb1b474 <LEON_REG+0x3db1b474>
    2390:	47 28 30 2c 	call  1ca0e440 <_trap_table-0x23af1bc0>
    2394:	35 29 00 5f 	sethi  %hi(0xa4017c00), %i2
    2398:	5f 6d 61 6c 	call  7db5a948 <__end+0x3d656a10>
    239c:	6c 6f 63 5f 	call  b1bdb118 <LEON_REG+0x31bdb118>
    23a0:	74 6f 70 5f 	call  d1bde51c <LEON_REG+0x51bde51c>
    23a4:	70 61 64 3a 	call  c185b48c <LEON_REG+0x4185b48c>
    23a8:	47 28 30 2c 	call  1ca0e458 <_trap_table-0x23af1ba8>
    23ac:	35 29 00 5f 	sethi  %hi(0xa4017c00), %i2
    23b0:	5f 6d 61 6c 	call  7db5a960 <__end+0x3d656a28>
    23b4:	6c 6f 63 5f 	call  b1bdb130 <LEON_REG+0x31bdb130>
    23b8:	73 62 72 6b 	call  cd89ed64 <LEON_REG+0x4d89ed64>
    23bc:	5f 62 61 73 	call  7d89a988 <__end+0x3d396a50>
    23c0:	65 3a 47 28 	call  94e94060 <LEON_REG+0x14e94060>
    23c4:	37 2c 36 29 	sethi  %hi(0xb0d8a400), %i3
    23c8:	00 5f 5f 6d 	unknown
    23cc:	61 6c 6c 6f 	call  85b1d588 <LEON_REG+0x5b1d588>
    23d0:	63 5f 6d 61 	call  8d7dd954 <LEON_REG+0xd7dd954>
    23d4:	78 5f 73 62 	call  e17df15c <LEON_REG+0x617df15c>
    23d8:	72 6b 65 64 	call  c9adb968 <LEON_REG+0x49adb968>
    23dc:	5f 6d 65 6d 	call  7db5b990 <__end+0x3d657a58>
    23e0:	3a 47 28 30 	unknown
    23e4:	2c 35 29 00 	unknown
    23e8:	5f 5f 6d 61 	call  7d7dd96c <__end+0x3d2d9a34>
    23ec:	6c 6c 6f 63 	call  b1b1e178 <LEON_REG+0x31b1e178>
    23f0:	5f 6d 61 78 	call  7db5a9d0 <__end+0x3d656a98>
    23f4:	5f 74 6f 74 	call  7dd1e1c4 <__end+0x3d81a28c>
    23f8:	61 6c 5f 6d 	call  85b1a1ac <LEON_REG+0x5b1a1ac>
    23fc:	65 6d 3a 47 	call  95b50d18 <LEON_REG+0x15b50d18>
    2400:	28 30 2c 35 	unknown
    2404:	29 00 5f 5f 	sethi  %hi(0x17d7c00), %l4
    2408:	6d 61 6c 6c 	call  b585d5b8 <LEON_REG+0x3585d5b8>
    240c:	6f 63 5f 63 	call  bd8da198 <LEON_REG+0x3d8da198>
    2410:	75 72 72 65 	call  d5c9eda4 <LEON_REG+0x55c9eda4>
    2414:	6e 74 5f 6d 	call  b9d1a1c8 <LEON_REG+0x39d1a1c8>
    2418:	61 6c 6c 69 	call  85b1d5bc <LEON_REG+0x5b1d5bc>
    241c:	6e 66 6f 3a 	call  b999e104 <LEON_REG+0x3999e104>
    2420:	47 28 30 2c 	call  1ca0e4d0 <_trap_table-0x23af1b30>
    2424:	32 32 29 00 	unknown
    2428:	2e 2e 2f 2e 	unknown
    242c:	2e 2f 2e 2e 	unknown
    2430:	2f 2e 2e 2f 	sethi  %hi(0xb8b8bc00), %l7
    2434:	2e 2e 2f 2e 	unknown
    2438:	2e 2f 67 63 	unknown
    243c:	63 2d 33 2e 	call  8cb4f0f4 <LEON_REG+0xcb4f0f4>
    2440:	34 2e 34 2f 	unknown
    2444:	6e 65 77 6c 	call  b99601f4 <LEON_REG+0x399601f4>
    2448:	69 62 2f 6c 	call  a588e1f8 <LEON_REG+0x2588e1f8>
    244c:	69 62 63 2f 	call  a589b108 <LEON_REG+0x2589b108>
    2450:	73 74 64 6c 	call  cdd1b600 <LEON_REG+0x4dd1b600>
    2454:	69 62 2f 6d 	call  a588e208 <LEON_REG+0x2588e208>
    2458:	6c 6f 63 6b 	call  b1bdb204 <LEON_REG+0x31bdb204>
    245c:	2e 63 00 73 	unknown
    2460:	69 7a 65 5f 	call  a5e9b9dc <LEON_REG+0x25e9b9dc>
    2464:	74 3a 74 28 	call  d0e9f504 <LEON_REG+0x50e9f504>
    2468:	37 2c 31 29 	sethi  %hi(0xb0c4a400), %i3
    246c:	3d 28 30 2c 	sethi  %hi(0xa0c0b000), %fp
    2470:	34 29 00 5f 	unknown
    2474:	5f 6d 61 6c 	call  7db5aa24 <__end+0x3d656aec>
    2478:	6c 6f 63 5f 	call  b1bdb1f4 <LEON_REG+0x31bdb1f4>
    247c:	6c 6f 63 6b 	call  b1bdb228 <LEON_REG+0x31bdb228>
    2480:	3a 46 28 30 	unknown
    2484:	2c 31 39 29 	unknown
    2488:	00 70 74 72 	unknown
    248c:	3a 50 28 32 	unknown
    2490:	2c 32 37 29 	unknown
    2494:	00 5f 5f 6d 	unknown
    2498:	61 6c 6c 6f 	call  85b1d654 <LEON_REG+0x5b1d654>
    249c:	63 5f 75 6e 	call  8d7dfa54 <LEON_REG+0xd7dfa54>
    24a0:	6c 6f 63 6b 	call  b1bdb24c <LEON_REG+0x31bdb24c>
    24a4:	3a 46 28 30 	unknown
    24a8:	2c 31 39 29 	unknown
    24ac:	00 5f 5f 6d 	unknown
    24b0:	61 6c 6c 6f 	call  85b1d66c <LEON_REG+0x5b1d66c>
    24b4:	63 5f 6c 6f 	call  8d7dd670 <LEON_REG+0xd7dd670>
    24b8:	63 6b 5f 6f 	call  8dada274 <LEON_REG+0xdada274>
    24bc:	62 6a 65 63 	call  89a9ba48 <LEON_REG+0x9a9ba48>
    24c0:	74 3a 53 28 	call  d0e97160 <LEON_REG+0x50e97160>
    24c4:	34 2c 32 29 	unknown
    24c8:	00 2e 2e 2f 	unimp  0xffee2e2f
    24cc:	2e 2e 2f 2e 	unknown
    24d0:	2e 2f 2e 2e 	unknown
    24d4:	2f 2e 2e 2f 	sethi  %hi(0xb8b8bc00), %l7
    24d8:	2e 2e 2f 67 	unknown
    24dc:	63 63 2d 33 	call  8d8cd9a8 <LEON_REG+0xd8cd9a8>
    24e0:	2e 34 2e 34 	unknown
    24e4:	2f 6e 65 77 	unknown
    24e8:	6c 69 62 2f 	call  b1a5ada4 <LEON_REG+0x31a5ada4>
    24ec:	6c 69 62 63 	call  b1a5ae78 <LEON_REG+0x31a5ae78>
    24f0:	2f 72 65 65 	unknown
    24f4:	6e 74 2f 73 	call  b9d0e2c0 <LEON_REG+0x39d0e2c0>
    24f8:	62 72 6b 72 	call  89c9d2c0 <LEON_REG+0x9c9d2c0>
    24fc:	2e 63 00 2f 	unknown
    2500:	68 6f 6d 65 	call  a1bdda94 <LEON_REG+0x21bdda94>
    2504:	2f 6a 6f 6e 	unknown
    2508:	61 73 2f 73 	call  85cce2d4 <LEON_REG+0x5cce2d4>
    250c:	72 63 2f 74 	call  c98ce2dc <LEON_REG+0x498ce2dc>
    2510:	6f 6f 6c 63 	call  bdbdd69c <LEON_REG+0x3dbdd69c>
    2514:	68 61 69 6e 	call  a185cacc <LEON_REG+0x2185cacc>
    2518:	73 2f 62 63 	call  ccbdaea4 <LEON_REG+0x4cbdaea4>
    251c:	63 2f 67 63 	call  8cbdc2a8 <LEON_REG+0xcbdc2a8>
    2520:	63 2d 33 2e 	call  8cb4f1d8 <LEON_REG+0xcb4f1d8>
    2524:	34 2e 34 2f 	unknown
    2528:	6e 65 77 6c 	call  b99602d8 <LEON_REG+0x399602d8>
    252c:	69 62 2f 6c 	call  a588e2dc <LEON_REG+0x2588e2dc>
    2530:	69 62 63 2f 	call  a589b1ec <LEON_REG+0x2589b1ec>
    2534:	69 6e 63 6c 	call  a5b9b2e4 <LEON_REG+0x25b9b2e4>
    2538:	75 64 65 2f 	call  d591b9f4 <LEON_REG+0x5591b9f4>
    253c:	75 6e 69 73 	call  d5b9cb08 <LEON_REG+0x55b9cb08>
    2540:	74 64 2e 68 	call  d190dee0 <LEON_REG+0x5190dee0>
    2544:	00 2f 68 6f 	unimp  0xffef686f
    2548:	6d 65 2f 6a 	call  b594e2f0 <LEON_REG+0x3594e2f0>
    254c:	6f 6e 61 73 	call  bdb9ab18 <LEON_REG+0x3db9ab18>
    2550:	2f 73 72 63 	unknown
    2554:	2f 74 6f 6f 	unknown
    2558:	6c 63 68 61 	call  b18dc6dc <LEON_REG+0x318dc6dc>
    255c:	69 6e 73 2f 	call  a5b9f218 <LEON_REG+0x25b9f218>
    2560:	62 63 63 2f 	call  898db21c <LEON_REG+0x98db21c>
    2564:	67 63 63 2d 	call  9d8db218 <LEON_REG+0x1d8db218>
    2568:	33 2e 34 2e 	sethi  %hi(0xb8d0b800), %i1
    256c:	34 2f 6e 65 	unknown
    2570:	77 6c 69 62 	call  ddb1caf8 <LEON_REG+0x5db1caf8>
    2574:	2f 6c 69 62 	unknown
    2578:	63 2f 69 6e 	call  8cbdcb30 <LEON_REG+0xcbdcb30>
    257c:	63 6c 75 64 	call  8db1fb0c <LEON_REG+0xdb1fb0c>
    2580:	65 2f 73 79 	call  94bdf364 <LEON_REG+0x14bdf364>
    2584:	73 2f 75 6e 	call  ccbdfb3c <LEON_REG+0x4cbdfb3c>
    2588:	69 73 74 64 	call  a5cdf718 <LEON_REG+0x25cdf718>
    258c:	2e 68 00 5f 	unknown
    2590:	73 62 72 6b 	call  cd89ef3c <LEON_REG+0x4d89ef3c>
    2594:	5f 72 3a 46 	call  7dc90eac <__end+0x3d78cf74>
    2598:	28 33 2c 31 	unknown
    259c:	30 29 00 69 	unknown
    25a0:	6e 63 72 3a 	call  b98dee88 <LEON_REG+0x398dee88>
    25a4:	50 28 38 2c 	call  40a10654 <__end+0x50c71c>
    25a8:	31 29 00 72 	sethi  %hi(0xa401c800), %i0
    25ac:	65 74 3a 72 	call  95d10f74 <LEON_REG+0x15d10f74>
    25b0:	28 35 2c 36 	unknown
    25b4:	29 00 5f 6d 	sethi  %hi(0x17db400), %l4
    25b8:	61 6c 6c 6f 	call  85b1d774 <LEON_REG+0x5b1d774>
    25bc:	63 5f 74 72 	call  8d7df784 <LEON_REG+0xd7df784>
    25c0:	69 6d 5f 72 	call  a5b5a388 <LEON_REG+0x25b5a388>
    25c4:	3a 46 28 30 	unknown
    25c8:	2c 31 29 00 	unknown
    25cc:	70 61 64 3a 	call  c185b6b4 <LEON_REG+0x4185b6b4>
    25d0:	50 28 31 2c 	call  40a0ea80 <__end+0x50ab48>
    25d4:	32 29 00 74 	unknown
    25d8:	6f 70 5f 73 	call  bdc1a3a4 <LEON_REG+0x3dc1a3a4>
    25dc:	69 7a 65 3a 	call  a5e9bac4 <LEON_REG+0x25e9bac4>
    25e0:	72 28 30 2c 	call  c8a0e690 <LEON_REG+0x48a0e690>
    25e4:	33 29 00 65 	sethi  %hi(0xa4019400), %i1
    25e8:	78 74 72 61 	call  e1d1ef6c <LEON_REG+0x61d1ef6c>
    25ec:	3a 72 28 30 	unknown
    25f0:	2c 33 29 00 	unknown
    25f4:	63 75 72 72 	call  8dd5efbc <LEON_REG+0xdd5efbc>
    25f8:	65 6e 74 5f 	call  95b9f774 <LEON_REG+0x15b9f774>
    25fc:	62 72 6b 3a 	call  89c9d2e4 <LEON_REG+0x9c9d2e4>
    2600:	72 28 37 2c 	call  c8a102b0 <LEON_REG+0x48a102b0>
    2604:	36 29 00 5f 	unknown
    2608:	66 72 65 65 	call  99c9bb9c <LEON_REG+0x19c9bb9c>
    260c:	5f 72 3a 46 	call  7dc90f24 <__end+0x3d78cfec>
    2610:	28 30 2c 31 	unknown
    2614:	39 29 00 6d 	sethi  %hi(0xa401b400), %i4
    2618:	65 6d 3a 50 	call  95b50f58 <LEON_REG+0x15b50f58>
    261c:	28 35 2c 31 	unknown
    2620:	30 29 00 70 	unknown
    2624:	3a 72 28 30 	unknown
    2628:	2c 32 35 29 	unknown
    262c:	00 68 64 3a 	unknown
    2630:	72 28 31 2c 	call  c8a0eae0 <LEON_REG+0x48a0eae0>
    2634:	32 29 00 73 	unknown
    2638:	7a 3a 72 28 	call  e8e9eed8 <LEON_REG+0x68e9eed8>
    263c:	31 2c 32 29 	sethi  %hi(0xb0c8a400), %i0
    2640:	00 6e 65 78 	unknown
    2644:	74 3a 72 28 	call  d0e9eee4 <LEON_REG+0x50e9eee4>
    2648:	30 2c 32 35 	unknown
    264c:	29 00 6e 65 	sethi  %hi(0x1b99400), %l4
    2650:	78 74 73 7a 	call  e1d1f438 <LEON_REG+0x61d1f438>
    2654:	3a 72 28 31 	unknown
    2658:	2c 32 29 00 	unknown
    265c:	70 72 65 76 	call  c1c9bc34 <LEON_REG+0x41c9bc34>
    2660:	73 7a 3a 72 	call  cde91028 <LEON_REG+0x4de91028>
    2664:	28 31 2c 32 	unknown
    2668:	29 00 69 73 	sethi  %hi(0x1a5cc00), %l4
    266c:	6c 72 3a 72 	call  b1c91034 <LEON_REG+0x31c91034>
    2670:	28 30 2c 31 	unknown
    2674:	29 00 2e 2e 	sethi  %hi(0xb8b800), %l4
    2678:	2f 2e 2e 2f 	sethi  %hi(0xb8b8bc00), %l7
    267c:	2e 2e 2f 2e 	unknown
    2680:	2e 2f 2e 2e 	unknown
    2684:	2f 2e 2e 2f 	sethi  %hi(0xb8b8bc00), %l7
    2688:	67 63 63 2d 	call  9d8db33c <LEON_REG+0x1d8db33c>
    268c:	33 2e 34 2e 	sethi  %hi(0xb8d0b800), %i1
    2690:	34 2f 6e 65 	unknown
    2694:	77 6c 69 62 	call  ddb1cc1c <LEON_REG+0x5db1cc1c>
    2698:	2f 6c 69 62 	unknown
    269c:	63 2f 72 65 	call  8cbdf030 <LEON_REG+0xcbdf030>
    26a0:	65 6e 74 2f 	call  95b9f75c <LEON_REG+0x15b9f75c>
    26a4:	72 65 65 6e 	call  c995bc5c <LEON_REG+0x4995bc5c>
    26a8:	74 2e 63 00 	call  d0b9b2a8 <LEON_REG+0x50b9b2a8>
    26ac:	70 74 72 64 	call  c1d1f03c <LEON_REG+0x41d1f03c>
    26b0:	69 66 66 5f 	call  a599c02c <LEON_REG+0x2599c02c>
    26b4:	74 3a 74 28 	call  d0e9f754 <LEON_REG+0x50e9f754>
    26b8:	31 30 2c 31 	sethi  %hi(0xc0b0c400), %i0
    26bc:	29 3d 28 30 	sethi  %hi(0xf4a0c000), %l4
    26c0:	2c 31 29 00 	unknown
    26c4:	63 6c 65 61 	call  8db1bc48 <LEON_REG+0xdb1bc48>
    26c8:	6e 75 70 5f 	call  b9d5e844 <LEON_REG+0x39d5e844>
    26cc:	67 6c 75 65 	call  9db1fc60 <LEON_REG+0x1db1fc60>
    26d0:	3a 46 28 30 	unknown
    26d4:	2c 31 39 29 	unknown
    26d8:	00 70 74 72 	unknown
    26dc:	3a 50 28 33 	unknown
    26e0:	2c 32 37 29 	unknown
    26e4:	00 67 6c 75 	unknown
    26e8:	65 3a 50 28 	call  94e96788 <LEON_REG+0x14e96788>
    26ec:	33 2c 33 31 	sethi  %hi(0xb0ccc400), %i1
    26f0:	29 00 5f 72 	sethi  %hi(0x17dc800), %l4
    26f4:	65 63 6c 61 	call  958dd878 <LEON_REG+0x158dd878>
    26f8:	69 6d 5f 72 	call  a5b5a4c0 <LEON_REG+0x25b5a4c0>
    26fc:	65 65 6e 74 	call  9595e0cc <LEON_REG+0x1595e0cc>
    2700:	3a 46 28 30 	unknown
    2704:	2c 31 39 29 	unknown
    2708:	00 71 3a 72 	unknown
    270c:	28 33 2c 39 	unknown
    2710:	29 00 69 3a 	sethi  %hi(0x1a4e800), %l4
    2714:	72 28 30 2c 	call  c8a0e7c4 <LEON_REG+0x48a0e7c4>
    2718:	31 29 00 74 	sethi  %hi(0xa401d000), %i0
    271c:	68 69 73 6f 	call  a1a5f4d8 <LEON_REG+0x21a5f4d8>
    2720:	6e 65 3a 72 	call  b99510e8 <LEON_REG+0x399510e8>
    2724:	28 33 2c 33 	unknown
    2728:	29 00 6e 65 	sethi  %hi(0x1b99400), %l4
    272c:	78 74 6f 6e 	call  e1d1e4e4 <LEON_REG+0x61d1e4e4>
    2730:	65 3a 72 28 	call  94e9efd0 <LEON_REG+0x14e9efd0>
    2734:	33 2c 33 29 	sethi  %hi(0xb0cca400), %i1
    2738:	00 5f 77 72 	unknown
    273c:	61 70 75 70 	call  85c1fcfc <LEON_REG+0x5c1fcfc>
    2740:	5f 72 65 65 	call  7dc9bcd4 <__end+0x3d797d9c>
    2744:	6e 74 3a 46 	call  b9d1105c <LEON_REG+0x39d1105c>
    2748:	28 30 2c 31 	unknown
    274c:	39 29 00 6e 	sethi  %hi(0xa401b800), %i4
    2750:	3a 72 28 30 	unknown
    2754:	2c 31 29 00 	unknown
    2758:	65 72 72 6e 	call  95c9f110 <LEON_REG+0x15c9f110>
    275c:	6f 3a 47 28 	call  bce943fc <LEON_REG+0x3ce943fc>
    2760:	30 2c 31 29 	unknown
    2764:	00 2f 74 6d 	unimp  0xffef746d
    2768:	70 2f 63 63 	call  c0bdb4f4 <LEON_REG+0x40bdb4f4>
    276c:	6d 62 4e 30 	call  b589602c <LEON_REG+0x3589602c>
    2770:	50 39 2e 73 	call  40e4e13c <__end+0x94a204>
    2774:	00 2e 2e 2f 	unimp  0xffee2e2f
    2778:	2e 2e 2f 67 	unknown
    277c:	63 63 2d 33 	call  8d8cdc48 <LEON_REG+0xd8cdc48>
    2780:	2e 34 2e 34 	unknown
    2784:	2f 67 63 63 	unknown
    2788:	2f 63 6f 6e 	unknown
    278c:	66 69 67 2f 	call  99a5c448 <LEON_REG+0x19a5c448>
    2790:	73 70 61 72 	call  cdc1ad58 <LEON_REG+0x4dc1ad58>
    2794:	63 2f 6c 62 	call  8cbdd91c <LEON_REG+0xcbdd91c>
    2798:	31 73 70 63 	unknown
    279c:	2e 61 73 6d 	unknown
    27a0:	00 2f 74 6d 	unimp  0xffef746d
    27a4:	70 2f 63 63 	call  c0bdb530 <LEON_REG+0x40bdb530>
    27a8:	58 66 39 52 	call  61990cf0 <__end+0x2148cdb8>
    27ac:	4c 64 2e 73 	call  3190e178 <_trap_table-0xebf1e88>
    27b0:	00 2f 68 6f 	unimp  0xffef686f
    27b4:	6d 65 2f 6a 	call  b594e55c <LEON_REG+0x3594e55c>
    27b8:	6f 6e 61 73 	call  bdb9ad84 <LEON_REG+0x3db9ad84>
    27bc:	2f 73 72 63 	unknown
    27c0:	2f 74 6f 6f 	unknown
    27c4:	6c 63 68 61 	call  b18dc948 <LEON_REG+0x318dc948>
    27c8:	69 6e 73 2f 	call  a5b9f484 <LEON_REG+0x25b9f484>
    27cc:	62 63 63 2f 	call  898db488 <LEON_REG+0x98db488>
    27d0:	67 63 63 2d 	call  9d8db484 <LEON_REG+0x1d8db484>
    27d4:	33 2e 34 2e 	sethi  %hi(0xb8d0b800), %i1
    27d8:	34 2d 67 63 	unknown
    27dc:	63 2d 33 2e 	call  8cb4f494 <LEON_REG+0xcb4f494>
    27e0:	34 2e 34 2d 	unknown
    27e4:	62 75 69 6c 	call  89d5cd94 <LEON_REG+0x9d5cd94>
    27e8:	64 2f 73 70 	call  90bdf5a8 <LEON_REG+0x10bdf5a8>
    27ec:	61 72 63 2d 	call  85c9b4a0 <LEON_REG+0x5c9b4a0>
    27f0:	65 6c 66 2f 	call  95b1c0ac <LEON_REG+0x15b1c0ac>
    27f4:	73 6f 66 74 	call  cdbdc1c4 <LEON_REG+0x4dbdc1c4>
    27f8:	2f 6c 69 62 	unknown
    27fc:	67 6c 6f 73 	call  9db1e5c8 <LEON_REG+0x1db1e5c8>
    2800:	73 2f 73 70 	call  ccbdf5c0 <LEON_REG+0x4cbdf5c0>
    2804:	61 72 63 5f 	call  85c9b580 <LEON_REG+0x5c9b580>
    2808:	6c 65 6f 6e 	call  b195e5c0 <LEON_REG+0x3195e5c0>
    280c:	2f 00 2e 2e 	sethi  %hi(0xb8b800), %l7
    2810:	2f 2e 2e 2f 	sethi  %hi(0xb8b8bc00), %l7
    2814:	2e 2e 2f 2e 	unknown
    2818:	2e 2f 2e 2e 	unknown
    281c:	2f 67 63 63 	unknown
    2820:	2d 33 2e 34 	sethi  %hi(0xccb8d000), %l6
    2824:	2e 34 2f 6c 	unknown
    2828:	69 62 67 6c 	call  a589c5d8 <LEON_REG+0x2589c5d8>
    282c:	6f 73 73 2f 	call  bdcdf4e8 <LEON_REG+0x3dcdf4e8>
    2830:	73 70 61 72 	call  cdc1adf8 <LEON_REG+0x4dc1adf8>
    2834:	63 5f 6c 65 	call  8d7dd9c8 <LEON_REG+0xd7dd9c8>
    2838:	6f 6e 2f 2e 	call  bdb8e4f0 <LEON_REG+0x3db8e4f0>
    283c:	2e 2f 73 62 	unknown
    2840:	72 6b 2e 63 	call  c9ace1cc <LEON_REG+0x49ace1cc>
    2844:	00 2f 68 6f 	unimp  0xffef686f
    2848:	6d 65 2f 6a 	call  b594e5f0 <LEON_REG+0x3594e5f0>
    284c:	6f 6e 61 73 	call  bdb9ae18 <LEON_REG+0x3db9ae18>
    2850:	2f 73 72 63 	unknown
    2854:	2f 74 6f 6f 	unknown
    2858:	6c 63 68 61 	call  b18dc9dc <LEON_REG+0x318dc9dc>
    285c:	69 6e 73 2f 	call  a5b9f518 <LEON_REG+0x25b9f518>
    2860:	62 63 63 2f 	call  898db51c <LEON_REG+0x98db51c>
    2864:	67 63 63 2d 	call  9d8db518 <LEON_REG+0x1d8db518>
    2868:	33 2e 34 2e 	sethi  %hi(0xb8d0b800), %i1
    286c:	34 2f 6e 65 	unknown
    2870:	77 6c 69 62 	call  ddb1cdf8 <LEON_REG+0x5db1cdf8>
    2874:	2f 6c 69 62 	unknown
    2878:	63 2f 69 6e 	call  8cbdce30 <LEON_REG+0xcbdce30>
    287c:	63 6c 75 64 	call  8db1fe0c <LEON_REG+0xdb1fe0c>
    2880:	65 2f 65 72 	call  94bdbe48 <LEON_REG+0x14bdbe48>
    2884:	72 6e 6f 2e 	call  c9b9e53c <LEON_REG+0x49b9e53c>
    2888:	68 00 65 72 	call  a001be50 <LEON_REG+0x2001be50>
    288c:	72 6f 72 5f 	call  c9bdf208 <LEON_REG+0x49bdf208>
    2890:	74 3a 74 28 	call  d0e9f930 <LEON_REG+0x50e9f930>
    2894:	31 2c 31 29 	sethi  %hi(0xb0c4a400), %i0
    2898:	3d 28 30 2c 	sethi  %hi(0xa0c0b000), %fp
    289c:	31 29 00 2f 	sethi  %hi(0xa400bc00), %i0
    28a0:	68 6f 6d 65 	call  a1bdde34 <LEON_REG+0x21bdde34>
    28a4:	2f 6a 6f 6e 	unknown
    28a8:	61 73 2f 73 	call  85cce674 <LEON_REG+0x5cce674>
    28ac:	72 63 2f 74 	call  c98ce67c <LEON_REG+0x498ce67c>
    28b0:	6f 6f 6c 63 	call  bdbdda3c <LEON_REG+0x3dbdda3c>
    28b4:	68 61 69 6e 	call  a185ce6c <LEON_REG+0x2185ce6c>
    28b8:	73 2f 62 63 	call  ccbdb244 <LEON_REG+0x4cbdb244>
    28bc:	63 2f 67 63 	call  8cbdc648 <LEON_REG+0xcbdc648>
    28c0:	63 2d 33 2e 	call  8cb4f578 <LEON_REG+0xcb4f578>
    28c4:	34 2e 34 2f 	unknown
    28c8:	6e 65 77 6c 	call  b9960678 <LEON_REG+0x39960678>
    28cc:	69 62 2f 6c 	call  a588e67c <LEON_REG+0x2588e67c>
    28d0:	69 62 63 2f 	call  a589b58c <LEON_REG+0x2589b58c>
    28d4:	69 6e 63 6c 	call  a5b9b684 <LEON_REG+0x25b9b684>
    28d8:	75 64 65 2f 	call  d591bd94 <LEON_REG+0x5591bd94>
    28dc:	73 79 73 2f 	call  cde5f598 <LEON_REG+0x4de5f598>
    28e0:	65 72 72 6e 	call  95c9f298 <LEON_REG+0x15c9f298>
    28e4:	6f 2e 68 00 	call  bcb9c8e4 <LEON_REG+0x3cb9c8e4>
    28e8:	2e 2f 2e 2e 	unknown
    28ec:	2f 2e 2e 2f 	sethi  %hi(0xb8b8bc00), %l7
    28f0:	6e 65 77 6c 	call  b99606a0 <LEON_REG+0x399606a0>
    28f4:	69 62 2f 74 	call  a588e6c4 <LEON_REG+0x2588e6c4>
    28f8:	61 72 67 2d 	call  85c9c5ac <LEON_REG+0x5c9c5ac>
    28fc:	69 6e 63 6c 	call  a5b9b6ac <LEON_REG+0x25b9b6ac>
    2900:	75 64 65 2f 	call  d591bdbc <LEON_REG+0x5591bdbc>
    2904:	73 79 73 2f 	call  cde5f5c0 <LEON_REG+0x4de5f5c0>
    2908:	6c 6f 63 6b 	call  b1bdb6b4 <LEON_REG+0x31bdb6b4>
    290c:	2e 68 00 2e 	unknown
    2910:	2f 2e 2e 2f 	sethi  %hi(0xb8b8bc00), %l7
    2914:	2e 2e 2f 6e 	unknown
    2918:	65 77 6c 69 	call  95dddabc <LEON_REG+0x15dddabc>
    291c:	62 2f 74 61 	call  88bdfaa0 <LEON_REG+0x8bdfaa0>
    2920:	72 67 2d 69 	call  c99cdec4 <LEON_REG+0x499cdec4>
    2924:	6e 63 6c 75 	call  b98ddaf8 <LEON_REG+0x398ddaf8>
    2928:	64 65 2f 73 	call  9194e6f4 <LEON_REG+0x1194e6f4>
    292c:	79 73 2f 66 	call  e5cce6c4 <LEON_REG+0x65cce6c4>
    2930:	73 75 5f 70 	call  cdd5a6f0 <LEON_REG+0x4dd5a6f0>
    2934:	74 68 72 65 	call  d1a1f2c8 <LEON_REG+0x51a1f2c8>
    2938:	61 64 5f 6d 	call  8591a6ec <LEON_REG+0x591a6ec>
    293c:	75 74 65 78 	call  d5d1bf1c <LEON_REG+0x55d1bf1c>
    2940:	2e 68 00 73 	unknown
    2944:	62 72 6b 3a 	call  89c9d62c <LEON_REG+0x9c9d62c>
    2948:	46 28 36 2c 	call  18a101f8 <_trap_table-0x27aefe08>
    294c:	36 29 00 6e 	unknown
    2950:	62 79 74 65 	call  89e5fae4 <LEON_REG+0x9e5fae4>
    2954:	73 3a 50 28 	call  cce969f4 <LEON_REG+0x4ce969f4>
    2958:	30 2c 31 29 	unknown
    295c:	00 68 65 61 	unknown
    2960:	70 5f 70 74 	call  c17deb30 <LEON_REG+0x417deb30>
    2964:	72 3a 47 28 	call  c8e94604 <LEON_REG+0x48e94604>
    2968:	36 2c 36 29 	unknown
    296c:	00 2f 74 6d 	unimp  0xffef746d
    2970:	70 2f 63 63 	call  c0bdb6fc <LEON_REG+0x40bdb6fc>
    2974:	49 79 75 35 	call  25e5fe48 <_trap_table-0x1a6a01b8>
    2978:	45 6d 2e 73 	call  15b4e344 <_trap_table-0x2a9b1cbc>
    297c:	00 2e 2e 2f 	unimp  0xffee2e2f
    2980:	2e 2e 2f 2e 	unknown
    2984:	2e 2f 2e 2e 	unknown
    2988:	2f 2e 2e 2f 	sethi  %hi(0xb8b8bc00), %l7
    298c:	67 63 63 2d 	call  9d8db640 <LEON_REG+0x1d8db640>
    2990:	33 2e 34 2e 	sethi  %hi(0xb8d0b800), %i1
    2994:	34 2f 6c 69 	unknown
    2998:	62 67 6c 6f 	call  899ddb54 <LEON_REG+0x99ddb54>
    299c:	73 73 2f 73 	call  cdcce768 <LEON_REG+0x4dcce768>
    29a0:	70 61 72 63 	call  c185f32c <LEON_REG+0x4185f32c>
    29a4:	5f 6c 65 6f 	call  7db1bf60 <__end+0x3d618028>
    29a8:	6e 2f 72 65 	call  b8bdf33c <LEON_REG+0x38bdf33c>
    29ac:	67 77 69 6e 	call  9dddcf64 <LEON_REG+0x1dddcf64>
    29b0:	2e 53 00 2f 	unknown
    29b4:	74 6d 70 2f 	call  d1b5ea70 <LEON_REG+0x51b5ea70>
    29b8:	63 63 41 30 	call  8d8d2e78 <LEON_REG+0xd8d2e78>
    29bc:	54 70 6c 6f 	call  51c1db78 <__end+0x11719c40>
    29c0:	2e 73 00 2e 	unknown
    29c4:	2e 2f 2e 2e 	unknown
    29c8:	2f 2e 2e 2f 	sethi  %hi(0xb8b8bc00), %l7
    29cc:	2e 2e 2f 2e 	unknown
    29d0:	2e 2f 67 63 	unknown
    29d4:	63 2d 33 2e 	call  8cb4f68c <LEON_REG+0xcb4f68c>
    29d8:	34 2e 34 2f 	unknown
    29dc:	6c 69 62 67 	call  b1a5b378 <LEON_REG+0x31a5b378>
    29e0:	6c 6f 73 73 	call  b1bdf7ac <LEON_REG+0x31bdf7ac>
    29e4:	2f 73 70 61 	unknown
    29e8:	72 63 5f 6c 	call  c98da798 <LEON_REG+0x498da798>
    29ec:	65 6f 6e 2f 	call  95bde2a8 <LEON_REG+0x15bde2a8>
    29f0:	72 65 67 77 	call  c995c7cc <LEON_REG+0x4995c7cc>
    29f4:	69 6e 66 6c 	call  a5b9c3a4 <LEON_REG+0x25b9c3a4>
    29f8:	75 73 68 2e 	call  d5cdcab0 <LEON_REG+0x55cdcab0>
    29fc:	53 00 2f 74 	call  4c00e7cc <__end+0xbb0a894>
    2a00:	6d 70 2f 63 	call  b5c0e78c <LEON_REG+0x35c0e78c>
    2a04:	63 55 43 45 	call  8d553718 <LEON_REG+0xd553718>
    2a08:	6a 4a 75 2e 	call  a929fec0 <LEON_REG+0x2929fec0>
    2a0c:	73 00 2e 2e 	call  cc00e2c4 <LEON_REG+0x4c00e2c4>
    2a10:	2f 2e 2e 2f 	sethi  %hi(0xb8b8bc00), %l7
    2a14:	2e 2e 2f 2e 	unknown
    2a18:	2e 2f 2e 2e 	unknown
    2a1c:	2f 67 63 63 	unknown
    2a20:	2d 33 2e 34 	sethi  %hi(0xccb8d000), %l6
    2a24:	2e 34 2f 6c 	unknown
    2a28:	69 62 67 6c 	call  a589c7d8 <LEON_REG+0x2589c7d8>
    2a2c:	6f 73 73 2f 	call  bdcdf6e8 <LEON_REG+0x3dcdf6e8>
    2a30:	73 70 61 72 	call  cdc1aff8 <LEON_REG+0x4dc1aff8>
    2a34:	63 5f 6c 65 	call  8d7ddbc8 <LEON_REG+0xd7ddbc8>
    2a38:	6f 6e 2f 62 	call  bdb8e7c0 <LEON_REG+0x3db8e7c0>
    2a3c:	64 69 6e 69 	call  91a5e3e0 <LEON_REG+0x11a5e3e0>
    2a40:	74 2e 53 00 	call  d0b97640 <LEON_REG+0x50b97640>
    2a44:	2f 74 6d 70 	unknown
    2a48:	2f 63 63 4d 	unknown
    2a4c:	51 67 68 46 	call  459dcb64 <__end+0x54d8c2c>
    2a50:	42 2e 73 00 	call  8b9f650 <_trap_table-0x379609b0>
    2a54:	2e 2e 2f 2e 	unknown
    2a58:	2e 2f 2e 2e 	unknown
    2a5c:	2f 2e 2e 2f 	sethi  %hi(0xb8b8bc00), %l7
    2a60:	2e 2e 2f 67 	unknown
    2a64:	63 63 2d 33 	call  8d8cdf30 <LEON_REG+0xd8cdf30>
    2a68:	2e 34 2e 34 	unknown
    2a6c:	2f 6c 69 62 	unknown
    2a70:	67 6c 6f 73 	call  9db1e83c <LEON_REG+0x1db1e83c>
    2a74:	73 2f 73 70 	call  ccbdf834 <LEON_REG+0x4cbdf834>
    2a78:	61 72 63 5f 	call  85c9b7f4 <LEON_REG+0x5c9b7f4>
    2a7c:	6c 65 6f 6e 	call  b195e834 <LEON_REG+0x3195e834>
    2a80:	2f 69 72 71 	unknown
    2a84:	74 72 61 70 	call  d1c9b044 <LEON_REG+0x51c9b044>
    2a88:	5f 66 61 73 	call  7d99b054 <__end+0x3d49711c>
    2a8c:	74 2e 53 00 	call  d0b9768c <LEON_REG+0x50b9768c>
    2a90:	2e 2e 2f 2e 	unknown
    2a94:	2e 2f 2e 2e 	unknown
    2a98:	2f 2e 2e 2f 	sethi  %hi(0xb8b8bc00), %l7
    2a9c:	2e 2e 2f 67 	unknown
    2aa0:	63 63 2d 33 	call  8d8cdf6c <LEON_REG+0xd8cdf6c>
    2aa4:	2e 34 2e 34 	unknown
    2aa8:	2f 6c 69 62 	unknown
    2aac:	67 6c 6f 73 	call  9db1e878 <LEON_REG+0x1db1e878>
    2ab0:	73 2f 73 70 	call  ccbdf870 <LEON_REG+0x4cbdf870>
    2ab4:	61 72 63 5f 	call  85c9b830 <LEON_REG+0x5c9b830>
    2ab8:	6c 65 6f 6e 	call  b195e870 <LEON_REG+0x3195e870>
    2abc:	2f 63 61 74 	unknown
    2ac0:	63 68 5f 69 	call  8da1a864 <LEON_REG+0xda1a864>
    2ac4:	6e 74 65 72 	call  b9d1c08c <LEON_REG+0x39d1c08c>
    2ac8:	72 75 70 74 	call  c9d5ec98 <LEON_REG+0x49d5ec98>
    2acc:	2e 63 00 2e 	unknown
    2ad0:	2f 2e 2e 2f 	sethi  %hi(0xb8b8bc00), %l7
    2ad4:	2e 2e 2f 6e 	unknown
    2ad8:	65 77 6c 69 	call  95dddc7c <LEON_REG+0x15dddc7c>
    2adc:	62 2f 74 61 	call  88bdfc60 <LEON_REG+0x8bdfc60>
    2ae0:	72 67 2d 69 	call  c99ce084 <LEON_REG+0x499ce084>
    2ae4:	6e 63 6c 75 	call  b98ddcb8 <LEON_REG+0x398ddcb8>
    2ae8:	64 65 2f 61 	call  9194e86c <LEON_REG+0x1194e86c>
    2aec:	73 6d 2d 6c 	call  cdb4e09c <LEON_REG+0x4db4e09c>
    2af0:	65 6f 6e 2f 	call  95bde3ac <LEON_REG+0x15bde3ac>
    2af4:	6c 65 6f 6e 	call  b195e8ac <LEON_REG+0x3195e8ac>
    2af8:	73 74 61 63 	call  cdd1b084 <LEON_REG+0x4dd1b084>
    2afc:	6b 2e 68 00 	call  acb9cafc <LEON_REG+0x2cb9cafc>
    2b00:	6c 65 6f 6e 	call  b195e8b8 <LEON_REG+0x3195e8b8>
    2b04:	62 61 72 65 	call  8985f498 <LEON_REG+0x985f498>
    2b08:	5f 70 74 5f 	call  7dc1fc84 <__end+0x3d71bd4c>
    2b0c:	72 65 67 73 	call  c995c8d8 <LEON_REG+0x4995c8d8>
    2b10:	3a 54 28 31 	unknown
    2b14:	2c 31 29 3d 	unknown
    2b18:	73 38 30 70 	call  cce0ecd8 <LEON_REG+0x4ce0ecd8>
    2b1c:	73 72 3a 28 	call  cdc913bc <LEON_REG+0x4dc913bc>
    2b20:	30 2c 35 29 	unknown
    2b24:	2c 30 2c 33 	unknown
    2b28:	32 3b 70 63 	unknown
    2b2c:	3a 28 30 2c 	unknown
    2b30:	35 29 2c 33 	sethi  %hi(0xa4b0cc00), %i2
    2b34:	32 2c 33 32 	unknown
    2b38:	3b 6e 70 63 	unknown
    2b3c:	3a 28 30 2c 	unknown
    2b40:	35 29 2c 36 	sethi  %hi(0xa4b0d800), %i2
    2b44:	34 2c 33 32 	unknown
    2b48:	3b 79 3a 28 	unknown
    2b4c:	30 2c 35 29 	unknown
    2b50:	2c 39 36 2c 	unknown
    2b54:	33 32 3b 75 	sethi  %hi(0xc8edd400), %i1
    2b58:	5f 72 65 67 	call  7dc9c0f4 <__end+0x3d7981bc>
    2b5c:	73 3a 28 31 	call  cce8cc20 <LEON_REG+0x4ce8cc20>
    2b60:	2c 32 29 3d 	unknown
    2b64:	61 72 28 31 	call  85c8cc28 <LEON_REG+0x5c8cc28>
    2b68:	2c 33 29 3d 	unknown
    2b6c:	72 28 31 2c 	call  c8a0f01c <LEON_REG+0x48a0f01c>
    2b70:	33 29 3b 30 	sethi  %hi(0xa4ecc000), %i1
    2b74:	30 30 30 30 	unknown
    2b78:	30 30 30 30 	unknown
    2b7c:	30 30 30 30 	unknown
    2b80:	3b 30 30 33 	sethi  %hi(0xc0c0cc00), %i5
    2b84:	37 37 37 37 	sethi  %hi(0xdcdcdc00), %i3
    2b88:	37 37 37 37 	sethi  %hi(0xdcdcdc00), %i3
    2b8c:	37 37 3b 3b 	sethi  %hi(0xdcecec00), %i3
    2b90:	30 3b 31 35 	unknown
    2b94:	3b 28 30 2c 	sethi  %hi(0xa0c0b000), %i5
    2b98:	35 29 2c 31 	sethi  %hi(0xa4b0c400), %i2
    2b9c:	32 38 2c 35 	unknown
    2ba0:	31 32 3b 3b 	sethi  %hi(0xc8ecec00), %i0
    2ba4:	00 73 70 61 	unknown
    2ba8:	72 63 5f 73 	call  c98da974 <LEON_REG+0x498da974>
    2bac:	74 61 63 6b 	call  d185b958 <LEON_REG+0x5185b958>
    2bb0:	66 72 61 6d 	call  99c9b164 <LEON_REG+0x19c9b164>
    2bb4:	65 5f 72 65 	call  957df548 <LEON_REG+0x157df548>
    2bb8:	67 73 3a 54 	call  9dcd1508 <LEON_REG+0x1dcd1508>
    2bbc:	28 31 2c 34 	unknown
    2bc0:	29 3d 73 39 	sethi  %hi(0xf5cce400), %l4
    2bc4:	36 73 66 5f 	unknown
    2bc8:	6c 6f 63 61 	call  b1bdb94c <LEON_REG+0x31bdb94c>
    2bcc:	6c 73 3a 28 	call  b1cd146c <LEON_REG+0x31cd146c>
    2bd0:	31 2c 35 29 	sethi  %hi(0xb0d4a400), %i0
    2bd4:	3d 61 72 28 	unknown
    2bd8:	31 2c 33 29 	sethi  %hi(0xb0cca400), %i0
    2bdc:	3b 30 3b 37 	sethi  %hi(0xc0ecdc00), %i5
    2be0:	3b 28 30 2c 	sethi  %hi(0xa0c0b000), %i5
    2be4:	35 29 2c 30 	sethi  %hi(0xa4b0c000), %i2
    2be8:	2c 32 35 36 	unknown
    2bec:	3b 73 66 5f 	unknown
    2bf0:	69 6e 73 3a 	call  a5b9f8d8 <LEON_REG+0x25b9f8d8>
    2bf4:	28 31 2c 36 	unknown
    2bf8:	29 3d 61 72 	sethi  %hi(0xf585c800), %l4
    2bfc:	28 31 2c 33 	unknown
    2c00:	29 3b 30 3b 	sethi  %hi(0xecc0ec00), %l4
    2c04:	35 3b 28 30 	sethi  %hi(0xeca0c000), %i2
    2c08:	2c 35 29 2c 	unknown
    2c0c:	32 35 36 2c 	unknown
    2c10:	31 39 32 3b 	sethi  %hi(0xe4c8ec00), %i0
    2c14:	73 66 5f 66 	call  cd99a9ac <LEON_REG+0x4d99a9ac>
    2c18:	70 3a 28 31 	call  c0e8ccdc <LEON_REG+0x40e8ccdc>
    2c1c:	2c 37 29 3d 	unknown
    2c20:	2a 28 31 2c 	unknown
    2c24:	34 29 2c 34 	unknown
    2c28:	34 38 2c 33 	unknown
    2c2c:	32 3b 73 66 	unknown
    2c30:	5f 63 61 6c 	call  7d8db1e0 <__end+0x3d3d72a8>
    2c34:	6c 65 72 73 	call  b195f600 <LEON_REG+0x3195f600>
    2c38:	5f 70 63 3a 	call  7dc1b920 <__end+0x3d7179e8>
    2c3c:	28 30 2c 35 	unknown
    2c40:	29 2c 34 38 	sethi  %hi(0xb0d0e000), %l4
    2c44:	30 2c 33 32 	unknown
    2c48:	3b 73 66 5f 	unknown
    2c4c:	73 74 72 75 	call  cdd1f620 <LEON_REG+0x4dd1f620>
    2c50:	63 74 70 74 	call  8dd1ee20 <LEON_REG+0xdd1ee20>
    2c54:	72 3a 28 31 	call  c8e8cd18 <LEON_REG+0x48e8cd18>
    2c58:	2c 38 29 3d 	unknown
    2c5c:	2a 28 30 2c 	unknown
    2c60:	32 29 2c 35 	unknown
    2c64:	31 32 2c 33 	sethi  %hi(0xc8b0cc00), %i0
    2c68:	32 3b 73 66 	unknown
    2c6c:	5f 78 61 72 	call  7de1b234 <__end+0x3d9172fc>
    2c70:	67 73 3a 28 	call  9dcd1510 <LEON_REG+0x1dcd1510>
    2c74:	31 2c 36 29 	sethi  %hi(0xb0d8a400), %i0
    2c78:	2c 35 34 34 	unknown
    2c7c:	2c 31 39 32 	unknown
    2c80:	3b 73 66 5f 	unknown
    2c84:	78 78 61 72 	call  e1e1b24c <LEON_REG+0x61e1b24c>
    2c88:	67 73 3a 28 	call  9dcd1528 <LEON_REG+0x1dcd1528>
    2c8c:	31 2c 39 29 	sethi  %hi(0xb0e4a400), %i0
    2c90:	3d 61 72 28 	unknown
    2c94:	31 2c 33 29 	sethi  %hi(0xb0cca400), %i0
    2c98:	3b 30 3b 30 	sethi  %hi(0xc0ecc000), %i5
    2c9c:	3b 28 30 2c 	sethi  %hi(0xa0c0b000), %i5
    2ca0:	35 29 2c 37 	sethi  %hi(0xa4b0dc00), %i2
    2ca4:	33 36 2c 33 	sethi  %hi(0xd8b0cc00), %i1
    2ca8:	32 3b 3b 00 	unknown
    2cac:	73 70 61 72 	call  cdc1b274 <LEON_REG+0x4dc1b274>
    2cb0:	63 5f 72 65 	call  8d7df644 <LEON_REG+0xd7df644>
    2cb4:	67 77 69 6e 	call  9dddd26c <LEON_REG+0x1dddd26c>
    2cb8:	64 6f 77 5f 	call  91be0a34 <LEON_REG+0x11be0a34>
    2cbc:	72 65 67 73 	call  c995ca88 <LEON_REG+0x4995ca88>
    2cc0:	3a 54 28 31 	unknown
    2cc4:	2c 31 30 29 	unknown
    2cc8:	3d 73 36 34 	unknown
    2ccc:	6c 6f 63 61 	call  b1bdba50 <LEON_REG+0x31bdba50>
    2cd0:	6c 73 3a 28 	call  b1cd1570 <LEON_REG+0x31cd1570>
    2cd4:	31 2c 35 29 	sethi  %hi(0xb0d4a400), %i0
    2cd8:	2c 30 2c 32 	unknown
    2cdc:	35 36 3b 69 	sethi  %hi(0xd8eda400), %i2
    2ce0:	6e 73 3a 28 	call  b9cd1580 <LEON_REG+0x39cd1580>
    2ce4:	31 2c 35 29 	sethi  %hi(0xb0d4a400), %i0
    2ce8:	2c 32 35 36 	unknown
    2cec:	2c 32 35 36 	unknown
    2cf0:	3b 3b 00 73 	sethi  %hi(0xec01cc00), %i5
    2cf4:	70 61 72 63 	call  c185f680 <LEON_REG+0x4185f680>
    2cf8:	5f 66 70 75 	call  7d99eecc <__end+0x3d49af94>
    2cfc:	77 69 6e 64 	call  dda5e68c <LEON_REG+0x5da5e68c>
    2d00:	6f 77 5f 72 	call  bdddaac8 <LEON_REG+0x3dddaac8>
    2d04:	65 67 73 3a 	call  959df9ec <LEON_REG+0x159df9ec>
    2d08:	54 28 31 2c 	call  50a0f1b8 <__end+0x1050b280>
    2d0c:	31 31 29 3d 	sethi  %hi(0xc4a4f400), %i0
    2d10:	73 31 33 36 	call  ccc4f9e8 <LEON_REG+0x4cc4f9e8>
    2d14:	6c 6f 63 61 	call  b1bdba98 <LEON_REG+0x31bdba98>
    2d18:	6c 73 3a 28 	call  b1cd15b8 <LEON_REG+0x31cd15b8>
    2d1c:	31 2c 31 32 	sethi  %hi(0xb0c4c800), %i0
    2d20:	29 3d 61 72 	sethi  %hi(0xf585c800), %l4
    2d24:	28 31 2c 33 	unknown
    2d28:	29 3b 30 3b 	sethi  %hi(0xecc0ec00), %l4
    2d2c:	33 31 3b 28 	sethi  %hi(0xc4eca000), %i1
    2d30:	30 2c 35 29 	unknown
    2d34:	2c 30 2c 31 	unknown
    2d38:	30 32 34 3b 	unknown
    2d3c:	66 73 72 3a 	call  99cdf624 <LEON_REG+0x19cdf624>
    2d40:	28 30 2c 35 	unknown
    2d44:	29 2c 31 30 	sethi  %hi(0xb0c4c000), %l4
    2d48:	32 34 2c 33 	unknown
    2d4c:	32 3b 6c 61 	unknown
    2d50:	73 74 63 74 	call  cdd1bb20 <LEON_REG+0x4dd1bb20>
    2d54:	78 3a 28 30 	call  e0e8ce14 <LEON_REG+0x60e8ce14>
    2d58:	2c 35 29 2c 	unknown
    2d5c:	31 30 35 36 	sethi  %hi(0xc0d4d800), %i0
    2d60:	2c 33 32 3b 	unknown
    2d64:	3b 00 2e 2f 	sethi  %hi(0xb8bc00), %i5
    2d68:	2e 2e 2f 2e 	unknown
    2d6c:	2e 2f 6e 65 	unknown
    2d70:	77 6c 69 62 	call  ddb1d2f8 <LEON_REG+0x5db1d2f8>
    2d74:	2f 74 61 72 	unknown
    2d78:	67 2d 69 6e 	call  9cb5d330 <LEON_REG+0x1cb5d330>
    2d7c:	63 6c 75 64 	call  8db2030c <LEON_REG+0xdb2030c>
    2d80:	65 2f 61 73 	call  94bdb34c <LEON_REG+0x14bdb34c>
    2d84:	6d 2d 6c 65 	call  b4b5df18 <LEON_REG+0x34b5df18>
    2d88:	6f 6e 2f 69 	call  bdb8eb2c <LEON_REG+0x3db8eb2c>
    2d8c:	72 71 2e 68 	call  c9c4e72c <LEON_REG+0x49c4e72c>
    2d90:	00 2e 2f 2e 	unimp  0xffee2f2e
    2d94:	2e 2f 2e 2e 	unknown
    2d98:	2f 6e 65 77 	unknown
    2d9c:	6c 69 62 2f 	call  b1a5b658 <LEON_REG+0x31a5b658>
    2da0:	74 61 72 67 	call  d185f73c <LEON_REG+0x5185f73c>
    2da4:	2d 69 6e 63 	unknown
    2da8:	6c 75 64 65 	call  b1d5bf3c <LEON_REG+0x31d5bf3c>
    2dac:	2f 61 73 6d 	unknown
    2db0:	2d 6c 65 6f 	unknown
    2db4:	6e 2f 6c 65 	call  b8bddf48 <LEON_REG+0x38bddf48>
    2db8:	6f 6e 2e 68 	call  bdb8e758 <LEON_REG+0x3db8e758>
    2dbc:	00 2e 2f 2e 	unimp  0xffee2f2e
    2dc0:	2e 2f 2e 2e 	unknown
    2dc4:	2f 6e 65 77 	unknown
    2dc8:	6c 69 62 2f 	call  b1a5b684 <LEON_REG+0x31a5b684>
    2dcc:	74 61 72 67 	call  d185f768 <LEON_REG+0x5185f768>
    2dd0:	2d 69 6e 63 	unknown
    2dd4:	6c 75 64 65 	call  b1d5bf68 <LEON_REG+0x31d5bf68>
    2dd8:	2f 61 73 6d 	unknown
    2ddc:	2d 6c 65 6f 	unknown
    2de0:	6e 2f 61 6d 	call  b8bdb394 <LEON_REG+0x38bdb394>
    2de4:	62 61 2e 68 	call  8984e784 <LEON_REG+0x984e784>
    2de8:	00 4c 45 4f 	unknown
    2dec:	4e 33 5f 49 	call  38cdab10 <_trap_table-0x78254f0>
    2df0:	72 71 43 74 	call  c9c53bc0 <LEON_REG+0x49c53bc0>
    2df4:	72 6c 5f 52 	call  c9b1ab3c <LEON_REG+0x49b1ab3c>
    2df8:	65 67 73 5f 	call  959dfb74 <LEON_REG+0x159dfb74>
    2dfc:	4d 61 70 3a 	call  3585eee4 <_trap_table-0xaca111c>
    2e00:	74 28 34 2c 	call  d0a0feb0 <LEON_REG+0x50a0feb0>
    2e04:	31 29 3d 28 	sethi  %hi(0xa4f4a000), %i0
    2e08:	34 2c 32 29 	unknown
    2e0c:	3d 73 31 32 	unknown
    2e10:	38 69 6c 65 	unknown
    2e14:	76 65 6c 3a 	call  d995defc <LEON_REG+0x5995defc>
    2e18:	28 30 2c 34 	unknown
    2e1c:	29 2c 30 2c 	sethi  %hi(0xb0c0b000), %l4
    2e20:	33 32 3b 69 	sethi  %hi(0xc8eda400), %i1
    2e24:	70 65 6e 64 	call  c195e7b4 <LEON_REG+0x4195e7b4>
    2e28:	3a 28 30 2c 	unknown
    2e2c:	34 29 2c 33 	unknown
    2e30:	32 2c 33 32 	unknown
    2e34:	3b 69 66 6f 	unknown
    2e38:	72 63 65 3a 	call  c98dc320 <LEON_REG+0x498dc320>
    2e3c:	28 30 2c 34 	unknown
    2e40:	29 2c 36 34 	sethi  %hi(0xb0d8d000), %l4
    2e44:	2c 33 32 3b 	unknown
    2e48:	69 63 6c 65 	call  a58ddfdc <LEON_REG+0x258ddfdc>
    2e4c:	61 72 3a 28 	call  85c916ec <LEON_REG+0x5c916ec>
    2e50:	30 2c 34 29 	unknown
    2e54:	2c 39 36 2c 	unknown
    2e58:	33 32 3b 6e 	sethi  %hi(0xc8edb800), %i1
    2e5c:	6f 74 75 73 	call  bdd20428 <LEON_REG+0x3dd20428>
    2e60:	65 64 30 30 	call  9590ef20 <LEON_REG+0x1590ef20>
    2e64:	3a 28 30 2c 	unknown
    2e68:	34 29 2c 31 	unknown
    2e6c:	32 38 2c 33 	unknown
    2e70:	32 3b 6e 6f 	unknown
    2e74:	74 75 73 65 	call  d1d5fc08 <LEON_REG+0x51d5fc08>
    2e78:	64 30 31 3a 	call  90c0f360 <LEON_REG+0x10c0f360>
    2e7c:	28 30 2c 34 	unknown
    2e80:	29 2c 31 36 	sethi  %hi(0xb0c4d800), %l4
    2e84:	30 2c 33 32 	unknown
    2e88:	3b 6e 6f 74 	unknown
    2e8c:	75 73 65 64 	call  d5cdc41c <LEON_REG+0x55cdc41c>
    2e90:	30 32 3a 28 	unknown
    2e94:	30 2c 34 29 	unknown
    2e98:	2c 31 39 32 	unknown
    2e9c:	2c 33 32 3b 	unknown
    2ea0:	6e 6f 74 75 	call  b9be0074 <LEON_REG+0x39be0074>
    2ea4:	73 65 64 30 	call  cd95bf64 <LEON_REG+0x4d95bf64>
    2ea8:	33 3a 28 30 	sethi  %hi(0xe8a0c000), %i1
    2eac:	2c 34 29 2c 	unknown
    2eb0:	32 32 34 2c 	unknown
    2eb4:	33 32 3b 6e 	sethi  %hi(0xc8edb800), %i1
    2eb8:	6f 74 75 73 	call  bdd20484 <LEON_REG+0x3dd20484>
    2ebc:	65 64 31 30 	call  9590f37c <LEON_REG+0x1590f37c>
    2ec0:	3a 28 30 2c 	unknown
    2ec4:	34 29 2c 32 	unknown
    2ec8:	35 36 2c 33 	sethi  %hi(0xd8b0cc00), %i2
    2ecc:	32 3b 6e 6f 	unknown
    2ed0:	74 75 73 65 	call  d1d5fc64 <LEON_REG+0x51d5fc64>
    2ed4:	64 31 31 3a 	call  90c4f3bc <LEON_REG+0x10c4f3bc>
    2ed8:	28 30 2c 34 	unknown
    2edc:	29 2c 32 38 	sethi  %hi(0xb0c8e000), %l4
    2ee0:	38 2c 33 32 	unknown
    2ee4:	3b 6e 6f 74 	unknown
    2ee8:	75 73 65 64 	call  d5cdc478 <LEON_REG+0x55cdc478>
    2eec:	31 32 3a 28 	sethi  %hi(0xc8e8a000), %i0
    2ef0:	30 2c 34 29 	unknown
    2ef4:	2c 33 32 30 	unknown
    2ef8:	2c 33 32 3b 	unknown
    2efc:	6e 6f 74 75 	call  b9be00d0 <LEON_REG+0x39be00d0>
    2f00:	73 65 64 31 	call  cd95bfc4 <LEON_REG+0x4d95bfc4>
    2f04:	33 3a 28 30 	sethi  %hi(0xe8a0c000), %i1
    2f08:	2c 34 29 2c 	unknown
    2f0c:	33 35 32 2c 	sethi  %hi(0xd4c8b000), %i1
    2f10:	33 32 3b 6e 	sethi  %hi(0xc8edb800), %i1
    2f14:	6f 74 75 73 	call  bdd204e0 <LEON_REG+0x3dd204e0>
    2f18:	65 64 32 30 	call  9590f7d8 <LEON_REG+0x1590f7d8>
    2f1c:	3a 28 30 2c 	unknown
    2f20:	34 29 2c 33 	unknown
    2f24:	38 34 2c 33 	unknown
    2f28:	32 3b 6e 6f 	unknown
    2f2c:	74 75 73 65 	call  d1d5fcc0 <LEON_REG+0x51d5fcc0>
    2f30:	64 32 31 3a 	call  90c8f418 <LEON_REG+0x10c8f418>
    2f34:	28 30 2c 34 	unknown
    2f38:	29 2c 34 31 	sethi  %hi(0xb0d0c400), %l4
    2f3c:	36 2c 33 32 	unknown
    2f40:	3b 6e 6f 74 	unknown
    2f44:	75 73 65 64 	call  d5cdc4d4 <LEON_REG+0x55cdc4d4>
    2f48:	32 32 3a 28 	unknown
    2f4c:	30 2c 34 29 	unknown
    2f50:	2c 34 34 38 	unknown
    2f54:	2c 33 32 3b 	unknown
    2f58:	6e 6f 74 75 	call  b9be012c <LEON_REG+0x39be012c>
    2f5c:	73 65 64 32 	call  cd95c024 <LEON_REG+0x4d95c024>
    2f60:	33 3a 28 30 	sethi  %hi(0xe8a0c000), %i1
    2f64:	2c 34 29 2c 	unknown
    2f68:	34 38 30 2c 	unknown
    2f6c:	33 32 3b 6d 	sethi  %hi(0xc8edb400), %i1
    2f70:	61 73 6b 3a 	call  85cddc58 <LEON_REG+0x5cddc58>
    2f74:	28 34 2c 33 	unknown
    2f78:	29 3d 61 72 	sethi  %hi(0xf585c800), %l4
    2f7c:	28 31 2c 33 	unknown
    2f80:	29 3b 30 3b 	sethi  %hi(0xecc0ec00), %l4
    2f84:	31 35 3b 28 	sethi  %hi(0xd4eca000), %i0
    2f88:	34 2c 34 29 	unknown
    2f8c:	3d 42 28 30 	unknown
    2f90:	2c 34 29 2c 	unknown
    2f94:	35 31 32 2c 	sethi  %hi(0xc4c8b000), %i2
    2f98:	35 31 32 3b 	sethi  %hi(0xc4c8ec00), %i2
    2f9c:	3b 00 4c 45 	sethi  %hi(0x1311400), %i5
    2fa0:	4f 4e 32 33 	call  3d38f86c <_trap_table-0x3170794>
    2fa4:	5f 41 50 42 	call  7d0570ac <__end+0x3cb53174>
    2fa8:	55 41 52 54 	call  550578f8 <__end+0x14b539c0>
    2fac:	5f 52 65 67 	call  7d49c548 <__end+0x3cf98610>
    2fb0:	73 5f 4d 61 	call  cd7d6534 <LEON_REG+0x4d7d6534>
    2fb4:	70 3a 74 28 	call  c0ea0054 <LEON_REG+0x40ea0054>
    2fb8:	34 2c 35 29 	unknown
    2fbc:	3d 28 34 2c 	sethi  %hi(0xa0d0b000), %fp
    2fc0:	36 29 3d 73 	unknown
    2fc4:	31 36 64 61 	sethi  %hi(0xd9918400), %i0
    2fc8:	74 61 3a 28 	call  d1851868 <LEON_REG+0x51851868>
    2fcc:	30 2c 34 29 	unknown
    2fd0:	2c 30 2c 33 	unknown
    2fd4:	32 3b 73 74 	unknown
    2fd8:	61 74 75 73 	call  85d205a4 <LEON_REG+0x5d205a4>
    2fdc:	3a 28 30 2c 	unknown
    2fe0:	34 29 2c 33 	unknown
    2fe4:	32 2c 33 32 	unknown
    2fe8:	3b 63 74 72 	unknown
    2fec:	6c 3a 28 30 	call  b0e8d0ac <LEON_REG+0x30e8d0ac>
    2ff0:	2c 34 29 2c 	unknown
    2ff4:	36 34 2c 33 	unknown
    2ff8:	32 3b 73 63 	unknown
    2ffc:	61 6c 65 72 	call  85b1c5c4 <LEON_REG+0x5b1c5c4>
    3000:	3a 28 30 2c 	unknown
    3004:	34 29 2c 39 	unknown
    3008:	36 2c 33 32 	unknown
    300c:	3b 3b 00 4c 	sethi  %hi(0xec013000), %i5
    3010:	45 4f 4e 33 	call  153d68dc <_trap_table-0x2b129724>
    3014:	5f 47 70 54 	call  7d1df164 <__end+0x3ccdb22c>
    3018:	69 6d 65 72 	call  a5b5c5e0 <LEON_REG+0x25b5c5e0>
    301c:	45 6c 65 6d 	call  15b1c5d0 <_trap_table-0x2a9e3a30>
    3020:	5f 52 65 67 	call  7d49c5bc <__end+0x3cf98684>
    3024:	73 5f 4d 61 	call  cd7d65a8 <LEON_REG+0x4d7d65a8>
    3028:	70 3a 74 28 	call  c0ea00c8 <LEON_REG+0x40ea00c8>
    302c:	34 2c 37 29 	unknown
    3030:	3d 28 34 2c 	sethi  %hi(0xa0d0b000), %fp
    3034:	38 29 3d 73 	unknown
    3038:	31 36 76 61 	sethi  %hi(0xd9d98400), %i0
    303c:	6c 3a 28 30 	call  b0e8d0fc <LEON_REG+0x30e8d0fc>
    3040:	2c 34 29 2c 	unknown
    3044:	30 2c 33 32 	unknown
    3048:	3b 72 6c 64 	unknown
    304c:	3a 28 30 2c 	unknown
    3050:	34 29 2c 33 	unknown
    3054:	32 2c 33 32 	unknown
    3058:	3b 63 74 72 	unknown
    305c:	6c 3a 28 30 	call  b0e8d11c <LEON_REG+0x30e8d11c>
    3060:	2c 34 29 2c 	unknown
    3064:	36 34 2c 33 	unknown
    3068:	32 3b 75 6e 	unknown
    306c:	75 73 65 64 	call  d5cdc5fc <LEON_REG+0x55cdc5fc>
    3070:	3a 28 30 2c 	unknown
    3074:	34 29 2c 39 	unknown
    3078:	36 2c 33 32 	unknown
    307c:	3b 3b 00 4c 	sethi  %hi(0xec013000), %i5
    3080:	45 4f 4e 33 	call  153d694c <_trap_table-0x2b1296b4>
    3084:	5f 47 70 54 	call  7d1df1d4 <__end+0x3ccdb29c>
    3088:	69 6d 65 72 	call  a5b5c650 <LEON_REG+0x25b5c650>
    308c:	5f 52 65 67 	call  7d49c628 <__end+0x3cf986f0>
    3090:	73 5f 4d 61 	call  cd7d6614 <LEON_REG+0x4d7d6614>
    3094:	70 3a 74 28 	call  c0ea0134 <LEON_REG+0x40ea0134>
    3098:	34 2c 39 29 	unknown
    309c:	3d 28 34 2c 	sethi  %hi(0xa0d0b000), %fp
    30a0:	31 30 29 3d 	sethi  %hi(0xc0a4f400), %i0
    30a4:	73 31 34 34 	call  ccc50174 <LEON_REG+0x4cc50174>
    30a8:	73 63 61 6c 	call  cd8db658 <LEON_REG+0x4d8db658>
    30ac:	61 72 3a 28 	call  85c9194c <LEON_REG+0x5c9194c>
    30b0:	30 2c 34 29 	unknown
    30b4:	2c 30 2c 33 	unknown
    30b8:	32 3b 73 63 	unknown
    30bc:	61 6c 61 72 	call  85b1b684 <LEON_REG+0x5b1b684>
    30c0:	5f 72 65 6c 	call  7dc9c670 <__end+0x3d798738>
    30c4:	6f 61 64 3a 	call  bd85c1ac <LEON_REG+0x3d85c1ac>
    30c8:	28 30 2c 34 	unknown
    30cc:	29 2c 33 32 	sethi  %hi(0xb0ccc800), %l4
    30d0:	2c 33 32 3b 	unknown
    30d4:	63 6f 6e 66 	call  8dbdea6c <LEON_REG+0xdbdea6c>
    30d8:	69 67 3a 28 	call  a59d1978 <LEON_REG+0x259d1978>
    30dc:	30 2c 34 29 	unknown
    30e0:	2c 36 34 2c 	unknown
    30e4:	33 32 3b 75 	sethi  %hi(0xc8edd400), %i1
    30e8:	6e 75 73 65 	call  b9d5fe7c <LEON_REG+0x39d5fe7c>
    30ec:	64 3a 28 30 	call  90e8d1ac <LEON_REG+0x10e8d1ac>
    30f0:	2c 34 29 2c 	unknown
    30f4:	39 36 2c 33 	sethi  %hi(0xd8b0cc00), %i4
    30f8:	32 3b 65 3a 	unknown
    30fc:	28 34 2c 31 	unknown
    3100:	31 29 3d 61 	sethi  %hi(0xa4f58400), %i0
    3104:	72 28 31 2c 	call  c8a0f5b4 <LEON_REG+0x48a0f5b4>
    3108:	33 29 3b 30 	sethi  %hi(0xa4ecc000), %i1
    310c:	3b 37 3b 28 	sethi  %hi(0xdceca000), %i5
    3110:	34 2c 31 32 	unknown
    3114:	29 3d 42 28 	sethi  %hi(0xf508a000), %l4
    3118:	34 2c 37 29 	unknown
    311c:	2c 31 32 38 	unknown
    3120:	2c 31 30 32 	unknown
    3124:	34 3b 3b 00 	unknown
    3128:	4c 45 4f 4e 	call  31156e60 <_trap_table-0xf3a91a0>
    312c:	33 5f 49 4f 	unknown
    3130:	50 4f 52 54 	call  413d7a80 <__end+0xed3b48>
    3134:	5f 52 65 67 	call  7d49c6d0 <__end+0x3cf98798>
    3138:	73 5f 4d 61 	call  cd7d66bc <LEON_REG+0x4d7d66bc>
    313c:	70 3a 74 28 	call  c0ea01dc <LEON_REG+0x40ea01dc>
    3140:	34 2c 31 33 	unknown
    3144:	29 3d 28 34 	sethi  %hi(0xf4a0d000), %l4
    3148:	2c 31 34 29 	unknown
    314c:	3d 73 32 34 	unknown
    3150:	69 6f 64 61 	call  a5bdc2d4 <LEON_REG+0x25bdc2d4>
    3154:	74 61 3a 28 	call  d18519f4 <LEON_REG+0x518519f4>
    3158:	30 2c 34 29 	unknown
    315c:	2c 30 2c 33 	unknown
    3160:	32 3b 69 6f 	unknown
    3164:	6f 75 74 3a 	call  bdd6024c <LEON_REG+0x3dd6024c>
    3168:	28 30 2c 34 	unknown
    316c:	29 2c 33 32 	sethi  %hi(0xb0ccc800), %l4
    3170:	2c 33 32 3b 	unknown
    3174:	69 6f 64 69 	call  a5bdc318 <LEON_REG+0x25bdc318>
    3178:	72 3a 28 30 	call  c8e8d238 <LEON_REG+0x48e8d238>
    317c:	2c 34 29 2c 	unknown
    3180:	36 34 2c 33 	unknown
    3184:	32 3b 69 72 	unknown
    3188:	71 6d 61 73 	call  c5b5b754 <LEON_REG+0x45b5b754>
    318c:	6b 3a 28 30 	call  ace8d24c <LEON_REG+0x2ce8d24c>
    3190:	2c 34 29 2c 	unknown
    3194:	39 36 2c 33 	sethi  %hi(0xd8b0cc00), %i4
    3198:	32 3b 69 72 	unknown
    319c:	71 70 6f 6c 	call  c5c1ef4c <LEON_REG+0x45c1ef4c>
    31a0:	3a 28 30 2c 	unknown
    31a4:	34 29 2c 31 	unknown
    31a8:	32 38 2c 33 	unknown
    31ac:	32 3b 69 72 	unknown
    31b0:	71 65 64 67 	call  c595c34c <LEON_REG+0x4595c34c>
    31b4:	65 3a 28 30 	call  94e8d274 <LEON_REG+0x14e8d274>
    31b8:	2c 34 29 2c 	unknown
    31bc:	31 36 30 2c 	sethi  %hi(0xd8c0b000), %i0
    31c0:	33 32 3b 3b 	sethi  %hi(0xc8ecec00), %i1
    31c4:	00 61 6d 62 	unknown
    31c8:	61 5f 64 65 	call  857dc35c <LEON_REG+0x57dc35c>
    31cc:	76 69 63 65 	call  d9a5bf60 <LEON_REG+0x59a5bf60>
    31d0:	5f 74 61 62 	call  7dd1b758 <__end+0x3d817820>
    31d4:	6c 65 3a 54 	call  b1951b24 <LEON_REG+0x31951b24>
    31d8:	28 34 2c 31 	unknown
    31dc:	35 29 3d 73 	sethi  %hi(0xa4f5cc00), %i2
    31e0:	37 32 64 65 	sethi  %hi(0xc9919400), %i3
    31e4:	76 6e 72 3a 	call  d9b9facc <LEON_REG+0x59b9facc>
    31e8:	28 30 2c 31 	unknown
    31ec:	29 2c 30 2c 	sethi  %hi(0xb0c0b000), %l4
    31f0:	33 32 3b 61 	sethi  %hi(0xc8ed8400), %i1
    31f4:	64 64 72 3a 	call  9191fadc <LEON_REG+0x1191fadc>
    31f8:	28 34 2c 31 	unknown
    31fc:	36 29 3d 61 	unknown
    3200:	72 28 31 2c 	call  c8a0f6b0 <LEON_REG+0x48a0f6b0>
    3204:	33 29 3b 30 	sethi  %hi(0xa4ecc000), %i1
    3208:	3b 31 35 3b 	sethi  %hi(0xc4d4ec00), %i5
    320c:	28 34 2c 31 	unknown
    3210:	37 29 3d 2a 	sethi  %hi(0xa4f4a800), %i3
    3214:	28 30 2c 34 	unknown
    3218:	29 2c 33 32 	sethi  %hi(0xb0ccc800), %l4
    321c:	2c 35 31 32 	unknown
    3220:	3b 61 6c 6c 	unknown
    3224:	6f 63 62 69 	call  bd8dbbc8 <LEON_REG+0x3d8dbbc8>
    3228:	74 73 3a 28 	call  d1cd1ac8 <LEON_REG+0x51cd1ac8>
    322c:	34 2c 31 38 	unknown
    3230:	29 3d 61 72 	sethi  %hi(0xf585c800), %l4
    3234:	28 31 2c 33 	unknown
    3238:	29 3b 30 3b 	sethi  %hi(0xecc0ec00), %l4
    323c:	30 3b 28 30 	unknown
    3240:	2c 34 29 2c 	unknown
    3244:	35 34 34 2c 	sethi  %hi(0xd0d0b000), %i2
    3248:	33 32 3b 3b 	sethi  %hi(0xc8ecec00), %i1
    324c:	00 61 6d 62 	unknown
    3250:	61 5f 64 65 	call  857dc3e4 <LEON_REG+0x57dc3e4>
    3254:	76 69 63 65 	call  d9a5bfe8 <LEON_REG+0x59a5bfe8>
    3258:	5f 74 61 62 	call  7dd1b7e0 <__end+0x3d8178a8>
    325c:	6c 65 3a 74 	call  b1951c2c <LEON_REG+0x31951c2c>
    3260:	28 34 2c 31 	unknown
    3264:	39 29 3d 28 	sethi  %hi(0xa4f4a000), %i4
    3268:	34 2c 31 35 	unknown
    326c:	29 00 61 6d 	sethi  %hi(0x185b400), %l4
    3270:	62 61 5f 63 	call  8985affc <LEON_REG+0x985affc>
    3274:	6f 6e 66 61 	call  bdb9cbf8 <LEON_REG+0x3db9cbf8>
    3278:	72 65 61 5f 	call  c995b7f4 <LEON_REG+0x4995b7f4>
    327c:	74 79 70 65 	call  d1e5f410 <LEON_REG+0x51e5f410>
    3280:	3a 54 28 34 	unknown
    3284:	2c 32 30 29 	unknown
    3288:	3d 73 32 32 	unknown
    328c:	30 61 68 62 	unknown
    3290:	6d 73 74 3a 	call  b5ce0378 <LEON_REG+0x35ce0378>
    3294:	28 34 2c 31 	unknown
    3298:	39 29 2c 30 	sethi  %hi(0xa4b0c000), %i4
    329c:	2c 35 37 36 	unknown
    32a0:	3b 61 68 62 	unknown
    32a4:	73 6c 76 3a 	call  cdb20b8c <LEON_REG+0x4db20b8c>
    32a8:	28 34 2c 31 	unknown
    32ac:	39 29 2c 35 	sethi  %hi(0xa4b0d400), %i4
    32b0:	37 36 2c 35 	sethi  %hi(0xd8b0d400), %i3
    32b4:	37 36 3b 61 	sethi  %hi(0xd8ed8400), %i3
    32b8:	70 62 73 6c 	call  c18a0068 <LEON_REG+0x418a0068>
    32bc:	76 3a 28 34 	call  d8e8d38c <LEON_REG+0x58e8d38c>
    32c0:	2c 31 39 29 	unknown
    32c4:	2c 31 31 35 	unknown
    32c8:	32 2c 35 37 	unknown
    32cc:	36 3b 61 70 	unknown
    32d0:	62 6d 73 74 	call  89b600a0 <LEON_REG+0x9b600a0>
    32d4:	3a 28 30 2c 	unknown
    32d8:	34 29 2c 31 	unknown
    32dc:	37 32 38 2c 	sethi  %hi(0xc8e0b000), %i3
    32e0:	33 32 3b 3b 	sethi  %hi(0xc8ecec00), %i1
    32e4:	00 61 6d 62 	unknown
    32e8:	61 5f 63 6f 	call  857dc0a4 <LEON_REG+0x57dc0a4>
    32ec:	6e 66 61 72 	call  b999b8b4 <LEON_REG+0x3999b8b4>
    32f0:	65 61 5f 74 	call  9585b0c0 <LEON_REG+0x1585b0c0>
    32f4:	79 70 65 3a 	call  e5c1c7dc <LEON_REG+0x65c1c7dc>
    32f8:	74 28 34 2c 	call  d0a103a8 <LEON_REG+0x50a103a8>
    32fc:	32 31 29 3d 	unknown
    3300:	28 34 2c 32 	unknown
    3304:	30 29 00 61 	unknown
    3308:	6d 62 61 5f 	call  b589b884 <LEON_REG+0x3589b884>
    330c:	61 70 62 5f 	call  85c1bc88 <LEON_REG+0x5c1bc88>
    3310:	64 65 76 69 	call  91960cb4 <LEON_REG+0x11960cb4>
    3314:	63 65 3a 54 	call  8d951c64 <LEON_REG+0xd951c64>
    3318:	28 34 2c 32 	unknown
    331c:	32 29 3d 73 	unknown
    3320:	38 73 74 61 	unknown
    3324:	72 74 3a 28 	call  c9d11bc4 <LEON_REG+0x49d11bc4>
    3328:	30 2c 34 29 	unknown
    332c:	2c 30 2c 33 	unknown
    3330:	32 3b 69 72 	unknown
    3334:	71 3a 28 30 	call  c4e8d3f4 <LEON_REG+0x44e8d3f4>
    3338:	2c 34 29 2c 	unknown
    333c:	33 32 2c 33 	sethi  %hi(0xc8b0cc00), %i1
    3340:	32 3b 3b 00 	unknown
    3344:	61 6d 62 61 	call  85b5bcc8 <LEON_REG+0x5b5bcc8>
    3348:	5f 61 70 62 	call  7d85f4d0 <__end+0x3d35b598>
    334c:	5f 64 65 76 	call  7d91c924 <__end+0x3d4189ec>
    3350:	69 63 65 3a 	call  a58dc838 <LEON_REG+0x258dc838>
    3354:	74 28 34 2c 	call  d0a10404 <LEON_REG+0x50a10404>
    3358:	32 33 29 3d 	unknown
    335c:	28 34 2c 32 	unknown
    3360:	32 29 00 61 	unknown
    3364:	6d 62 61 5f 	call  b589b8e0 <LEON_REG+0x3589b8e0>
    3368:	61 68 62 5f 	call  85a1bce4 <LEON_REG+0x5a1bce4>
    336c:	64 65 76 69 	call  91960d10 <LEON_REG+0x11960d10>
    3370:	63 65 3a 54 	call  8d951cc0 <LEON_REG+0xd951cc0>
    3374:	28 34 2c 32 	unknown
    3378:	34 29 3d 73 	unknown
    337c:	32 30 73 74 	unknown
    3380:	61 72 74 3a 	call  85ca0468 <LEON_REG+0x5ca0468>
    3384:	28 34 2c 32 	unknown
    3388:	35 29 3d 61 	sethi  %hi(0xa4f58400), %i2
    338c:	72 28 31 2c 	call  c8a0f83c <LEON_REG+0x48a0f83c>
    3390:	33 29 3b 30 	sethi  %hi(0xa4ecc000), %i1
    3394:	3b 33 3b 28 	sethi  %hi(0xcceca000), %i5
    3398:	30 2c 34 29 	unknown
    339c:	2c 30 2c 31 	unknown
    33a0:	32 38 3b 69 	unknown
    33a4:	72 71 3a 28 	call  c9c51c44 <LEON_REG+0x49c51c44>
    33a8:	30 2c 34 29 	unknown
    33ac:	2c 31 32 38 	unknown
    33b0:	2c 33 32 3b 	unknown
    33b4:	3b 00 61 6d 	sethi  %hi(0x185b400), %i5
    33b8:	62 61 5f 61 	call  8985b13c <LEON_REG+0x985b13c>
    33bc:	68 62 5f 64 	call  a189b14c <LEON_REG+0x2189b14c>
    33c0:	65 76 69 63 	call  95d9d94c <LEON_REG+0x15d9d94c>
    33c4:	65 3a 74 28 	call  94ea0464 <LEON_REG+0x14ea0464>
    33c8:	34 2c 32 36 	unknown
    33cc:	29 3d 28 34 	sethi  %hi(0xf4a0d000), %l4
    33d0:	2c 32 34 29 	unknown
    33d4:	00 4c 45 4f 	unknown
    33d8:	4e 5f 52 65 	call  397d7d6c <_trap_table-0x6d28294>
    33dc:	67 69 73 74 	call  9da601ac <LEON_REG+0x1da601ac>
    33e0:	65 72 5f 4d 	call  95c9b114 <LEON_REG+0x15c9b114>
    33e4:	61 70 3a 74 	call  85c11db4 <LEON_REG+0x5c11db4>
    33e8:	28 33 2c 31 	unknown
    33ec:	29 3d 28 33 	sethi  %hi(0xf4a0cc00), %l4
    33f0:	2c 32 29 3d 	unknown
    33f4:	73 31 37 32 	call  ccc510bc <LEON_REG+0x4cc510bc>
    33f8:	4d 65 6d 6f 	call  3595e9b4 <_trap_table-0xaba164c>
    33fc:	72 79 5f 43 	call  c9e5b108 <LEON_REG+0x49e5b108>
    3400:	6f 6e 66 69 	call  bdb9cda4 <LEON_REG+0x3db9cda4>
    3404:	67 5f 31 3a 	call  9d7cf8ec <LEON_REG+0x1d7cf8ec>
    3408:	28 30 2c 34 	unknown
    340c:	29 2c 30 2c 	sethi  %hi(0xb0c0b000), %l4
    3410:	33 32 3b 4d 	sethi  %hi(0xc8ed3400), %i1
    3414:	65 6d 6f 72 	call  95b5f1dc <LEON_REG+0x15b5f1dc>
    3418:	79 5f 43 6f 	call  e57d41d4 <LEON_REG+0x657d41d4>
    341c:	6e 66 69 67 	call  b999d9b8 <LEON_REG+0x3999d9b8>
    3420:	5f 32 3a 28 	call  7cc91cc0 <__end+0x3c78dd88>
    3424:	30 2c 34 29 	unknown
    3428:	2c 33 32 2c 	unknown
    342c:	33 32 3b 45 	sethi  %hi(0xc8ed1400), %i1
    3430:	64 61 63 5f 	call  9185c1ac <LEON_REG+0x1185c1ac>
    3434:	43 6f 6e 74 	call  dbdee04 <_trap_table-0x329211fc>
    3438:	72 6f 6c 3a 	call  c9bde520 <LEON_REG+0x49bde520>
    343c:	28 30 2c 34 	unknown
    3440:	29 2c 36 34 	sethi  %hi(0xb0d8d000), %l4
    3444:	2c 33 32 3b 	unknown
    3448:	46 61 69 6c 	call  1985d9f8 <_trap_table-0x26ca2608>
    344c:	65 64 5f 41 	call  9591b150 <LEON_REG+0x1591b150>
    3450:	64 64 72 65 	call  9191fde4 <LEON_REG+0x1191fde4>
    3454:	73 73 3a 28 	call  cdcd1cf4 <LEON_REG+0x4dcd1cf4>
    3458:	30 2c 34 29 	unknown
    345c:	2c 39 36 2c 	unknown
    3460:	33 32 3b 4d 	sethi  %hi(0xc8ed3400), %i1
    3464:	65 6d 6f 72 	call  95b5f22c <LEON_REG+0x15b5f22c>
    3468:	79 5f 53 74 	call  e57d8238 <LEON_REG+0x657d8238>
    346c:	61 74 75 73 	call  85d20a38 <LEON_REG+0x5d20a38>
    3470:	3a 28 30 2c 	unknown
    3474:	34 29 2c 31 	unknown
    3478:	32 38 2c 33 	unknown
    347c:	32 3b 43 61 	unknown
    3480:	63 68 65 5f 	call  8da1c9fc <LEON_REG+0xda1c9fc>
    3484:	43 6f 6e 74 	call  dbdee54 <_trap_table-0x329211ac>
    3488:	72 6f 6c 3a 	call  c9bde570 <LEON_REG+0x49bde570>
    348c:	28 30 2c 34 	unknown
    3490:	29 2c 31 36 	sethi  %hi(0xb0c4d800), %l4
    3494:	30 2c 33 32 	unknown
    3498:	3b 50 6f 77 	unknown
    349c:	65 72 5f 44 	call  95c9b1ac <LEON_REG+0x15c9b1ac>
    34a0:	6f 77 6e 3a 	call  bddded88 <LEON_REG+0x3ddded88>
    34a4:	28 30 2c 34 	unknown
    34a8:	29 2c 31 39 	sethi  %hi(0xb0c4e400), %l4
    34ac:	32 2c 33 32 	unknown
    34b0:	3b 57 72 69 	unknown
    34b4:	74 65 5f 50 	call  d195b1f4 <LEON_REG+0x5195b1f4>
    34b8:	72 6f 74 65 	call  c9be064c <LEON_REG+0x49be064c>
    34bc:	63 74 69 6f 	call  8dd1da78 <LEON_REG+0xdd1da78>
    34c0:	6e 5f 31 3a 	call  b97cf9a8 <LEON_REG+0x397cf9a8>
    34c4:	28 30 2c 34 	unknown
    34c8:	29 2c 32 32 	sethi  %hi(0xb0c8c800), %l4
    34cc:	34 2c 33 32 	unknown
    34d0:	3b 57 72 69 	unknown
    34d4:	74 65 5f 50 	call  d195b214 <LEON_REG+0x5195b214>
    34d8:	72 6f 74 65 	call  c9be066c <LEON_REG+0x49be066c>
    34dc:	63 74 69 6f 	call  8dd1da98 <LEON_REG+0xdd1da98>
    34e0:	6e 5f 32 3a 	call  b97cfdc8 <LEON_REG+0x397cfdc8>
    34e4:	28 30 2c 34 	unknown
    34e8:	29 2c 32 35 	sethi  %hi(0xb0c8d400), %l4
    34ec:	36 2c 33 32 	unknown
    34f0:	3b 4c 65 6f 	unknown
    34f4:	6e 5f 43 6f 	call  b97d42b0 <LEON_REG+0x397d42b0>
    34f8:	6e 66 69 67 	call  b999da94 <LEON_REG+0x3999da94>
    34fc:	75 72 61 74 	call  d5c9bacc <LEON_REG+0x55c9bacc>
    3500:	69 6f 6e 3a 	call  a5bdede8 <LEON_REG+0x25bdede8>
    3504:	28 30 2c 34 	unknown
    3508:	29 2c 32 38 	sethi  %hi(0xb0c8e000), %l4
    350c:	38 2c 33 32 	unknown
    3510:	3b 64 75 6d 	unknown
    3514:	6d 79 32 3a 	call  b5e4fdfc <LEON_REG+0x35e4fdfc>
    3518:	28 30 2c 34 	unknown
    351c:	29 2c 33 32 	sethi  %hi(0xb0ccc800), %l4
    3520:	30 2c 33 32 	unknown
    3524:	3b 64 75 6d 	unknown
    3528:	6d 79 33 3a 	call  b5e50210 <LEON_REG+0x35e50210>
    352c:	28 30 2c 34 	unknown
    3530:	29 2c 33 35 	sethi  %hi(0xb0ccd400), %l4
    3534:	32 2c 33 32 	unknown
    3538:	3b 64 75 6d 	unknown
    353c:	6d 79 34 3a 	call  b5e50624 <LEON_REG+0x35e50624>
    3540:	28 30 2c 34 	unknown
    3544:	29 2c 33 38 	sethi  %hi(0xb0cce000), %l4
    3548:	34 2c 33 32 	unknown
    354c:	3b 64 75 6d 	unknown
    3550:	6d 79 35 3a 	call  b5e50a38 <LEON_REG+0x35e50a38>
    3554:	28 30 2c 34 	unknown
    3558:	29 2c 34 31 	sethi  %hi(0xb0d0c400), %l4
    355c:	36 2c 33 32 	unknown
    3560:	3b 64 75 6d 	unknown
    3564:	6d 79 36 3a 	call  b5e50e4c <LEON_REG+0x35e50e4c>
    3568:	28 30 2c 34 	unknown
    356c:	29 2c 34 34 	sethi  %hi(0xb0d0d000), %l4
    3570:	38 2c 33 32 	unknown
    3574:	3b 64 75 6d 	unknown
    3578:	6d 79 37 3a 	call  b5e51260 <LEON_REG+0x35e51260>
    357c:	28 30 2c 34 	unknown
    3580:	29 2c 34 38 	sethi  %hi(0xb0d0e000), %l4
    3584:	30 2c 33 32 	unknown
    3588:	3b 54 69 6d 	unknown
    358c:	65 72 5f 43 	call  95c9b298 <LEON_REG+0x15c9b298>
    3590:	6f 75 6e 74 	call  bdd5ef60 <LEON_REG+0x3dd5ef60>
    3594:	65 72 5f 31 	call  95c9b258 <LEON_REG+0x15c9b258>
    3598:	3a 28 30 2c 	unknown
    359c:	34 29 2c 35 	unknown
    35a0:	31 32 2c 33 	sethi  %hi(0xc8b0cc00), %i0
    35a4:	32 3b 54 69 	unknown
    35a8:	6d 65 72 5f 	call  b595ff24 <LEON_REG+0x3595ff24>
    35ac:	52 65 6c 6f 	call  4995e768 <__end+0x945a830>
    35b0:	61 64 5f 31 	call  8591b274 <LEON_REG+0x591b274>
    35b4:	3a 28 30 2c 	unknown
    35b8:	34 29 2c 35 	unknown
    35bc:	34 34 2c 33 	unknown
    35c0:	32 3b 54 69 	unknown
    35c4:	6d 65 72 5f 	call  b595ff40 <LEON_REG+0x3595ff40>
    35c8:	43 6f 6e 74 	call  dbdef98 <_trap_table-0x32921068>
    35cc:	72 6f 6c 5f 	call  c9bde748 <LEON_REG+0x49bde748>
    35d0:	31 3a 28 30 	sethi  %hi(0xe8a0c000), %i0
    35d4:	2c 34 29 2c 	unknown
    35d8:	35 37 36 2c 	sethi  %hi(0xdcd8b000), %i2
    35dc:	33 32 3b 57 	sethi  %hi(0xc8ed5c00), %i1
    35e0:	61 74 63 68 	call  85d1c380 <LEON_REG+0x5d1c380>
    35e4:	64 6f 67 3a 	call  91bdd2cc <LEON_REG+0x11bdd2cc>
    35e8:	28 30 2c 34 	unknown
    35ec:	29 2c 36 30 	sethi  %hi(0xb0d8c000), %l4
    35f0:	38 2c 33 32 	unknown
    35f4:	3b 54 69 6d 	unknown
    35f8:	65 72 5f 43 	call  95c9b304 <LEON_REG+0x15c9b304>
    35fc:	6f 75 6e 74 	call  bdd5efcc <LEON_REG+0x3dd5efcc>
    3600:	65 72 5f 32 	call  95c9b2c8 <LEON_REG+0x15c9b2c8>
    3604:	3a 28 30 2c 	unknown
    3608:	34 29 2c 36 	unknown
    360c:	34 30 2c 33 	unknown
    3610:	32 3b 54 69 	unknown
    3614:	6d 65 72 5f 	call  b595ff90 <LEON_REG+0x3595ff90>
    3618:	52 65 6c 6f 	call  4995e7d4 <__end+0x945a89c>
    361c:	61 64 5f 32 	call  8591b2e4 <LEON_REG+0x591b2e4>
    3620:	3a 28 30 2c 	unknown
    3624:	34 29 2c 36 	unknown
    3628:	37 32 2c 33 	sethi  %hi(0xc8b0cc00), %i3
    362c:	32 3b 54 69 	unknown
    3630:	6d 65 72 5f 	call  b595ffac <LEON_REG+0x3595ffac>
    3634:	43 6f 6e 74 	call  dbdf004 <_trap_table-0x32920ffc>
    3638:	72 6f 6c 5f 	call  c9bde7b4 <LEON_REG+0x49bde7b4>
    363c:	32 3a 28 30 	unknown
    3640:	2c 34 29 2c 	unknown
    3644:	37 30 34 2c 	sethi  %hi(0xc0d0b000), %i3
    3648:	33 32 3b 64 	sethi  %hi(0xc8ed9000), %i1
    364c:	75 6d 6d 79 	call  d5b5ec30 <LEON_REG+0x55b5ec30>
    3650:	38 3a 28 30 	unknown
    3654:	2c 34 29 2c 	unknown
    3658:	37 33 36 2c 	sethi  %hi(0xccd8b000), %i3
    365c:	33 32 3b 53 	sethi  %hi(0xc8ed4c00), %i1
    3660:	63 61 6c 65 	call  8d85e7f4 <LEON_REG+0xd85e7f4>
    3664:	72 5f 43 6f 	call  c97d4420 <LEON_REG+0x497d4420>
    3668:	75 6e 74 65 	call  d5ba07fc <LEON_REG+0x55ba07fc>
    366c:	72 3a 28 30 	call  c8e8d72c <LEON_REG+0x48e8d72c>
    3670:	2c 34 29 2c 	unknown
    3674:	37 36 38 2c 	sethi  %hi(0xd8e0b000), %i3
    3678:	33 32 3b 53 	sethi  %hi(0xc8ed4c00), %i1
    367c:	63 61 6c 65 	call  8d85e810 <LEON_REG+0xd85e810>
    3680:	72 5f 52 65 	call  c97d8014 <LEON_REG+0x497d8014>
    3684:	6c 6f 61 64 	call  b1bdbc14 <LEON_REG+0x31bdbc14>
    3688:	3a 28 30 2c 	unknown
    368c:	34 29 2c 38 	unknown
    3690:	30 30 2c 33 	unknown
    3694:	32 3b 64 75 	unknown
    3698:	6d 6d 79 39 	call  b5b61b7c <LEON_REG+0x35b61b7c>
    369c:	3a 28 30 2c 	unknown
    36a0:	34 29 2c 38 	unknown
    36a4:	33 32 2c 33 	sethi  %hi(0xc8b0cc00), %i1
    36a8:	32 3b 64 75 	unknown
    36ac:	6d 6d 79 31 	call  b5b61b70 <LEON_REG+0x35b61b70>
    36b0:	30 3a 28 30 	unknown
    36b4:	2c 34 29 2c 	unknown
    36b8:	38 36 34 2c 	unknown
    36bc:	33 32 3b 55 	sethi  %hi(0xc8ed5400), %i1
    36c0:	41 52 54 5f 	call  549883c <_trap_table-0x3b0677c4>
    36c4:	43 68 61 6e 	call  da1bc7c <_trap_table-0x32ae4384>
    36c8:	6e 65 6c 5f 	call  b995e844 <LEON_REG+0x3995e844>
    36cc:	31 3a 28 30 	sethi  %hi(0xe8a0c000), %i0
    36d0:	2c 34 29 2c 	unknown
    36d4:	38 39 36 2c 	unknown
    36d8:	33 32 3b 55 	sethi  %hi(0xc8ed5400), %i1
    36dc:	41 52 54 5f 	call  5498858 <_trap_table-0x3b0677a8>
    36e0:	53 74 61 74 	call  4dd1bcb0 <__end+0xd817d78>
    36e4:	75 73 5f 31 	call  d5cdb3a8 <LEON_REG+0x55cdb3a8>
    36e8:	3a 28 30 2c 	unknown
    36ec:	34 29 2c 39 	unknown
    36f0:	32 38 2c 33 	unknown
    36f4:	32 3b 55 41 	unknown
    36f8:	52 54 5f 43 	call  4951b404 <__end+0x90174cc>
    36fc:	6f 6e 74 72 	call  bdba08c4 <LEON_REG+0x3dba08c4>
    3700:	6f 6c 5f 31 	call  bdb1b3c4 <LEON_REG+0x3db1b3c4>
    3704:	3a 28 30 2c 	unknown
    3708:	34 29 2c 39 	unknown
    370c:	36 30 2c 33 	unknown
    3710:	32 3b 55 41 	unknown
    3714:	52 54 5f 53 	call  4951b460 <__end+0x9017528>
    3718:	63 61 6c 65 	call  8d85e8ac <LEON_REG+0xd85e8ac>
    371c:	72 5f 31 3a 	call  c97cfc04 <LEON_REG+0x497cfc04>
    3720:	28 30 2c 34 	unknown
    3724:	29 2c 39 39 	sethi  %hi(0xb0e4e400), %l4
    3728:	32 2c 33 32 	unknown
    372c:	3b 55 41 52 	unknown
    3730:	54 5f 43 68 	call  517d44d0 <__end+0x112d0598>
    3734:	61 6e 6e 65 	call  85b9f0c8 <LEON_REG+0x5b9f0c8>
    3738:	6c 5f 32 3a 	call  b17d0020 <LEON_REG+0x317d0020>
    373c:	28 30 2c 34 	unknown
    3740:	29 2c 31 30 	sethi  %hi(0xb0c4c000), %l4
    3744:	32 34 2c 33 	unknown
    3748:	32 3b 55 41 	unknown
    374c:	52 54 5f 53 	call  4951b498 <__end+0x9017560>
    3750:	74 61 74 75 	call  d1860924 <LEON_REG+0x51860924>
    3754:	73 5f 32 3a 	call  cd7d003c <LEON_REG+0x4d7d003c>
    3758:	28 30 2c 34 	unknown
    375c:	29 2c 31 30 	sethi  %hi(0xb0c4c000), %l4
    3760:	35 36 2c 33 	sethi  %hi(0xd8b0cc00), %i2
    3764:	32 3b 55 41 	unknown
    3768:	52 54 5f 43 	call  4951b474 <__end+0x901753c>
    376c:	6f 6e 74 72 	call  bdba0934 <LEON_REG+0x3dba0934>
    3770:	6f 6c 5f 32 	call  bdb1b438 <LEON_REG+0x3db1b438>
    3774:	3a 28 30 2c 	unknown
    3778:	34 29 2c 31 	unknown
    377c:	30 38 38 2c 	unknown
    3780:	33 32 3b 5c 	sethi  %hi(0xc8ed7000), %i1
    3784:	00 55 41 52 	unknown
    3788:	54 5f 53 63 	call  517d8514 <__end+0x112d45dc>
    378c:	61 6c 65 72 	call  85b1cd54 <LEON_REG+0x5b1cd54>
    3790:	5f 32 3a 28 	call  7cc92030 <__end+0x3c78e0f8>
    3794:	30 2c 34 29 	unknown
    3798:	2c 31 31 32 	unknown
    379c:	30 2c 33 32 	unknown
    37a0:	3b 49 6e 74 	unknown
    37a4:	65 72 72 75 	call  95ca0178 <LEON_REG+0x15ca0178>
    37a8:	70 74 5f 4d 	call  c1d1b4dc <LEON_REG+0x41d1b4dc>
    37ac:	61 73 6b 3a 	call  85cde494 <LEON_REG+0x5cde494>
    37b0:	28 30 2c 34 	unknown
    37b4:	29 2c 31 31 	sethi  %hi(0xb0c4c400), %l4
    37b8:	35 32 2c 33 	sethi  %hi(0xc8b0cc00), %i2
    37bc:	32 3b 49 6e 	unknown
    37c0:	74 65 72 72 	call  d1960188 <LEON_REG+0x51960188>
    37c4:	75 70 74 5f 	call  d5c20940 <LEON_REG+0x55c20940>
    37c8:	50 65 6e 64 	call  4195f158 <__end+0x145b220>
    37cc:	69 6e 67 3a 	call  a5b9d4b4 <LEON_REG+0x25b9d4b4>
    37d0:	28 30 2c 34 	unknown
    37d4:	29 2c 31 31 	sethi  %hi(0xb0c4c400), %l4
    37d8:	38 34 2c 33 	unknown
    37dc:	32 3b 49 6e 	unknown
    37e0:	74 65 72 72 	call  d19601a8 <LEON_REG+0x519601a8>
    37e4:	75 70 74 5f 	call  d5c20960 <LEON_REG+0x55c20960>
    37e8:	46 6f 72 63 	call  19be0174 <_trap_table-0x2691fe8c>
    37ec:	65 3a 28 30 	call  94e8d8ac <LEON_REG+0x14e8d8ac>
    37f0:	2c 34 29 2c 	unknown
    37f4:	31 32 31 36 	sethi  %hi(0xc8c4d800), %i0
    37f8:	2c 33 32 3b 	unknown
    37fc:	49 6e 74 65 	call  25ba0990 <_trap_table-0x1a95f670>
    3800:	72 72 75 70 	call  c9ca0dc0 <LEON_REG+0x49ca0dc0>
    3804:	74 5f 43 6c 	call  d17d45b4 <LEON_REG+0x517d45b4>
    3808:	65 61 72 3a 	call  958600f0 <LEON_REG+0x158600f0>
    380c:	28 30 2c 34 	unknown
    3810:	29 2c 31 32 	sethi  %hi(0xb0c4c800), %l4
    3814:	34 38 2c 33 	unknown
    3818:	32 3b 50 49 	unknown
    381c:	4f 5f 44 61 	call  3d7d49a0 <_trap_table-0x2d2b660>
    3820:	74 61 3a 28 	call  d18520c0 <LEON_REG+0x518520c0>
    3824:	30 2c 34 29 	unknown
    3828:	2c 31 32 38 	unknown
    382c:	30 2c 33 32 	unknown
    3830:	3b 50 49 4f 	unknown
    3834:	5f 44 69 72 	call  7d11ddfc <__end+0x3cc19ec4>
    3838:	65 63 74 69 	call  958e09dc <LEON_REG+0x158e09dc>
    383c:	6f 6e 3a 28 	call  bdb920dc <LEON_REG+0x3db920dc>
    3840:	30 2c 34 29 	unknown
    3844:	2c 31 33 31 	unknown
    3848:	32 2c 33 32 	unknown
    384c:	3b 50 49 4f 	unknown
    3850:	5f 49 6e 74 	call  7d25f220 <__end+0x3cd5b2e8>
    3854:	65 72 72 75 	call  95ca0228 <LEON_REG+0x15ca0228>
    3858:	70 74 3a 28 	call  c1d120f8 <LEON_REG+0x41d120f8>
    385c:	30 2c 34 29 	unknown
    3860:	2c 31 33 34 	unknown
    3864:	34 2c 33 32 	unknown
    3868:	3b 3b 00 69 	sethi  %hi(0xec01a400), %i5
    386c:	72 71 68 61 	call  c9c5d9f0 <LEON_REG+0x49c5d9f0>
    3870:	6e 64 6c 65 	call  b991ea04 <LEON_REG+0x3991ea04>
    3874:	72 3a 74 28 	call  c8ea0914 <LEON_REG+0x48ea0914>
    3878:	32 2c 31 29 	unknown
    387c:	3d 28 32 2c 	sethi  %hi(0xa0c8b000), %fp
    3880:	32 29 3d 2a 	unknown
    3884:	28 32 2c 33 	unknown
    3888:	29 3d 66 28 	sethi  %hi(0xf598a000), %l4
    388c:	30 2c 31 29 	unknown
    3890:	00 69 72 71 	unknown
    3894:	61 63 74 69 	call  858e0a38 <LEON_REG+0x58e0a38>
    3898:	6f 6e 3a 54 	call  bdb921e8 <LEON_REG+0x3db921e8>
    389c:	28 32 2c 34 	unknown
    38a0:	29 3d 73 31 	sethi  %hi(0xf5ccc400), %l4
    38a4:	36 68 61 6e 	unknown
    38a8:	64 6c 65 72 	call  91b1ce70 <LEON_REG+0x11b1ce70>
    38ac:	3a 28 32 2c 	unknown
    38b0:	31 29 2c 30 	sethi  %hi(0xa4b0c000), %i0
    38b4:	2c 33 32 3b 	unknown
    38b8:	66 6c 61 67 	call  99b1be54 <LEON_REG+0x19b1be54>
    38bc:	73 3a 28 30 	call  cce8d97c <LEON_REG+0x4ce8d97c>
    38c0:	2c 35 29 2c 	unknown
    38c4:	33 32 2c 33 	sethi  %hi(0xc8b0cc00), %i1
    38c8:	32 3b 64 65 	unknown
    38cc:	76 5f 69 64 	call  d97dde5c <LEON_REG+0x597dde5c>
    38d0:	3a 28 32 2c 	unknown
    38d4:	35 29 3d 2a 	sethi  %hi(0xa4f4a800), %i2
    38d8:	28 30 2c 31 	unknown
    38dc:	39 29 2c 36 	sethi  %hi(0xa4b0d800), %i4
    38e0:	34 2c 33 32 	unknown
    38e4:	3b 6e 65 78 	unknown
    38e8:	74 3a 28 32 	call  d0e8d9b0 <LEON_REG+0x50e8d9b0>
    38ec:	2c 36 29 3d 	unknown
    38f0:	2a 28 32 2c 	unknown
    38f4:	34 29 2c 39 	unknown
    38f8:	36 2c 33 32 	unknown
    38fc:	3b 3b 00 69 	sethi  %hi(0xec01a400), %i5
    3900:	72 71 6d 70 	call  c9c5eec0 <LEON_REG+0x49c5eec0>
    3904:	5f 74 79 70 	call  7dd21ec4 <__end+0x3d81df8c>
    3908:	65 3a 54 28 	call  94e989a8 <LEON_REG+0x14e989a8>
    390c:	32 2c 37 29 	unknown
    3910:	3d 73 38 61 	unknown
    3914:	64 64 72 3a 	call  919201fc <LEON_REG+0x119201fc>
    3918:	28 32 2c 38 	unknown
    391c:	29 3d 2a 28 	sethi  %hi(0xf4a8a000), %l4
    3920:	30 2c 31 29 	unknown
    3924:	2c 30 2c 33 	unknown
    3928:	32 3b 65 69 	unknown
    392c:	72 71 3a 28 	call  c9c521cc <LEON_REG+0x49c521cc>
    3930:	30 2c 31 29 	unknown
    3934:	2c 33 32 2c 	unknown
    3938:	33 32 3b 3b 	sethi  %hi(0xc8ecec00), %i1
    393c:	00 73 63 68 	unknown
    3940:	65 64 75 6c 	call  95920ef0 <LEON_REG+0x15920ef0>
    3944:	65 68 61 6e 	call  95a1befc <LEON_REG+0x15a1befc>
    3948:	64 6c 65 72 	call  91b1cf10 <LEON_REG+0x11b1cf10>
    394c:	3a 74 28 32 	unknown
    3950:	2c 39 29 3d 	unknown
    3954:	28 32 2c 31 	unknown
    3958:	30 29 3d 2a 	unknown
    395c:	28 32 2c 31 	unknown
    3960:	31 29 3d 66 	sethi  %hi(0xa4f59800), %i0
    3964:	28 30 2c 31 	unknown
    3968:	29 00 74 69 	sethi  %hi(0x1d1a400), %l4
    396c:	63 6b 65 72 	call  8dadcf34 <LEON_REG+0xdadcf34>
    3970:	68 61 6e 64 	call  a185f300 <LEON_REG+0x2185f300>
    3974:	6c 65 72 3a 	call  b196025c <LEON_REG+0x3196025c>
    3978:	74 28 32 2c 	call  d0a10228 <LEON_REG+0x50a10228>
    397c:	31 32 29 3d 	sethi  %hi(0xc8a4f400), %i0
    3980:	28 32 2c 31 	unknown
    3984:	30 29 00 70 	unknown
    3988:	65 6e 64 69 	call  95b9cb2c <LEON_REG+0x15b9cb2c>
    398c:	6e 67 68 61 	call  b99ddb10 <LEON_REG+0x399ddb10>
    3990:	6e 64 6c 65 	call  b991eb24 <LEON_REG+0x3991eb24>
    3994:	72 3a 74 28 	call  c8ea0a34 <LEON_REG+0x48ea0a34>
    3998:	32 2c 31 33 	unknown
    399c:	29 3d 28 32 	sethi  %hi(0xf4a0c800), %l4
    39a0:	2c 31 34 29 	unknown
    39a4:	3d 2a 28 32 	sethi  %hi(0xa8a0c800), %fp
    39a8:	2c 31 35 29 	unknown
    39ac:	3d 66 28 30 	unknown
    39b0:	2c 31 29 00 	unknown
    39b4:	70 65 6e 64 	call  c195f344 <LEON_REG+0x4195f344>
    39b8:	69 6e 67 61 	call  a5b9d73c <LEON_REG+0x25b9d73c>
    39bc:	63 74 69 6f 	call  8dd1df78 <LEON_REG+0xdd1df78>
    39c0:	6e 3a 54 28 	call  b8e98a60 <LEON_REG+0x38e98a60>
    39c4:	32 2c 31 36 	unknown
    39c8:	29 3d 73 31 	sethi  %hi(0xf5ccc400), %l4
    39cc:	36 6e 65 78 	unknown
    39d0:	74 3a 28 32 	call  d0e8da98 <LEON_REG+0x50e8da98>
    39d4:	2c 31 37 29 	unknown
    39d8:	3d 73 38 74 	unknown
    39dc:	71 65 5f 6e 	call  c595b794 <LEON_REG+0x4595b794>
    39e0:	65 78 74 3a 	call  95e20ac8 <LEON_REG+0x15e20ac8>
    39e4:	28 32 2c 31 	unknown
    39e8:	38 29 3d 2a 	unknown
    39ec:	28 32 2c 31 	unknown
    39f0:	36 29 2c 30 	unknown
    39f4:	2c 33 32 3b 	unknown
    39f8:	74 71 65 5f 	call  d1c5cf74 <LEON_REG+0x51c5cf74>
    39fc:	70 72 65 76 	call  c1c9cfd4 <LEON_REG+0x41c9cfd4>
    3a00:	3a 28 32 2c 	unknown
    3a04:	31 39 29 3d 	sethi  %hi(0xe4a4f400), %i0
    3a08:	2a 28 32 2c 	unknown
    3a0c:	31 38 29 2c 	sethi  %hi(0xe0a4b000), %i0
    3a10:	33 32 2c 33 	sethi  %hi(0xc8b0cc00), %i1
    3a14:	32 3b 3b 2c 	unknown
    3a18:	30 2c 36 34 	unknown
    3a1c:	3b 68 61 6e 	unknown
    3a20:	64 6c 65 72 	call  91b1cfe8 <LEON_REG+0x11b1cfe8>
    3a24:	3a 28 32 2c 	unknown
    3a28:	31 33 29 2c 	sethi  %hi(0xcca4b000), %i0
    3a2c:	36 34 2c 33 	unknown
    3a30:	32 3b 61 72 	unknown
    3a34:	67 3a 28 32 	call  9ce8dafc <LEON_REG+0x1ce8dafc>
    3a38:	2c 35 29 2c 	unknown
    3a3c:	39 36 2c 33 	sethi  %hi(0xd8b0cc00), %i4
    3a40:	32 3b 3b 00 	unknown
    3a44:	63 68 61 69 	call  8da1bfe8 <LEON_REG+0xda1bfe8>
    3a48:	6e 65 64 5f 	call  b995cbc4 <LEON_REG+0x3995cbc4>
    3a4c:	63 61 74 63 	call  8d860bd8 <LEON_REG+0xd860bd8>
    3a50:	68 5f 69 6e 	call  a17de008 <LEON_REG+0x217de008>
    3a54:	74 65 72 72 	call  d196041c <LEON_REG+0x5196041c>
    3a58:	75 70 74 3a 	call  d5c20b40 <LEON_REG+0x55c20b40>
    3a5c:	46 28 30 2c 	call  18a0fb0c <_trap_table-0x27af04f4>
    3a60:	31 39 29 00 	sethi  %hi(0xe4a40000), %i0
    3a64:	69 72 71 3a 	call  a5c9ff4c <LEON_REG+0x25c9ff4c>
    3a68:	50 28 30 2c 	call  40a0fb18 <__end+0x50bbe0>
    3a6c:	31 29 00 61 	sethi  %hi(0xa4018400), %i0
    3a70:	3a 50 28 32 	unknown
    3a74:	2c 36 29 00 	unknown
    3a78:	63 61 74 63 	call  8d860c04 <LEON_REG+0xd860c04>
    3a7c:	68 5f 69 6e 	call  a17de034 <LEON_REG+0x217de034>
    3a80:	74 65 72 72 	call  d1960448 <LEON_REG+0x51960448>
    3a84:	75 70 74 3a 	call  d5c20b6c <LEON_REG+0x55c20b6c>
    3a88:	46 28 30 2c 	call  18a0fb38 <_trap_table-0x27af04c8>
    3a8c:	31 29 00 66 	sethi  %hi(0xa4019800), %i0
    3a90:	75 6e 63 3a 	call  d5b9c778 <LEON_REG+0x55b9c778>
    3a94:	50 28 30 2c 	call  40a0fb44 <__end+0x50bc0c>
    3a98:	31 29 00 61 	sethi  %hi(0xa4018400), %i0
    3a9c:	3a 72 28 32 	unknown
    3aa0:	2c 36 29 00 	unknown
    3aa4:	6e 3a 72 28 	call  b8ea0344 <LEON_REG+0x38ea0344>
    3aa8:	32 2c 36 29 	unknown
    3aac:	00 74 6d 70 	unknown
    3ab0:	3a 72 28 30 	unknown
    3ab4:	2c 31 29 00 	unknown
    3ab8:	68 61 6e 64 	call  a185f448 <LEON_REG+0x2185f448>
    3abc:	6c 65 72 5f 	call  b1960438 <LEON_REG+0x31960438>
    3ac0:	69 72 71 3a 	call  a5c9ffa8 <LEON_REG+0x25c9ffa8>
    3ac4:	46 28 30 2c 	call  18a0fb74 <_trap_table-0x27af048c>
    3ac8:	31 29 00 70 	sethi  %hi(0xa401c000), %i0
    3acc:	74 5f 72 65 	call  d17e0460 <LEON_REG+0x517e0460>
    3ad0:	67 73 3a 50 	call  9dcd2410 <LEON_REG+0x1dcd2410>
    3ad4:	28 30 2c 32 	unknown
    3ad8:	32 29 3d 2a 	unknown
    3adc:	28 31 2c 31 	unknown
    3ae0:	29 00 73 63 	sethi  %hi(0x1cd8c00), %l4
    3ae4:	68 65 64 75 	call  a195ccb8 <LEON_REG+0x2195ccb8>
    3ae8:	6c 65 5f 63 	call  b195b874 <LEON_REG+0x3195b874>
    3aec:	61 6c 6c 62 	call  85b1ec74 <LEON_REG+0x5b1ec74>
    3af0:	61 63 6b 3a 	call  858de7d8 <LEON_REG+0x58de7d8>
    3af4:	47 28 32 2c 	call  1ca103a4 <_trap_table-0x23aefc5c>
    3af8:	39 29 00 5f 	sethi  %hi(0xa4017c00), %i4
    3afc:	69 72 71 74 	call  a5ca00cc <LEON_REG+0x25ca00cc>
    3b00:	62 6c 3a 47 	call  89b1241c <LEON_REG+0x9b1241c>
    3b04:	28 30 2c 32 	unknown
    3b08:	33 29 3d 61 	sethi  %hi(0xa4f58400), %i1
    3b0c:	72 28 31 2c 	call  c8a0ffbc <LEON_REG+0x48a0ffbc>
    3b10:	33 29 3b 30 	sethi  %hi(0xa4ecc000), %i1
    3b14:	3b 33 31 3b 	sethi  %hi(0xccc4ec00), %i5
    3b18:	28 32 2c 36 	unknown
    3b1c:	29 00 5f 6f 	sethi  %hi(0x17dbc00), %l4
    3b20:	69 72 71 74 	call  a5ca00f0 <LEON_REG+0x25ca00f0>
    3b24:	62 6c 3a 47 	call  89b12440 <LEON_REG+0x9b12440>
    3b28:	28 30 2c 32 	unknown
    3b2c:	34 29 3d 61 	unknown
    3b30:	72 28 31 2c 	call  c8a0ffe0 <LEON_REG+0x48a0ffe0>
    3b34:	33 29 3b 30 	sethi  %hi(0xa4ecc000), %i1
    3b38:	3b 33 31 3b 	sethi  %hi(0xccc4ec00), %i5
    3b3c:	28 32 2c 34 	unknown
    3b40:	29 00 69 6e 	sethi  %hi(0x1a5b800), %l4
    3b44:	69 72 71 3a 	call  a5ca002c <LEON_REG+0x25ca002c>
    3b48:	47 28 30 2c 	call  1ca0fbf8 <_trap_table-0x23af0408>
    3b4c:	31 29 00 2f 	sethi  %hi(0xa400bc00), %i0
    3b50:	74 6d 70 2f 	call  d1b5fc0c <LEON_REG+0x51b5fc0c>
    3b54:	63 63 41 45 	call  8d8d4068 <LEON_REG+0xd8d4068>
    3b58:	33 6c 65 34 	unknown
    3b5c:	2e 73 00 2e 	unknown
    3b60:	2e 2f 2e 2e 	unknown
    3b64:	2f 2e 2e 2f 	sethi  %hi(0xb8b8bc00), %l7
    3b68:	2e 2e 2f 2e 	unknown
    3b6c:	2e 2f 67 63 	unknown
    3b70:	63 2d 33 2e 	call  8cb50828 <LEON_REG+0xcb50828>
    3b74:	34 2e 34 2f 	unknown
    3b78:	6c 69 62 67 	call  b1a5c514 <LEON_REG+0x31a5c514>
    3b7c:	6c 6f 73 73 	call  b1be0948 <LEON_REG+0x31be0948>
    3b80:	2f 73 70 61 	unknown
    3b84:	72 63 5f 6c 	call  c98db934 <LEON_REG+0x498db934>
    3b88:	65 6f 6e 2f 	call  95bdf444 <LEON_REG+0x15bdf444>
    3b8c:	6c 63 70 75 	call  b18dfd60 <LEON_REG+0x318dfd60>
    3b90:	69 6e 69 74 	call  a5b9e160 <LEON_REG+0x25b9e160>
    3b94:	2e 53 00 2e 	unknown
    3b98:	2e 2f 2e 2e 	unknown
    3b9c:	2f 2e 2e 2f 	sethi  %hi(0xb8b8bc00), %l7
    3ba0:	2e 2e 2f 2e 	unknown
    3ba4:	2e 2f 67 63 	unknown
    3ba8:	63 2d 33 2e 	call  8cb50860 <LEON_REG+0xcb50860>
    3bac:	34 2e 34 2f 	unknown
    3bb0:	6c 69 62 67 	call  b1a5c54c <LEON_REG+0x31a5c54c>
    3bb4:	6c 6f 73 73 	call  b1be0980 <LEON_REG+0x31be0980>
    3bb8:	2f 73 70 61 	unknown
    3bbc:	72 63 5f 6c 	call  c98db96c <LEON_REG+0x498db96c>
    3bc0:	65 6f 6e 2f 	call  95bdf47c <LEON_REG+0x15bdf47c>
    3bc4:	63 6f 6e 73 	call  8dbdf590 <LEON_REG+0xdbdf590>
    3bc8:	6f 6c 65 2e 	call  bdb1d080 <LEON_REG+0x3db1d080>
    3bcc:	63 00 63 6f 	call  8c01c988 <LEON_REG+0xc01c988>
    3bd0:	6e 73 6f 6c 	call  b9cdf980 <LEON_REG+0x39cdf980>
    3bd4:	65 3a 47 28 	call  94e95874 <LEON_REG+0x14e95874>
    3bd8:	30 2c 32 32 	unknown
    3bdc:	29 3d 2a 28 	sethi  %hi(0xf4a8a000), %l4
    3be0:	30 2c 31 29 	unknown
    3be4:	00 2e 2e 2f 	unimp  0xffee2e2f
    3be8:	2e 2e 2f 2e 	unknown
    3bec:	2e 2f 2e 2e 	unknown
    3bf0:	2f 2e 2e 2f 	sethi  %hi(0xb8b8bc00), %l7
    3bf4:	67 63 63 2d 	call  9d8dc8a8 <LEON_REG+0x1d8dc8a8>
    3bf8:	33 2e 34 2e 	sethi  %hi(0xb8d0b800), %i1
    3bfc:	34 2f 6c 69 	unknown
    3c00:	62 67 6c 6f 	call  899dedbc <LEON_REG+0x99dedbc>
    3c04:	73 73 2f 73 	call  cdccf9d0 <LEON_REG+0x4dccf9d0>
    3c08:	70 61 72 63 	call  c1860594 <LEON_REG+0x41860594>
    3c0c:	5f 6c 65 6f 	call  7db1d1c8 <__end+0x3d619290>
    3c10:	6e 2f 5f 65 	call  b8bdb9a4 <LEON_REG+0x38bdb9a4>
    3c14:	78 69 74 2e 	call  e1a60ccc <LEON_REG+0x61a60ccc>
    3c18:	63 00 5f 65 	call  8c01b9ac <LEON_REG+0xc01b9ac>
    3c1c:	78 69 74 3a 	call  e1a60d04 <LEON_REG+0x61a60d04>
    3c20:	46 28 30 2c 	call  18a0fcd0 <_trap_table-0x27af0330>
    3c24:	31 39 29 00 	sethi  %hi(0xe4a40000), %i0
    3c28:	73 74 61 74 	call  cdd1c1f8 <LEON_REG+0x4dd1c1f8>
    3c2c:	75 73 3a 50 	call  d5cd256c <LEON_REG+0x55cd256c>
    3c30:	28 30 2c 31 	unknown
    3c34:	29 00 2e 2e 	sethi  %hi(0xb8b800), %l4
    3c38:	2f 2e 2e 2f 	sethi  %hi(0xb8b8bc00), %l7
    3c3c:	2e 2e 2f 2e 	unknown
    3c40:	2e 2f 2e 2e 	unknown
    3c44:	2f 67 63 63 	unknown
    3c48:	2d 33 2e 34 	sethi  %hi(0xccb8d000), %l6
    3c4c:	2e 34 2f 6c 	unknown
    3c50:	69 62 67 6c 	call  a589da00 <LEON_REG+0x2589da00>
    3c54:	6f 73 73 2f 	call  bdce0910 <LEON_REG+0x3dce0910>
    3c58:	73 70 61 72 	call  cdc1c220 <LEON_REG+0x4dc1c220>
    3c5c:	63 5f 6c 65 	call  8d7dedf0 <LEON_REG+0xd7dedf0>
    3c60:	6f 6e 2f 6d 	call  bdb8fa14 <LEON_REG+0x3db8fa14>
    3c64:	75 74 65 78 	call  d5d1d244 <LEON_REG+0x55d1d244>
    3c68:	2e 63 00 2e 	unknown
    3c6c:	2f 2e 2e 2f 	sethi  %hi(0xb8b8bc00), %l7
    3c70:	2e 2e 2f 6e 	unknown
    3c74:	65 77 6c 69 	call  95ddee18 <LEON_REG+0x15ddee18>
    3c78:	62 2f 74 61 	call  88be0dfc <LEON_REG+0x8be0dfc>
    3c7c:	72 67 2d 69 	call  c99cf220 <LEON_REG+0x499cf220>
    3c80:	6e 63 6c 75 	call  b98dee54 <LEON_REG+0x398dee54>
    3c84:	64 65 2f 61 	call  9194fa08 <LEON_REG+0x1194fa08>
    3c88:	73 6d 2d 6c 	call  cdb4f238 <LEON_REG+0x4db4f238>
    3c8c:	65 6f 6e 2f 	call  95bdf548 <LEON_REG+0x15bdf548>
    3c90:	65 6c 66 6d 	call  95b1d644 <LEON_REG+0x15b1d644>
    3c94:	61 63 72 6f 	call  858e0650 <LEON_REG+0x58e0650>
    3c98:	2e 68 00 69 	unknown
    3c9c:	6e 69 74 63 	call  b9a60e28 <LEON_REG+0x39a60e28>
    3ca0:	61 6c 6c 5f 	call  85b1ee1c <LEON_REG+0x5b1ee1c>
    3ca4:	74 3a 74 28 	call  d0ea0d44 <LEON_REG+0x50ea0d44>
    3ca8:	38 2c 31 29 	unknown
    3cac:	3d 28 38 2c 	sethi  %hi(0xa0e0b000), %fp
    3cb0:	32 29 3d 2a 	unknown
    3cb4:	28 38 2c 33 	unknown
    3cb8:	29 3d 66 28 	sethi  %hi(0xf598a000), %l4
    3cbc:	30 2c 31 29 	unknown
    3cc0:	00 5f 5f 5f 	unknown
    3cc4:	73 74 5f 70 	call  cdd1ba84 <LEON_REG+0x4dd1ba84>
    3cc8:	74 68 72 65 	call  d1a2065c <LEON_REG+0x51a2065c>
    3ccc:	61 64 5f 6d 	call  8591ba80 <LEON_REG+0x591ba80>
    3cd0:	75 74 65 78 	call  d5d1d2b0 <LEON_REG+0x55d1d2b0>
    3cd4:	5f 69 6e 69 	call  7da5f678 <__end+0x3d55b740>
    3cd8:	74 3a 46 28 	call  d0e95578 <LEON_REG+0x50e95578>
    3cdc:	30 2c 31 29 	unknown
    3ce0:	00 6d 75 74 	unknown
    3ce4:	65 78 3a 50 	call  95e12624 <LEON_REG+0x15e12624>
    3ce8:	28 30 2c 32 	unknown
    3cec:	32 29 3d 2a 	unknown
    3cf0:	28 34 2c 31 	unknown
    3cf4:	35 29 00 61 	sethi  %hi(0xa4018400), %i2
    3cf8:	74 74 72 3a 	call  d1d205e0 <LEON_REG+0x51d205e0>
    3cfc:	50 28 30 2c 	call  40a0fdac <__end+0x50be74>
    3d00:	32 33 29 3d 	unknown
    3d04:	2a 28 34 2c 	unknown
    3d08:	31 36 29 00 	sethi  %hi(0xd8a40000), %i0
    3d0c:	5f 5f 5f 73 	call  7d7dbad8 <__end+0x3d2d7ba0>
    3d10:	74 5f 70 74 	call  d17dfee0 <LEON_REG+0x517dfee0>
    3d14:	68 72 65 61 	call  a1c9d298 <LEON_REG+0x21c9d298>
    3d18:	64 5f 6d 75 	call  917df2ec <LEON_REG+0x117df2ec>
    3d1c:	74 65 78 5f 	call  d1961e98 <LEON_REG+0x51961e98>
    3d20:	64 65 73 74 	call  91960af0 <LEON_REG+0x11960af0>
    3d24:	72 6f 79 3a 	call  c9be220c <LEON_REG+0x49be220c>
    3d28:	46 28 30 2c 	call  18a0fdd8 <_trap_table-0x27af0228>
    3d2c:	31 29 00 6d 	sethi  %hi(0xa401b400), %i0
    3d30:	75 74 65 78 	call  d5d1d310 <LEON_REG+0x55d1d310>
    3d34:	3a 50 28 30 	unknown
    3d38:	2c 32 32 29 	unknown
    3d3c:	00 5f 5f 5f 	unknown
    3d40:	73 74 5f 70 	call  cdd1bb00 <LEON_REG+0x4dd1bb00>
    3d44:	74 68 72 65 	call  d1a206d8 <LEON_REG+0x51a206d8>
    3d48:	61 64 5f 6d 	call  8591bafc <LEON_REG+0x591bafc>
    3d4c:	75 74 65 78 	call  d5d1d32c <LEON_REG+0x55d1d32c>
    3d50:	5f 6c 6f 63 	call  7db1fadc <__end+0x3d61bba4>
    3d54:	6b 3a 46 28 	call  ace955f4 <LEON_REG+0x2ce955f4>
    3d58:	30 2c 31 29 	unknown
    3d5c:	00 5f 5f 5f 	unknown
    3d60:	73 74 5f 70 	call  cdd1bb20 <LEON_REG+0x4dd1bb20>
    3d64:	74 68 72 65 	call  d1a206f8 <LEON_REG+0x51a206f8>
    3d68:	61 64 5f 6d 	call  8591bb1c <LEON_REG+0x591bb1c>
    3d6c:	75 74 65 78 	call  d5d1d34c <LEON_REG+0x55d1d34c>
    3d70:	5f 74 72 79 	call  7dd20754 <__end+0x3d81c81c>
    3d74:	6c 6f 63 6b 	call  b1bdcb20 <LEON_REG+0x31bdcb20>
    3d78:	3a 46 28 30 	unknown
    3d7c:	2c 31 29 00 	unknown
    3d80:	5f 5f 5f 73 	call  7d7dbb4c <__end+0x3d2d7c14>
    3d84:	74 5f 70 74 	call  d17dff54 <LEON_REG+0x517dff54>
    3d88:	68 72 65 61 	call  a1c9d30c <LEON_REG+0x21c9d30c>
    3d8c:	64 5f 6d 75 	call  917df360 <LEON_REG+0x117df360>
    3d90:	74 65 78 5f 	call  d1961f0c <LEON_REG+0x51961f0c>
    3d94:	75 6e 6c 6f 	call  d5b9ef50 <LEON_REG+0x55b9ef50>
    3d98:	63 6b 3a 46 	call  8dad26b0 <LEON_REG+0xdad26b0>
    3d9c:	28 30 2c 31 	unknown
    3da0:	29 00 5f 5f 	sethi  %hi(0x17d7c00), %l4
    3da4:	5f 73 74 5f 	call  7dce0f20 <__end+0x3d7dcfe8>
    3da8:	70 74 68 72 	call  c1d1df70 <LEON_REG+0x41d1df70>
    3dac:	65 61 64 5f 	call  9585cf28 <LEON_REG+0x1585cf28>
    3db0:	6d 75 74 65 	call  b5d60f44 <LEON_REG+0x35d60f44>
    3db4:	78 61 74 74 	call  e1860f84 <LEON_REG+0x61860f84>
    3db8:	72 5f 69 6e 	call  c97de370 <LEON_REG+0x497de370>
    3dbc:	69 74 3a 46 	call  a5d126d4 <LEON_REG+0x25d126d4>
    3dc0:	28 30 2c 31 	unknown
    3dc4:	29 00 61 74 	sethi  %hi(0x185d000), %l4
    3dc8:	74 72 3a 50 	call  d1c92708 <LEON_REG+0x51c92708>
    3dcc:	28 30 2c 32 	unknown
    3dd0:	33 29 00 5f 	sethi  %hi(0xa4017c00), %i1
    3dd4:	5f 5f 73 74 	call  7d7e0ba4 <__end+0x3d2dcc6c>
    3dd8:	5f 70 74 68 	call  7dc20f78 <__end+0x3d71d040>
    3ddc:	72 65 61 64 	call  c995c36c <LEON_REG+0x4995c36c>
    3de0:	5f 6d 75 74 	call  7db613b0 <__end+0x3d65d478>
    3de4:	65 78 61 74 	call  95e1c3b4 <LEON_REG+0x15e1c3b4>
    3de8:	74 72 5f 64 	call  d1c9bb78 <LEON_REG+0x51c9bb78>
    3dec:	65 73 74 72 	call  95ce0fb4 <LEON_REG+0x15ce0fb4>
    3df0:	6f 79 3a 46 	call  bde52708 <LEON_REG+0x3de52708>
    3df4:	28 30 2c 31 	unknown
    3df8:	29 00 5f 5f 	sethi  %hi(0x17d7c00), %l4
    3dfc:	5f 73 74 5f 	call  7dce0f78 <__end+0x3d7dd040>
    3e00:	70 74 68 72 	call  c1d1dfc8 <LEON_REG+0x41d1dfc8>
    3e04:	65 61 64 5f 	call  9585cf80 <LEON_REG+0x1585cf80>
    3e08:	6d 75 74 65 	call  b5d60f9c <LEON_REG+0x35d60f9c>
    3e0c:	78 61 74 74 	call  e1860fdc <LEON_REG+0x61860fdc>
    3e10:	72 5f 73 65 	call  c97e0ba4 <LEON_REG+0x497e0ba4>
    3e14:	74 74 79 70 	call  d1d223d4 <LEON_REG+0x51d223d4>
    3e18:	65 3a 46 28 	call  94e956b8 <LEON_REG+0x14e956b8>
    3e1c:	30 2c 31 29 	unknown
    3e20:	00 6b 69 6e 	unknown
    3e24:	64 3a 50 28 	call  90e97ec4 <LEON_REG+0x10e97ec4>
    3e28:	30 2c 31 29 	unknown
    3e2c:	00 5f 5f 6c 	unknown
    3e30:	62 73 74 5f 	call  89ce0fac <LEON_REG+0x9ce0fac>
    3e34:	70 74 68 72 	call  c1d1dffc <LEON_REG+0x41d1dffc>
    3e38:	65 61 64 5f 	call  9585cfb4 <LEON_REG+0x1585cfb4>
    3e3c:	6d 75 74 65 	call  b5d60fd0 <LEON_REG+0x35d60fd0>
    3e40:	78 5f 69 6e 	call  e17de3f8 <LEON_REG+0x617de3f8>
    3e44:	69 74 3a 47 	call  a5d12760 <LEON_REG+0x25d12760>
    3e48:	28 30 2c 32 	unknown
    3e4c:	34 29 3d 2a 	unknown
    3e50:	28 30 2c 32 	unknown
    3e54:	35 29 3d 66 	sethi  %hi(0xa4f59800), %i2
    3e58:	28 30 2c 31 	unknown
    3e5c:	29 00 5f 5f 	sethi  %hi(0x17d7c00), %l4
    3e60:	6c 62 73 74 	call  b18a0c30 <LEON_REG+0x318a0c30>
    3e64:	5f 70 74 68 	call  7dc21004 <__end+0x3d71d0cc>
    3e68:	72 65 61 64 	call  c995c3f8 <LEON_REG+0x4995c3f8>
    3e6c:	5f 6d 75 74 	call  7db6143c <__end+0x3d65d504>
    3e70:	65 78 5f 64 	call  95e1bc00 <LEON_REG+0x15e1bc00>
    3e74:	65 73 74 72 	call  95ce103c <LEON_REG+0x15ce103c>
    3e78:	6f 79 3a 47 	call  bde52794 <LEON_REG+0x3de52794>
    3e7c:	28 30 2c 32 	unknown
    3e80:	36 29 3d 2a 	unknown
    3e84:	28 30 2c 32 	unknown
    3e88:	37 29 3d 66 	sethi  %hi(0xa4f59800), %i3
    3e8c:	28 30 2c 31 	unknown
    3e90:	29 00 5f 5f 	sethi  %hi(0x17d7c00), %l4
    3e94:	6c 62 73 74 	call  b18a0c64 <LEON_REG+0x318a0c64>
    3e98:	5f 70 74 68 	call  7dc21038 <__end+0x3d71d100>
    3e9c:	72 65 61 64 	call  c995c42c <LEON_REG+0x4995c42c>
    3ea0:	5f 6d 75 74 	call  7db61470 <__end+0x3d65d538>
    3ea4:	65 78 5f 74 	call  95e1bc74 <LEON_REG+0x15e1bc74>
    3ea8:	72 79 6c 6f 	call  c9e5f064 <LEON_REG+0x49e5f064>
    3eac:	63 6b 3a 47 	call  8dad27c8 <LEON_REG+0xdad27c8>
    3eb0:	28 30 2c 32 	unknown
    3eb4:	36 29 00 5f 	unknown
    3eb8:	5f 6c 62 73 	call  7db1c884 <__end+0x3d61894c>
    3ebc:	74 5f 70 74 	call  d17e008c <LEON_REG+0x517e008c>
    3ec0:	68 72 65 61 	call  a1c9d444 <LEON_REG+0x21c9d444>
    3ec4:	64 5f 6d 75 	call  917df498 <LEON_REG+0x117df498>
    3ec8:	74 65 78 5f 	call  d1962044 <LEON_REG+0x51962044>
    3ecc:	6c 6f 63 6b 	call  b1bdcc78 <LEON_REG+0x31bdcc78>
    3ed0:	3a 47 28 30 	unknown
    3ed4:	2c 32 36 29 	unknown
    3ed8:	00 5f 5f 6c 	unknown
    3edc:	62 73 74 5f 	call  89ce1058 <LEON_REG+0x9ce1058>
    3ee0:	70 74 68 72 	call  c1d1e0a8 <LEON_REG+0x41d1e0a8>
    3ee4:	65 61 64 5f 	call  9585d060 <LEON_REG+0x1585d060>
    3ee8:	6d 75 74 65 	call  b5d6107c <LEON_REG+0x35d6107c>
    3eec:	78 5f 75 6e 	call  e17e14a4 <LEON_REG+0x617e14a4>
    3ef0:	6c 6f 63 6b 	call  b1bdcc9c <LEON_REG+0x31bdcc9c>
    3ef4:	3a 47 28 30 	unknown
    3ef8:	2c 32 36 29 	unknown
    3efc:	00 5f 5f 6c 	unknown
    3f00:	62 73 74 5f 	call  89ce107c <LEON_REG+0x9ce107c>
    3f04:	70 74 68 72 	call  c1d1e0cc <LEON_REG+0x41d1e0cc>
    3f08:	65 61 64 5f 	call  9585d084 <LEON_REG+0x1585d084>
    3f0c:	6d 75 74 65 	call  b5d610a0 <LEON_REG+0x35d610a0>
    3f10:	78 61 74 74 	call  e18610e0 <LEON_REG+0x618610e0>
    3f14:	72 5f 69 6e 	call  c97de4cc <LEON_REG+0x497de4cc>
    3f18:	69 74 3a 47 	call  a5d12834 <LEON_REG+0x25d12834>
    3f1c:	28 30 2c 32 	unknown
    3f20:	38 29 3d 2a 	unknown
    3f24:	28 30 2c 32 	unknown
    3f28:	39 29 3d 66 	sethi  %hi(0xa4f59800), %i4
    3f2c:	28 30 2c 31 	unknown
    3f30:	29 00 5f 5f 	sethi  %hi(0x17d7c00), %l4
    3f34:	6c 62 73 74 	call  b18a0d04 <LEON_REG+0x318a0d04>
    3f38:	5f 70 74 68 	call  7dc210d8 <__end+0x3d71d1a0>
    3f3c:	72 65 61 64 	call  c995c4cc <LEON_REG+0x4995c4cc>
    3f40:	5f 6d 75 74 	call  7db61510 <__end+0x3d65d5d8>
    3f44:	65 78 61 74 	call  95e1c514 <LEON_REG+0x15e1c514>
    3f48:	74 72 5f 64 	call  d1c9bcd8 <LEON_REG+0x51c9bcd8>
    3f4c:	65 73 74 72 	call  95ce1114 <LEON_REG+0x15ce1114>
    3f50:	6f 79 3a 47 	call  bde5286c <LEON_REG+0x3de5286c>
    3f54:	28 30 2c 32 	unknown
    3f58:	38 29 00 5f 	unknown
    3f5c:	5f 6c 62 73 	call  7db1c928 <__end+0x3d6189f0>
    3f60:	74 5f 70 74 	call  d17e0130 <LEON_REG+0x517e0130>
    3f64:	68 72 65 61 	call  a1c9d4e8 <LEON_REG+0x21c9d4e8>
    3f68:	64 5f 6d 75 	call  917df53c <LEON_REG+0x117df53c>
    3f6c:	74 65 78 61 	call  d19620f0 <LEON_REG+0x519620f0>
    3f70:	74 74 72 5f 	call  d1d208ec <LEON_REG+0x51d208ec>
    3f74:	73 65 74 74 	call  cd961144 <LEON_REG+0x4d961144>
    3f78:	79 70 65 3a 	call  e5c1d460 <LEON_REG+0x65c1d460>
    3f7c:	47 28 30 2c 	call  1ca1002c <_trap_table-0x23aeffd4>
    3f80:	33 30 29 3d 	sethi  %hi(0xc0a4f400), %i1
    3f84:	2a 28 30 2c 	unknown
    3f88:	33 31 29 3d 	sethi  %hi(0xc4a4f400), %i1
    3f8c:	66 28 30 2c 	call  98a1003c <LEON_REG+0x18a1003c>
    3f90:	31 29 00 2f 	sethi  %hi(0xa400bc00), %i0
    3f94:	74 6d 70 2f 	call  d1b60050 <LEON_REG+0x51b60050>
    3f98:	63 63 53 67 	call  8d8d8d34 <LEON_REG+0xd8d8d34>
    3f9c:	44 65 4d 46 	call  119574b4 <_trap_table-0x2eba8b4c>
    3fa0:	2e 73 00 2e 	unknown
    3fa4:	2e 2f 2e 2e 	unknown
    3fa8:	2f 2e 2e 2f 	sethi  %hi(0xb8b8bc00), %l7
    3fac:	2e 2e 2f 2e 	unknown
    3fb0:	2e 2f 67 63 	unknown
    3fb4:	63 2d 33 2e 	call  8cb50c6c <LEON_REG+0xcb50c6c>
    3fb8:	34 2e 34 2f 	unknown
    3fbc:	6c 69 62 67 	call  b1a5c958 <LEON_REG+0x31a5c958>
    3fc0:	6c 6f 73 73 	call  b1be0d8c <LEON_REG+0x31be0d8c>
    3fc4:	2f 73 70 61 	unknown
    3fc8:	72 63 5f 6c 	call  c98dbd78 <LEON_REG+0x498dbd78>
    3fcc:	65 6f 6e 2f 	call  95bdf888 <LEON_REG+0x15bdf888>
    3fd0:	6c 6f 63 6f 	call  b1bdcd8c <LEON_REG+0x31bdcd8c>
    3fd4:	72 65 2e 53 	call  c994f920 <LEON_REG+0x4994f920>
    3fd8:	00 2f 74 6d 	unimp  0xffef746d
    3fdc:	70 2f 63 63 	call  c0bdcd68 <LEON_REG+0x40bdcd68>
    3fe0:	6b 46 5a 65 	call  ad19a974 <LEON_REG+0x2d19a974>
    3fe4:	4c 48 2e 73 	call  3120f9b0 <_trap_table-0xf2f0650>
    3fe8:	00 2e 2e 2f 	unimp  0xffee2e2f
    3fec:	2e 2e 2f 2e 	unknown
    3ff0:	2e 2f 2e 2e 	unknown
    3ff4:	2f 2e 2e 2f 	sethi  %hi(0xb8b8bc00), %l7
    3ff8:	67 63 63 2d 	call  9d8dccac <LEON_REG+0x1d8dccac>
    3ffc:	33 2e 34 2e 	sethi  %hi(0xb8d0b800), %i1
    4000:	34 2f 6c 69 	unknown
    4004:	62 67 6c 6f 	call  899df1c0 <LEON_REG+0x99df1c0>
    4008:	73 73 2f 73 	call  cdccfdd4 <LEON_REG+0x4dccfdd4>
    400c:	70 61 72 63 	call  c1860998 <LEON_REG+0x41860998>
    4010:	5f 6c 65 6f 	call  7db1d5cc <__end+0x3d619694>
    4014:	6e 2f 6c 6f 	call  b8bdf1d0 <LEON_REG+0x38bdf1d0>
    4018:	63 6f 72 65 	call  8dbe09ac <LEON_REG+0xdbe09ac>
    401c:	5f 63 6c 65 	call  7d8df1b0 <__end+0x3d3db278>
    4020:	61 6e 2e 53 	call  85b8f96c <LEON_REG+0x5b8f96c>
    4024:	00 2f 74 6d 	unimp  0xffef746d
    4028:	70 2f 63 63 	call  c0bdcdb4 <LEON_REG+0x40bdcdb4>
    402c:	36 62 70 58 	unknown
    4030:	6b 4a 2e 73 	call  ad28f9fc <LEON_REG+0x2d28f9fc>
    4034:	00 2e 2e 2f 	unimp  0xffee2e2f
    4038:	2e 2e 2f 2e 	unknown
    403c:	2e 2f 2e 2e 	unknown
    4040:	2f 2e 2e 2f 	sethi  %hi(0xb8b8bc00), %l7
    4044:	67 63 63 2d 	call  9d8dccf8 <LEON_REG+0x1d8dccf8>
    4048:	33 2e 34 2e 	sethi  %hi(0xb8d0b800), %i1
    404c:	34 2f 6c 69 	unknown
    4050:	62 67 6c 6f 	call  899df20c <LEON_REG+0x99df20c>
    4054:	73 73 2f 73 	call  cdccfe20 <LEON_REG+0x4dccfe20>
    4058:	70 61 72 63 	call  c18609e4 <LEON_REG+0x418609e4>
    405c:	5f 6c 65 6f 	call  7db1d618 <__end+0x3d6196e0>
    4060:	6e 2f 6c 6f 	call  b8bdf21c <LEON_REG+0x38bdf21c>
    4064:	63 6f 72 65 	call  8dbe09f8 <LEON_REG+0xdbe09f8>
    4068:	5f 76 61 72 	call  7dd9c630 <__end+0x3d8986f8>
    406c:	2e 53 00 2f 	unknown
    4070:	74 6d 70 2f 	call  d1b6012c <LEON_REG+0x51b6012c>
    4074:	63 63 67 54 	call  8d8dddc4 <LEON_REG+0xd8dddc4>
    4078:	48 47 54 4e 	call  211d91b0 <_trap_table-0x1f326e50>
    407c:	2e 73 00 2e 	unknown
    4080:	2e 2f 2e 2e 	unknown
    4084:	2f 2e 2e 2f 	sethi  %hi(0xb8b8bc00), %l7
    4088:	2e 2e 2f 2e 	unknown
    408c:	2e 2f 67 63 	unknown
    4090:	63 2d 33 2e 	call  8cb50d48 <LEON_REG+0xcb50d48>
    4094:	34 2e 34 2f 	unknown
    4098:	6c 69 62 67 	call  b1a5ca34 <LEON_REG+0x31a5ca34>
    409c:	6c 6f 73 73 	call  b1be0e68 <LEON_REG+0x31be0e68>
    40a0:	2f 73 70 61 	unknown
    40a4:	72 63 5f 6c 	call  c98dbe54 <LEON_REG+0x498dbe54>
    40a8:	65 6f 6e 2f 	call  95bdf964 <LEON_REG+0x15bdf964>
    40ac:	6c 6f 63 6f 	call  b1bdce68 <LEON_REG+0x31bdce68>
    40b0:	72 65 5f 76 	call  c995be88 <LEON_REG+0x4995be88>
    40b4:	61 72 5f 73 	call  85c9be80 <LEON_REG+0x5c9be80>
    40b8:	76 74 2e 53 	call  d9d0fa04 <LEON_REG+0x59d0fa04>
    40bc:	00 2e 2e 2f 	unimp  0xffee2e2f
    40c0:	2e 2e 2f 2e 	unknown
    40c4:	2e 2f 2e 2e 	unknown
    40c8:	2f 2e 2e 2f 	sethi  %hi(0xb8b8bc00), %l7
    40cc:	67 63 63 2d 	call  9d8dcd80 <LEON_REG+0x1d8dcd80>
    40d0:	33 2e 34 2e 	sethi  %hi(0xb8d0b800), %i1
    40d4:	34 2f 6c 69 	unknown
    40d8:	62 67 6c 6f 	call  899df294 <LEON_REG+0x99df294>
    40dc:	73 73 2f 73 	call  cdccfea8 <LEON_REG+0x4dccfea8>
    40e0:	70 61 72 63 	call  c1860a6c <LEON_REG+0x41860a6c>
    40e4:	5f 6c 65 6f 	call  7db1d6a0 <__end+0x3d619768>
    40e8:	6e 2f 6a 69 	call  b8bdea8c <LEON_REG+0x38bdea8c>
    40ec:	66 66 69 65 	call  9999e680 <LEON_REG+0x1999e680>
    40f0:	73 2e 63 00 	call  ccb9ccf0 <LEON_REG+0x4cb9ccf0>
    40f4:	2f 68 6f 6d 	unknown
    40f8:	65 2f 6a 6f 	call  94bdeab4 <LEON_REG+0x14bdeab4>
    40fc:	6e 61 73 2f 	call  b9860db8 <LEON_REG+0x39860db8>
    4100:	73 72 63 2f 	call  cdc9cdbc <LEON_REG+0x4dc9cdbc>
    4104:	74 6f 6f 6c 	call  d1bdfeb4 <LEON_REG+0x51bdfeb4>
    4108:	63 68 61 69 	call  8da1c6ac <LEON_REG+0xda1c6ac>
    410c:	6e 73 2f 62 	call  b9ccfe94 <LEON_REG+0x39ccfe94>
    4110:	63 63 2f 67 	call  8d8cfeac <LEON_REG+0xd8cfeac>
    4114:	63 63 2d 33 	call  8d8cf5e0 <LEON_REG+0xd8cf5e0>
    4118:	2e 34 2e 34 	unknown
    411c:	2f 6e 65 77 	unknown
    4120:	6c 69 62 2f 	call  b1a5c9dc <LEON_REG+0x31a5c9dc>
    4124:	6c 69 62 63 	call  b1a5cab0 <LEON_REG+0x31a5cab0>
    4128:	2f 69 6e 63 	unknown
    412c:	6c 75 64 65 	call  b1d5d2c0 <LEON_REG+0x31d5d2c0>
    4130:	2f 73 79 73 	unknown
    4134:	2f 74 69 6d 	unknown
    4138:	65 2e 68 00 	call  94b9e138 <LEON_REG+0x14b9e138>
    413c:	74 69 6d 65 	call  d1a5f6d0 <LEON_REG+0x51a5f6d0>
    4140:	76 61 6c 3a 	call  d985f228 <LEON_REG+0x5985f228>
    4144:	54 28 38 2c 	call  50a121f4 <__end+0x1050e2bc>
    4148:	31 29 3d 73 	sethi  %hi(0xa4f5cc00), %i0
    414c:	38 74 76 5f 	unknown
    4150:	73 65 63 3a 	call  cd95ce38 <LEON_REG+0x4d95ce38>
    4154:	28 30 2c 33 	unknown
    4158:	29 2c 30 2c 	sethi  %hi(0xb0c0b000), %l4
    415c:	33 32 3b 74 	sethi  %hi(0xc8edd000), %i1
    4160:	76 5f 75 73 	call  d97e172c <LEON_REG+0x597e172c>
    4164:	65 63 3a 28 	call  958d2a04 <LEON_REG+0x158d2a04>
    4168:	30 2c 33 29 	unknown
    416c:	2c 33 32 2c 	unknown
    4170:	33 32 3b 3b 	sethi  %hi(0xc8ecec00), %i1
    4174:	00 74 69 6d 	unknown
    4178:	65 7a 6f 6e 	call  95e9ff30 <LEON_REG+0x15e9ff30>
    417c:	65 3a 54 28 	call  94e9921c <LEON_REG+0x14e9921c>
    4180:	38 2c 32 29 	unknown
    4184:	3d 73 38 74 	unknown
    4188:	7a 5f 6d 69 	call  e97df72c <LEON_REG+0x697df72c>
    418c:	6e 75 74 65 	call  b9d61320 <LEON_REG+0x39d61320>
    4190:	73 77 65 73 	call  cdddd75c <LEON_REG+0x4dddd75c>
    4194:	74 3a 28 30 	call  d0e8e254 <LEON_REG+0x50e8e254>
    4198:	2c 31 29 2c 	unknown
    419c:	30 2c 33 32 	unknown
    41a0:	3b 74 7a 5f 	unknown
    41a4:	64 73 74 74 	call  91ce1374 <LEON_REG+0x11ce1374>
    41a8:	69 6d 65 3a 	call  a5b5d690 <LEON_REG+0x25b5d690>
    41ac:	28 30 2c 31 	unknown
    41b0:	29 2c 33 32 	sethi  %hi(0xb0ccc800), %l4
    41b4:	2c 33 32 3b 	unknown
    41b8:	3b 00 69 74 	sethi  %hi(0x1a5d000), %i5
    41bc:	69 6d 65 72 	call  a5b5d784 <LEON_REG+0x25b5d784>
    41c0:	76 61 6c 3a 	call  d985f2a8 <LEON_REG+0x5985f2a8>
    41c4:	54 28 38 2c 	call  50a12274 <__end+0x1050e33c>
    41c8:	33 29 3d 73 	sethi  %hi(0xa4f5cc00), %i1
    41cc:	31 36 69 74 	sethi  %hi(0xd9a5d000), %i0
    41d0:	5f 69 6e 74 	call  7da5fba0 <__end+0x3d55bc68>
    41d4:	65 72 76 61 	call  95ca1b58 <LEON_REG+0x15ca1b58>
    41d8:	6c 3a 28 38 	call  b0e8e2b8 <LEON_REG+0x30e8e2b8>
    41dc:	2c 31 29 2c 	unknown
    41e0:	30 2c 36 34 	unknown
    41e4:	3b 69 74 5f 	unknown
    41e8:	76 61 6c 75 	call  d985f3bc <LEON_REG+0x5985f3bc>
    41ec:	65 3a 28 38 	call  94e8e2cc <LEON_REG+0x14e8e2cc>
    41f0:	2c 31 29 2c 	unknown
    41f4:	36 34 2c 36 	unknown
    41f8:	34 3b 3b 00 	unknown
    41fc:	4c 45 4f 4e 	call  31157f34 <_trap_table-0xf3a80cc>
    4200:	33 5f 49 72 	unknown
    4204:	71 43 74 72 	call  c50e13cc <LEON_REG+0x450e13cc>
    4208:	6c 5f 52 65 	call  b17d8b9c <LEON_REG+0x317d8b9c>
    420c:	67 73 5f 4d 	call  9dcdbf40 <LEON_REG+0x1dcdbf40>
    4210:	61 70 3a 74 	call  85c12be0 <LEON_REG+0x5c12be0>
    4214:	28 31 33 2c 	unknown
    4218:	31 29 3d 28 	sethi  %hi(0xa4f4a000), %i0
    421c:	31 33 2c 32 	sethi  %hi(0xccb0c800), %i0
    4220:	29 3d 73 31 	sethi  %hi(0xf5ccc400), %l4
    4224:	32 38 69 6c 	unknown
    4228:	65 76 65 6c 	call  95d9d7d8 <LEON_REG+0x15d9d7d8>
    422c:	3a 28 30 2c 	unknown
    4230:	34 29 2c 30 	unknown
    4234:	2c 33 32 3b 	unknown
    4238:	69 70 65 6e 	call  a5c1d7f0 <LEON_REG+0x25c1d7f0>
    423c:	64 3a 28 30 	call  90e8e2fc <LEON_REG+0x10e8e2fc>
    4240:	2c 34 29 2c 	unknown
    4244:	33 32 2c 33 	sethi  %hi(0xc8b0cc00), %i1
    4248:	32 3b 69 66 	unknown
    424c:	6f 72 63 65 	call  bdc9cfe0 <LEON_REG+0x3dc9cfe0>
    4250:	3a 28 30 2c 	unknown
    4254:	34 29 2c 36 	unknown
    4258:	34 2c 33 32 	unknown
    425c:	3b 69 63 6c 	unknown
    4260:	65 61 72 3a 	call  95860b48 <LEON_REG+0x15860b48>
    4264:	28 30 2c 34 	unknown
    4268:	29 2c 39 36 	sethi  %hi(0xb0e4d800), %l4
    426c:	2c 33 32 3b 	unknown
    4270:	6e 6f 74 75 	call  b9be1444 <LEON_REG+0x39be1444>
    4274:	73 65 64 30 	call  cd95d334 <LEON_REG+0x4d95d334>
    4278:	30 3a 28 30 	unknown
    427c:	2c 34 29 2c 	unknown
    4280:	31 32 38 2c 	sethi  %hi(0xc8e0b000), %i0
    4284:	33 32 3b 6e 	sethi  %hi(0xc8edb800), %i1
    4288:	6f 74 75 73 	call  bdd21854 <LEON_REG+0x3dd21854>
    428c:	65 64 30 31 	call  95910350 <LEON_REG+0x15910350>
    4290:	3a 28 30 2c 	unknown
    4294:	34 29 2c 31 	unknown
    4298:	36 30 2c 33 	unknown
    429c:	32 3b 6e 6f 	unknown
    42a0:	74 75 73 65 	call  d1d61034 <LEON_REG+0x51d61034>
    42a4:	64 30 32 3a 	call  90c10b8c <LEON_REG+0x10c10b8c>
    42a8:	28 30 2c 34 	unknown
    42ac:	29 2c 31 39 	sethi  %hi(0xb0c4e400), %l4
    42b0:	32 2c 33 32 	unknown
    42b4:	3b 6e 6f 74 	unknown
    42b8:	75 73 65 64 	call  d5cdd848 <LEON_REG+0x55cdd848>
    42bc:	30 33 3a 28 	unknown
    42c0:	30 2c 34 29 	unknown
    42c4:	2c 32 32 34 	unknown
    42c8:	2c 33 32 3b 	unknown
    42cc:	6e 6f 74 75 	call  b9be14a0 <LEON_REG+0x39be14a0>
    42d0:	73 65 64 31 	call  cd95d394 <LEON_REG+0x4d95d394>
    42d4:	30 3a 28 30 	unknown
    42d8:	2c 34 29 2c 	unknown
    42dc:	32 35 36 2c 	unknown
    42e0:	33 32 3b 6e 	sethi  %hi(0xc8edb800), %i1
    42e4:	6f 74 75 73 	call  bdd218b0 <LEON_REG+0x3dd218b0>
    42e8:	65 64 31 31 	call  959107ac <LEON_REG+0x159107ac>
    42ec:	3a 28 30 2c 	unknown
    42f0:	34 29 2c 32 	unknown
    42f4:	38 38 2c 33 	unknown
    42f8:	32 3b 6e 6f 	unknown
    42fc:	74 75 73 65 	call  d1d61090 <LEON_REG+0x51d61090>
    4300:	64 31 32 3a 	call  90c50be8 <LEON_REG+0x10c50be8>
    4304:	28 30 2c 34 	unknown
    4308:	29 2c 33 32 	sethi  %hi(0xb0ccc800), %l4
    430c:	30 2c 33 32 	unknown
    4310:	3b 6e 6f 74 	unknown
    4314:	75 73 65 64 	call  d5cdd8a4 <LEON_REG+0x55cdd8a4>
    4318:	31 33 3a 28 	sethi  %hi(0xcce8a000), %i0
    431c:	30 2c 34 29 	unknown
    4320:	2c 33 35 32 	unknown
    4324:	2c 33 32 3b 	unknown
    4328:	6e 6f 74 75 	call  b9be14fc <LEON_REG+0x39be14fc>
    432c:	73 65 64 32 	call  cd95d3f4 <LEON_REG+0x4d95d3f4>
    4330:	30 3a 28 30 	unknown
    4334:	2c 34 29 2c 	unknown
    4338:	33 38 34 2c 	sethi  %hi(0xe0d0b000), %i1
    433c:	33 32 3b 6e 	sethi  %hi(0xc8edb800), %i1
    4340:	6f 74 75 73 	call  bdd2190c <LEON_REG+0x3dd2190c>
    4344:	65 64 32 31 	call  95910c08 <LEON_REG+0x15910c08>
    4348:	3a 28 30 2c 	unknown
    434c:	34 29 2c 34 	unknown
    4350:	31 36 2c 33 	sethi  %hi(0xd8b0cc00), %i0
    4354:	32 3b 6e 6f 	unknown
    4358:	74 75 73 65 	call  d1d610ec <LEON_REG+0x51d610ec>
    435c:	64 32 32 3a 	call  90c90c44 <LEON_REG+0x10c90c44>
    4360:	28 30 2c 34 	unknown
    4364:	29 2c 34 34 	sethi  %hi(0xb0d0d000), %l4
    4368:	38 2c 33 32 	unknown
    436c:	3b 6e 6f 74 	unknown
    4370:	75 73 65 64 	call  d5cdd900 <LEON_REG+0x55cdd900>
    4374:	32 33 3a 28 	unknown
    4378:	30 2c 34 29 	unknown
    437c:	2c 34 38 30 	unknown
    4380:	2c 33 32 3b 	unknown
    4384:	6d 61 73 6b 	call  b5861130 <LEON_REG+0x35861130>
    4388:	3a 28 31 33 	unknown
    438c:	2c 33 29 3d 	unknown
    4390:	61 72 28 34 	call  85c8e460 <LEON_REG+0x5c8e460>
    4394:	2c 31 34 29 	unknown
    4398:	3b 30 3b 31 	sethi  %hi(0xc0ecc400), %i5
    439c:	35 3b 28 31 	sethi  %hi(0xeca0c400), %i2
    43a0:	33 2c 34 29 	sethi  %hi(0xb0d0a400), %i1
    43a4:	3d 42 28 30 	unknown
    43a8:	2c 34 29 2c 	unknown
    43ac:	35 31 32 2c 	sethi  %hi(0xc4c8b000), %i2
    43b0:	35 31 32 3b 	sethi  %hi(0xc4c8ec00), %i2
    43b4:	3b 00 4c 45 	sethi  %hi(0x1311400), %i5
    43b8:	4f 4e 32 33 	call  3d390c84 <_trap_table-0x316f37c>
    43bc:	5f 41 50 42 	call  7d0584c4 <__end+0x3cb5458c>
    43c0:	55 41 52 54 	call  55058d10 <__end+0x14b54dd8>
    43c4:	5f 52 65 67 	call  7d49d960 <__end+0x3cf99a28>
    43c8:	73 5f 4d 61 	call  cd7d794c <LEON_REG+0x4d7d794c>
    43cc:	70 3a 74 28 	call  c0ea146c <LEON_REG+0x40ea146c>
    43d0:	31 33 2c 35 	sethi  %hi(0xccb0d400), %i0
    43d4:	29 3d 28 31 	sethi  %hi(0xf4a0c400), %l4
    43d8:	33 2c 36 29 	sethi  %hi(0xb0d8a400), %i1
    43dc:	3d 73 31 36 	unknown
    43e0:	64 61 74 61 	call  91861564 <LEON_REG+0x11861564>
    43e4:	3a 28 30 2c 	unknown
    43e8:	34 29 2c 30 	unknown
    43ec:	2c 33 32 3b 	unknown
    43f0:	73 74 61 74 	call  cdd1c9c0 <LEON_REG+0x4dd1c9c0>
    43f4:	75 73 3a 28 	call  d5cd2c94 <LEON_REG+0x55cd2c94>
    43f8:	30 2c 34 29 	unknown
    43fc:	2c 33 32 2c 	unknown
    4400:	33 32 3b 63 	sethi  %hi(0xc8ed8c00), %i1
    4404:	74 72 6c 3a 	call  d1c9f4ec <LEON_REG+0x51c9f4ec>
    4408:	28 30 2c 34 	unknown
    440c:	29 2c 36 34 	sethi  %hi(0xb0d8d000), %l4
    4410:	2c 33 32 3b 	unknown
    4414:	73 63 61 6c 	call  cd8dc9c4 <LEON_REG+0x4d8dc9c4>
    4418:	65 72 3a 28 	call  95c92cb8 <LEON_REG+0x15c92cb8>
    441c:	30 2c 34 29 	unknown
    4420:	2c 39 36 2c 	unknown
    4424:	33 32 3b 3b 	sethi  %hi(0xc8ecec00), %i1
    4428:	00 4c 45 4f 	unknown
    442c:	4e 33 5f 47 	call  38cdc148 <_trap_table-0x7823eb8>
    4430:	70 54 69 6d 	call  c151e9e4 <LEON_REG+0x4151e9e4>
    4434:	65 72 45 6c 	call  95c959e4 <LEON_REG+0x15c959e4>
    4438:	65 6d 5f 52 	call  95b5c180 <LEON_REG+0x15b5c180>
    443c:	65 67 73 5f 	call  959e11b8 <LEON_REG+0x159e11b8>
    4440:	4d 61 70 3a 	call  35860528 <_trap_table-0xac9fad8>
    4444:	74 28 31 33 	call  d0a10910 <LEON_REG+0x50a10910>
    4448:	2c 37 29 3d 	unknown
    444c:	28 31 33 2c 	unknown
    4450:	38 29 3d 73 	unknown
    4454:	31 36 76 61 	sethi  %hi(0xd9d98400), %i0
    4458:	6c 3a 28 30 	call  b0e8e518 <LEON_REG+0x30e8e518>
    445c:	2c 34 29 2c 	unknown
    4460:	30 2c 33 32 	unknown
    4464:	3b 72 6c 64 	unknown
    4468:	3a 28 30 2c 	unknown
    446c:	34 29 2c 33 	unknown
    4470:	32 2c 33 32 	unknown
    4474:	3b 63 74 72 	unknown
    4478:	6c 3a 28 30 	call  b0e8e538 <LEON_REG+0x30e8e538>
    447c:	2c 34 29 2c 	unknown
    4480:	36 34 2c 33 	unknown
    4484:	32 3b 75 6e 	unknown
    4488:	75 73 65 64 	call  d5cdda18 <LEON_REG+0x55cdda18>
    448c:	3a 28 30 2c 	unknown
    4490:	34 29 2c 39 	unknown
    4494:	36 2c 33 32 	unknown
    4498:	3b 3b 00 4c 	sethi  %hi(0xec013000), %i5
    449c:	45 4f 4e 33 	call  153d7d68 <_trap_table-0x2b128298>
    44a0:	5f 47 70 54 	call  7d1e05f0 <__end+0x3ccdc6b8>
    44a4:	69 6d 65 72 	call  a5b5da6c <LEON_REG+0x25b5da6c>
    44a8:	5f 52 65 67 	call  7d49da44 <__end+0x3cf99b0c>
    44ac:	73 5f 4d 61 	call  cd7d7a30 <LEON_REG+0x4d7d7a30>
    44b0:	70 3a 74 28 	call  c0ea1550 <LEON_REG+0x40ea1550>
    44b4:	31 33 2c 39 	sethi  %hi(0xccb0e400), %i0
    44b8:	29 3d 28 31 	sethi  %hi(0xf4a0c400), %l4
    44bc:	33 2c 31 30 	sethi  %hi(0xb0c4c000), %i1
    44c0:	29 3d 73 31 	sethi  %hi(0xf5ccc400), %l4
    44c4:	34 34 73 63 	unknown
    44c8:	61 6c 61 72 	call  85b1ca90 <LEON_REG+0x5b1ca90>
    44cc:	3a 28 30 2c 	unknown
    44d0:	34 29 2c 30 	unknown
    44d4:	2c 33 32 3b 	unknown
    44d8:	73 63 61 6c 	call  cd8dca88 <LEON_REG+0x4d8dca88>
    44dc:	61 72 5f 72 	call  85c9c2a4 <LEON_REG+0x5c9c2a4>
    44e0:	65 6c 6f 61 	call  95b20264 <LEON_REG+0x15b20264>
    44e4:	64 3a 28 30 	call  90e8e5a4 <LEON_REG+0x10e8e5a4>
    44e8:	2c 34 29 2c 	unknown
    44ec:	33 32 2c 33 	sethi  %hi(0xc8b0cc00), %i1
    44f0:	32 3b 63 6f 	unknown
    44f4:	6e 66 69 67 	call  b999ea90 <LEON_REG+0x3999ea90>
    44f8:	3a 28 30 2c 	unknown
    44fc:	34 29 2c 36 	unknown
    4500:	34 2c 33 32 	unknown
    4504:	3b 75 6e 75 	unknown
    4508:	73 65 64 3a 	call  cd95d5f0 <LEON_REG+0x4d95d5f0>
    450c:	28 30 2c 34 	unknown
    4510:	29 2c 39 36 	sethi  %hi(0xb0e4d800), %l4
    4514:	2c 33 32 3b 	unknown
    4518:	65 3a 28 31 	call  94e8e5dc <LEON_REG+0x14e8e5dc>
    451c:	33 2c 31 31 	sethi  %hi(0xb0c4c400), %i1
    4520:	29 3d 61 72 	sethi  %hi(0xf585c800), %l4
    4524:	28 34 2c 31 	unknown
    4528:	34 29 3b 30 	unknown
    452c:	3b 37 3b 28 	sethi  %hi(0xdceca000), %i5
    4530:	31 33 2c 31 	sethi  %hi(0xccb0c400), %i0
    4534:	32 29 3d 42 	unknown
    4538:	28 31 33 2c 	unknown
    453c:	37 29 2c 31 	sethi  %hi(0xa4b0c400), %i3
    4540:	32 38 2c 31 	unknown
    4544:	30 32 34 3b 	unknown
    4548:	3b 00 4c 45 	sethi  %hi(0x1311400), %i5
    454c:	4f 4e 33 5f 	call  3d3912c8 <_trap_table-0x316ed38>
    4550:	49 4f 50 4f 	call  253d868c <_trap_table-0x1b127974>
    4554:	52 54 5f 52 	call  4951c29c <__end+0x9018364>
    4558:	65 67 73 5f 	call  959e12d4 <LEON_REG+0x159e12d4>
    455c:	4d 61 70 3a 	call  35860644 <_trap_table-0xac9f9bc>
    4560:	74 28 31 33 	call  d0a10a2c <LEON_REG+0x50a10a2c>
    4564:	2c 31 33 29 	unknown
    4568:	3d 28 31 33 	sethi  %hi(0xa0c4cc00), %fp
    456c:	2c 31 34 29 	unknown
    4570:	3d 73 32 34 	unknown
    4574:	69 6f 64 61 	call  a5bdd6f8 <LEON_REG+0x25bdd6f8>
    4578:	74 61 3a 28 	call  d1852e18 <LEON_REG+0x51852e18>
    457c:	30 2c 34 29 	unknown
    4580:	2c 30 2c 33 	unknown
    4584:	32 3b 69 6f 	unknown
    4588:	6f 75 74 3a 	call  bdd61670 <LEON_REG+0x3dd61670>
    458c:	28 30 2c 34 	unknown
    4590:	29 2c 33 32 	sethi  %hi(0xb0ccc800), %l4
    4594:	2c 33 32 3b 	unknown
    4598:	69 6f 64 69 	call  a5bdd73c <LEON_REG+0x25bdd73c>
    459c:	72 3a 28 30 	call  c8e8e65c <LEON_REG+0x48e8e65c>
    45a0:	2c 34 29 2c 	unknown
    45a4:	36 34 2c 33 	unknown
    45a8:	32 3b 69 72 	unknown
    45ac:	71 6d 61 73 	call  c5b5cb78 <LEON_REG+0x45b5cb78>
    45b0:	6b 3a 28 30 	call  ace8e670 <LEON_REG+0x2ce8e670>
    45b4:	2c 34 29 2c 	unknown
    45b8:	39 36 2c 33 	sethi  %hi(0xd8b0cc00), %i4
    45bc:	32 3b 69 72 	unknown
    45c0:	71 70 6f 6c 	call  c5c20370 <LEON_REG+0x45c20370>
    45c4:	3a 28 30 2c 	unknown
    45c8:	34 29 2c 31 	unknown
    45cc:	32 38 2c 33 	unknown
    45d0:	32 3b 69 72 	unknown
    45d4:	71 65 64 67 	call  c595d770 <LEON_REG+0x4595d770>
    45d8:	65 3a 28 30 	call  94e8e698 <LEON_REG+0x14e8e698>
    45dc:	2c 34 29 2c 	unknown
    45e0:	31 36 30 2c 	sethi  %hi(0xd8c0b000), %i0
    45e4:	33 32 3b 3b 	sethi  %hi(0xc8ecec00), %i1
    45e8:	00 61 6d 62 	unknown
    45ec:	61 5f 64 65 	call  857dd780 <LEON_REG+0x57dd780>
    45f0:	76 69 63 65 	call  d9a5d384 <LEON_REG+0x59a5d384>
    45f4:	5f 74 61 62 	call  7dd1cb7c <__end+0x3d818c44>
    45f8:	6c 65 3a 54 	call  b1952f48 <LEON_REG+0x31952f48>
    45fc:	28 31 33 2c 	unknown
    4600:	31 35 29 3d 	sethi  %hi(0xd4a4f400), %i0
    4604:	73 37 32 64 	call  ccdd0f94 <LEON_REG+0x4cdd0f94>
    4608:	65 76 6e 72 	call  95d9ffd0 <LEON_REG+0x15d9ffd0>
    460c:	3a 28 30 2c 	unknown
    4610:	31 29 2c 30 	sethi  %hi(0xa4b0c000), %i0
    4614:	2c 33 32 3b 	unknown
    4618:	61 64 64 72 	call  8591d7e0 <LEON_REG+0x591d7e0>
    461c:	3a 28 31 33 	unknown
    4620:	2c 31 36 29 	unknown
    4624:	3d 61 72 28 	unknown
    4628:	34 2c 31 34 	unknown
    462c:	29 3b 30 3b 	sethi  %hi(0xecc0ec00), %l4
    4630:	31 35 3b 28 	sethi  %hi(0xd4eca000), %i0
    4634:	31 33 2c 31 	sethi  %hi(0xccb0c400), %i0
    4638:	37 29 3d 2a 	sethi  %hi(0xa4f4a800), %i3
    463c:	28 30 2c 34 	unknown
    4640:	29 2c 33 32 	sethi  %hi(0xb0ccc800), %l4
    4644:	2c 35 31 32 	unknown
    4648:	3b 61 6c 6c 	unknown
    464c:	6f 63 62 69 	call  bd8dcff0 <LEON_REG+0x3d8dcff0>
    4650:	74 73 3a 28 	call  d1cd2ef0 <LEON_REG+0x51cd2ef0>
    4654:	31 33 2c 31 	sethi  %hi(0xccb0c400), %i0
    4658:	38 29 3d 61 	unknown
    465c:	72 28 34 2c 	call  c8a1170c <LEON_REG+0x48a1170c>
    4660:	31 34 29 3b 	sethi  %hi(0xd0a4ec00), %i0
    4664:	30 3b 30 3b 	unknown
    4668:	28 30 2c 34 	unknown
    466c:	29 2c 35 34 	sethi  %hi(0xb0d4d000), %l4
    4670:	34 2c 33 32 	unknown
    4674:	3b 3b 00 61 	sethi  %hi(0xec018400), %i5
    4678:	6d 62 61 5f 	call  b589cbf4 <LEON_REG+0x3589cbf4>
    467c:	64 65 76 69 	call  91962020 <LEON_REG+0x11962020>
    4680:	63 65 5f 74 	call  8d95c450 <LEON_REG+0xd95c450>
    4684:	61 62 6c 65 	call  8589f818 <LEON_REG+0x589f818>
    4688:	3a 74 28 31 	unknown
    468c:	33 2c 31 39 	sethi  %hi(0xb0c4e400), %i1
    4690:	29 3d 28 31 	sethi  %hi(0xf4a0c400), %l4
    4694:	33 2c 31 35 	sethi  %hi(0xb0c4d400), %i1
    4698:	29 00 61 6d 	sethi  %hi(0x185b400), %l4
    469c:	62 61 5f 63 	call  8985c428 <LEON_REG+0x985c428>
    46a0:	6f 6e 66 61 	call  bdb9e024 <LEON_REG+0x3db9e024>
    46a4:	72 65 61 5f 	call  c995cc20 <LEON_REG+0x4995cc20>
    46a8:	74 79 70 65 	call  d1e6083c <LEON_REG+0x51e6083c>
    46ac:	3a 54 28 31 	unknown
    46b0:	33 2c 32 30 	sethi  %hi(0xb0c8c000), %i1
    46b4:	29 3d 73 32 	sethi  %hi(0xf5ccc800), %l4
    46b8:	32 30 61 68 	unknown
    46bc:	62 6d 73 74 	call  89b6148c <LEON_REG+0x9b6148c>
    46c0:	3a 28 31 33 	unknown
    46c4:	2c 31 39 29 	unknown
    46c8:	2c 30 2c 35 	unknown
    46cc:	37 36 3b 61 	sethi  %hi(0xd8ed8400), %i3
    46d0:	68 62 73 6c 	call  a18a1480 <LEON_REG+0x218a1480>
    46d4:	76 3a 28 31 	call  d8e8e798 <LEON_REG+0x58e8e798>
    46d8:	33 2c 31 39 	sethi  %hi(0xb0c4e400), %i1
    46dc:	29 2c 35 37 	sethi  %hi(0xb0d4dc00), %l4
    46e0:	36 2c 35 37 	unknown
    46e4:	36 3b 61 70 	unknown
    46e8:	62 73 6c 76 	call  89cdf8c0 <LEON_REG+0x9cdf8c0>
    46ec:	3a 28 31 33 	unknown
    46f0:	2c 31 39 29 	unknown
    46f4:	2c 31 31 35 	unknown
    46f8:	32 2c 35 37 	unknown
    46fc:	36 3b 61 70 	unknown
    4700:	62 6d 73 74 	call  89b614d0 <LEON_REG+0x9b614d0>
    4704:	3a 28 30 2c 	unknown
    4708:	34 29 2c 31 	unknown
    470c:	37 32 38 2c 	sethi  %hi(0xc8e0b000), %i3
    4710:	33 32 3b 3b 	sethi  %hi(0xc8ecec00), %i1
    4714:	00 61 6d 62 	unknown
    4718:	61 5f 63 6f 	call  857dd4d4 <LEON_REG+0x57dd4d4>
    471c:	6e 66 61 72 	call  b999cce4 <LEON_REG+0x3999cce4>
    4720:	65 61 5f 74 	call  9585c4f0 <LEON_REG+0x1585c4f0>
    4724:	79 70 65 3a 	call  e5c1dc0c <LEON_REG+0x65c1dc0c>
    4728:	74 28 31 33 	call  d0a10bf4 <LEON_REG+0x50a10bf4>
    472c:	2c 32 31 29 	unknown
    4730:	3d 28 31 33 	sethi  %hi(0xa0c4cc00), %fp
    4734:	2c 32 30 29 	unknown
    4738:	00 61 6d 62 	unknown
    473c:	61 5f 61 70 	call  857dccfc <LEON_REG+0x57dccfc>
    4740:	62 5f 64 65 	call  897dd8d4 <LEON_REG+0x97dd8d4>
    4744:	76 69 63 65 	call  d9a5d4d8 <LEON_REG+0x59a5d4d8>
    4748:	3a 54 28 31 	unknown
    474c:	33 2c 32 32 	sethi  %hi(0xb0c8c800), %i1
    4750:	29 3d 73 38 	sethi  %hi(0xf5cce000), %l4
    4754:	73 74 61 72 	call  cdd1cd1c <LEON_REG+0x4dd1cd1c>
    4758:	74 3a 28 30 	call  d0e8e818 <LEON_REG+0x50e8e818>
    475c:	2c 34 29 2c 	unknown
    4760:	30 2c 33 32 	unknown
    4764:	3b 69 72 71 	unknown
    4768:	3a 28 30 2c 	unknown
    476c:	34 29 2c 33 	unknown
    4770:	32 2c 33 32 	unknown
    4774:	3b 3b 00 61 	sethi  %hi(0xec018400), %i5
    4778:	6d 62 61 5f 	call  b589ccf4 <LEON_REG+0x3589ccf4>
    477c:	61 70 62 5f 	call  85c1d0f8 <LEON_REG+0x5c1d0f8>
    4780:	64 65 76 69 	call  91962124 <LEON_REG+0x11962124>
    4784:	63 65 3a 74 	call  8d953154 <LEON_REG+0xd953154>
    4788:	28 31 33 2c 	unknown
    478c:	32 33 29 3d 	unknown
    4790:	28 31 33 2c 	unknown
    4794:	32 32 29 00 	unknown
    4798:	61 6d 62 61 	call  85b5d11c <LEON_REG+0x5b5d11c>
    479c:	5f 61 68 62 	call  7d85e924 <__end+0x3d35a9ec>
    47a0:	5f 64 65 76 	call  7d91dd78 <__end+0x3d419e40>
    47a4:	69 63 65 3a 	call  a58ddc8c <LEON_REG+0x258ddc8c>
    47a8:	54 28 31 33 	call  50a10c74 <__end+0x1050cd3c>
    47ac:	2c 32 34 29 	unknown
    47b0:	3d 73 32 30 	unknown
    47b4:	73 74 61 72 	call  cdd1cd7c <LEON_REG+0x4dd1cd7c>
    47b8:	74 3a 28 31 	call  d0e8e87c <LEON_REG+0x50e8e87c>
    47bc:	33 2c 32 35 	sethi  %hi(0xb0c8d400), %i1
    47c0:	29 3d 61 72 	sethi  %hi(0xf585c800), %l4
    47c4:	28 34 2c 31 	unknown
    47c8:	34 29 3b 30 	unknown
    47cc:	3b 33 3b 28 	sethi  %hi(0xcceca000), %i5
    47d0:	30 2c 34 29 	unknown
    47d4:	2c 30 2c 31 	unknown
    47d8:	32 38 3b 69 	unknown
    47dc:	72 71 3a 28 	call  c9c5307c <LEON_REG+0x49c5307c>
    47e0:	30 2c 34 29 	unknown
    47e4:	2c 31 32 38 	unknown
    47e8:	2c 33 32 3b 	unknown
    47ec:	3b 00 61 6d 	sethi  %hi(0x185b400), %i5
    47f0:	62 61 5f 61 	call  8985c574 <LEON_REG+0x985c574>
    47f4:	68 62 5f 64 	call  a189c584 <LEON_REG+0x2189c584>
    47f8:	65 76 69 63 	call  95d9ed84 <LEON_REG+0x15d9ed84>
    47fc:	65 3a 74 28 	call  94ea189c <LEON_REG+0x14ea189c>
    4800:	31 33 2c 32 	sethi  %hi(0xccb0c800), %i0
    4804:	36 29 3d 28 	unknown
    4808:	31 33 2c 32 	sethi  %hi(0xccb0c800), %i0
    480c:	34 29 00 6c 	unknown
    4810:	65 6f 6e 62 	call  95be0198 <LEON_REG+0x15be0198>
    4814:	61 72 65 5f 	call  85c9dd90 <LEON_REG+0x5c9dd90>
    4818:	70 74 5f 72 	call  c1d1c5e0 <LEON_REG+0x41d1c5e0>
    481c:	65 67 73 3a 	call  959e1504 <LEON_REG+0x159e1504>
    4820:	54 28 31 35 	call  50a10cf4 <__end+0x1050cdbc>
    4824:	2c 31 29 3d 	unknown
    4828:	73 38 30 70 	call  cce109e8 <LEON_REG+0x4ce109e8>
    482c:	73 72 3a 28 	call  cdc930cc <LEON_REG+0x4dc930cc>
    4830:	30 2c 35 29 	unknown
    4834:	2c 30 2c 33 	unknown
    4838:	32 3b 70 63 	unknown
    483c:	3a 28 30 2c 	unknown
    4840:	35 29 2c 33 	sethi  %hi(0xa4b0cc00), %i2
    4844:	32 2c 33 32 	unknown
    4848:	3b 6e 70 63 	unknown
    484c:	3a 28 30 2c 	unknown
    4850:	35 29 2c 36 	sethi  %hi(0xa4b0d800), %i2
    4854:	34 2c 33 32 	unknown
    4858:	3b 79 3a 28 	unknown
    485c:	30 2c 35 29 	unknown
    4860:	2c 39 36 2c 	unknown
    4864:	33 32 3b 75 	sethi  %hi(0xc8edd400), %i1
    4868:	5f 72 65 67 	call  7dc9de04 <__end+0x3d799ecc>
    486c:	73 3a 28 31 	call  cce8e930 <LEON_REG+0x4ce8e930>
    4870:	35 2c 32 29 	sethi  %hi(0xb0c8a400), %i2
    4874:	3d 61 72 28 	unknown
    4878:	34 2c 31 34 	unknown
    487c:	29 3b 30 3b 	sethi  %hi(0xecc0ec00), %l4
    4880:	31 35 3b 28 	sethi  %hi(0xd4eca000), %i0
    4884:	30 2c 35 29 	unknown
    4888:	2c 31 32 38 	unknown
    488c:	2c 35 31 32 	unknown
    4890:	3b 3b 00 73 	sethi  %hi(0xec01cc00), %i5
    4894:	70 61 72 63 	call  c1861220 <LEON_REG+0x41861220>
    4898:	5f 73 74 61 	call  7dce1a1c <__end+0x3d7ddae4>
    489c:	63 6b 66 72 	call  8dade264 <LEON_REG+0xdade264>
    48a0:	61 6d 65 5f 	call  85b5de1c <LEON_REG+0x5b5de1c>
    48a4:	72 65 67 73 	call  c995e670 <LEON_REG+0x4995e670>
    48a8:	3a 54 28 31 	unknown
    48ac:	35 2c 33 29 	sethi  %hi(0xb0cca400), %i2
    48b0:	3d 73 39 36 	unknown
    48b4:	73 66 5f 6c 	call  cd99c664 <LEON_REG+0x4d99c664>
    48b8:	6f 63 61 6c 	call  bd8dce68 <LEON_REG+0x3d8dce68>
    48bc:	73 3a 28 31 	call  cce8e980 <LEON_REG+0x4ce8e980>
    48c0:	35 2c 34 29 	sethi  %hi(0xb0d0a400), %i2
    48c4:	3d 61 72 28 	unknown
    48c8:	34 2c 31 34 	unknown
    48cc:	29 3b 30 3b 	sethi  %hi(0xecc0ec00), %l4
    48d0:	37 3b 28 30 	sethi  %hi(0xeca0c000), %i3
    48d4:	2c 35 29 2c 	unknown
    48d8:	30 2c 32 35 	unknown
    48dc:	36 3b 73 66 	unknown
    48e0:	5f 69 6e 73 	call  7da602ac <__end+0x3d55c374>
    48e4:	3a 28 31 35 	unknown
    48e8:	2c 35 29 3d 	unknown
    48ec:	61 72 28 34 	call  85c8e9bc <LEON_REG+0x5c8e9bc>
    48f0:	2c 31 34 29 	unknown
    48f4:	3b 30 3b 35 	sethi  %hi(0xc0ecd400), %i5
    48f8:	3b 28 30 2c 	sethi  %hi(0xa0c0b000), %i5
    48fc:	35 29 2c 32 	sethi  %hi(0xa4b0c800), %i2
    4900:	35 36 2c 31 	sethi  %hi(0xd8b0c400), %i2
    4904:	39 32 3b 73 	sethi  %hi(0xc8edcc00), %i4
    4908:	66 5f 66 70 	call  997de2c8 <LEON_REG+0x197de2c8>
    490c:	3a 28 31 35 	unknown
    4910:	2c 36 29 3d 	unknown
    4914:	2a 28 31 35 	unknown
    4918:	2c 33 29 2c 	unknown
    491c:	34 34 38 2c 	unknown
    4920:	33 32 3b 73 	sethi  %hi(0xc8edcc00), %i1
    4924:	66 5f 63 61 	call  997dd6a8 <LEON_REG+0x197dd6a8>
    4928:	6c 6c 65 72 	call  b1b1def0 <LEON_REG+0x31b1def0>
    492c:	73 5f 70 63 	call  cd7e0ab8 <LEON_REG+0x4d7e0ab8>
    4930:	3a 28 30 2c 	unknown
    4934:	35 29 2c 34 	sethi  %hi(0xa4b0d000), %i2
    4938:	38 30 2c 33 	unknown
    493c:	32 3b 73 66 	unknown
    4940:	5f 73 74 72 	call  7dce1b08 <__end+0x3d7ddbd0>
    4944:	75 63 74 70 	call  d58e1b04 <LEON_REG+0x558e1b04>
    4948:	74 72 3a 28 	call  d1c931e8 <LEON_REG+0x51c931e8>
    494c:	34 2c 36 29 	unknown
    4950:	2c 35 31 32 	unknown
    4954:	2c 33 32 3b 	unknown
    4958:	73 66 5f 78 	call  cd99c738 <LEON_REG+0x4d99c738>
    495c:	61 72 67 73 	call  85c9e728 <LEON_REG+0x5c9e728>
    4960:	3a 28 31 35 	unknown
    4964:	2c 35 29 2c 	unknown
    4968:	35 34 34 2c 	sethi  %hi(0xd0d0b000), %i2
    496c:	31 39 32 3b 	sethi  %hi(0xe4c8ec00), %i0
    4970:	73 66 5f 78 	call  cd99c750 <LEON_REG+0x4d99c750>
    4974:	78 61 72 67 	call  e1861310 <LEON_REG+0x61861310>
    4978:	73 3a 28 31 	call  cce8ea3c <LEON_REG+0x4ce8ea3c>
    497c:	35 2c 37 29 	sethi  %hi(0xb0dca400), %i2
    4980:	3d 61 72 28 	unknown
    4984:	34 2c 31 34 	unknown
    4988:	29 3b 30 3b 	sethi  %hi(0xecc0ec00), %l4
    498c:	30 3b 28 30 	unknown
    4990:	2c 35 29 2c 	unknown
    4994:	37 33 36 2c 	sethi  %hi(0xccd8b000), %i3
    4998:	33 32 3b 3b 	sethi  %hi(0xc8ecec00), %i1
    499c:	00 73 70 61 	unknown
    49a0:	72 63 5f 72 	call  c98dc768 <LEON_REG+0x498dc768>
    49a4:	65 67 77 69 	call  959e2748 <LEON_REG+0x159e2748>
    49a8:	6e 64 6f 77 	call  b9920784 <LEON_REG+0x39920784>
    49ac:	5f 72 65 67 	call  7dc9df48 <__end+0x3d79a010>
    49b0:	73 3a 54 28 	call  cce99a50 <LEON_REG+0x4ce99a50>
    49b4:	31 35 2c 38 	sethi  %hi(0xd4b0e000), %i0
    49b8:	29 3d 73 36 	sethi  %hi(0xf5ccd800), %l4
    49bc:	34 6c 6f 63 	unknown
    49c0:	61 6c 73 3a 	call  85b216a8 <LEON_REG+0x5b216a8>
    49c4:	28 31 35 2c 	unknown
    49c8:	34 29 2c 30 	unknown
    49cc:	2c 32 35 36 	unknown
    49d0:	3b 69 6e 73 	unknown
    49d4:	3a 28 31 35 	unknown
    49d8:	2c 34 29 2c 	unknown
    49dc:	32 35 36 2c 	unknown
    49e0:	32 35 36 3b 	unknown
    49e4:	3b 00 73 70 	sethi  %hi(0x1cdc000), %i5
    49e8:	61 72 63 5f 	call  85c9d764 <LEON_REG+0x5c9d764>
    49ec:	66 70 75 77 	call  99c21fc8 <LEON_REG+0x19c21fc8>
    49f0:	69 6e 64 6f 	call  a5b9dbac <LEON_REG+0x25b9dbac>
    49f4:	77 5f 72 65 	call  dd7e1388 <LEON_REG+0x5d7e1388>
    49f8:	67 73 3a 54 	call  9dcd3348 <LEON_REG+0x1dcd3348>
    49fc:	28 31 35 2c 	unknown
    4a00:	39 29 3d 73 	sethi  %hi(0xa4f5cc00), %i4
    4a04:	31 33 36 6c 	sethi  %hi(0xccd9b000), %i0
    4a08:	6f 63 61 6c 	call  bd8dcfb8 <LEON_REG+0x3d8dcfb8>
    4a0c:	73 3a 28 31 	call  cce8ead0 <LEON_REG+0x4ce8ead0>
    4a10:	35 2c 31 30 	sethi  %hi(0xb0c4c000), %i2
    4a14:	29 3d 61 72 	sethi  %hi(0xf585c800), %l4
    4a18:	28 34 2c 31 	unknown
    4a1c:	34 29 3b 30 	unknown
    4a20:	3b 33 31 3b 	sethi  %hi(0xccc4ec00), %i5
    4a24:	28 30 2c 35 	unknown
    4a28:	29 2c 30 2c 	sethi  %hi(0xb0c0b000), %l4
    4a2c:	31 30 32 34 	sethi  %hi(0xc0c8d000), %i0
    4a30:	3b 66 73 72 	unknown
    4a34:	3a 28 30 2c 	unknown
    4a38:	35 29 2c 31 	sethi  %hi(0xa4b0c400), %i2
    4a3c:	30 32 34 2c 	unknown
    4a40:	33 32 3b 6c 	sethi  %hi(0xc8edb000), %i1
    4a44:	61 73 74 63 	call  85ce1bd0 <LEON_REG+0x5ce1bd0>
    4a48:	74 78 3a 28 	call  d1e132e8 <LEON_REG+0x51e132e8>
    4a4c:	30 2c 35 29 	unknown
    4a50:	2c 31 30 35 	unknown
    4a54:	36 2c 33 32 	unknown
    4a58:	3b 3b 00 69 	sethi  %hi(0xec01a400), %i5
    4a5c:	72 71 68 61 	call  c9c5ebe0 <LEON_REG+0x49c5ebe0>
    4a60:	6e 64 6c 65 	call  b991fbf4 <LEON_REG+0x3991fbf4>
    4a64:	72 3a 74 28 	call  c8ea1b04 <LEON_REG+0x48ea1b04>
    4a68:	31 34 2c 31 	sethi  %hi(0xd0b0c400), %i0
    4a6c:	29 3d 28 31 	sethi  %hi(0xf4a0c400), %l4
    4a70:	34 2c 32 29 	unknown
    4a74:	3d 2a 28 31 	sethi  %hi(0xa8a0c400), %fp
    4a78:	34 2c 33 29 	unknown
    4a7c:	3d 66 28 30 	unknown
    4a80:	2c 31 29 00 	unknown
    4a84:	69 72 71 61 	call  a5ca1008 <LEON_REG+0x25ca1008>
    4a88:	63 74 69 6f 	call  8dd1f044 <LEON_REG+0xdd1f044>
    4a8c:	6e 3a 54 28 	call  b8e99b2c <LEON_REG+0x38e99b2c>
    4a90:	31 34 2c 34 	sethi  %hi(0xd0b0d000), %i0
    4a94:	29 3d 73 31 	sethi  %hi(0xf5ccc400), %l4
    4a98:	36 68 61 6e 	unknown
    4a9c:	64 6c 65 72 	call  91b1e064 <LEON_REG+0x11b1e064>
    4aa0:	3a 28 31 34 	unknown
    4aa4:	2c 31 29 2c 	unknown
    4aa8:	30 2c 33 32 	unknown
    4aac:	3b 66 6c 61 	unknown
    4ab0:	67 73 3a 28 	call  9dcd3350 <LEON_REG+0x1dcd3350>
    4ab4:	30 2c 35 29 	unknown
    4ab8:	2c 33 32 2c 	unknown
    4abc:	33 32 3b 64 	sethi  %hi(0xc8ed9000), %i1
    4ac0:	65 76 5f 69 	call  95d9c864 <LEON_REG+0x15d9c864>
    4ac4:	64 3a 28 32 	call  90e8eb8c <LEON_REG+0x10e8eb8c>
    4ac8:	2c 31 30 29 	unknown
    4acc:	2c 36 34 2c 	unknown
    4ad0:	33 32 3b 6e 	sethi  %hi(0xc8edb800), %i1
    4ad4:	65 78 74 3a 	call  95e21bbc <LEON_REG+0x15e21bbc>
    4ad8:	28 31 34 2c 	unknown
    4adc:	35 29 3d 2a 	sethi  %hi(0xa4f4a800), %i2
    4ae0:	28 31 34 2c 	unknown
    4ae4:	34 29 2c 39 	unknown
    4ae8:	36 2c 33 32 	unknown
    4aec:	3b 3b 00 69 	sethi  %hi(0xec01a400), %i5
    4af0:	72 71 6d 70 	call  c9c600b0 <LEON_REG+0x49c600b0>
    4af4:	5f 74 79 70 	call  7dd230b4 <__end+0x3d81f17c>
    4af8:	65 3a 54 28 	call  94e99b98 <LEON_REG+0x14e99b98>
    4afc:	31 34 2c 36 	sethi  %hi(0xd0b0d800), %i0
    4b00:	29 3d 73 38 	sethi  %hi(0xf5cce000), %l4
    4b04:	61 64 64 72 	call  8591dccc <LEON_REG+0x591dccc>
    4b08:	3a 28 31 34 	unknown
    4b0c:	2c 37 29 3d 	unknown
    4b10:	2a 28 30 2c 	unknown
    4b14:	31 29 2c 30 	sethi  %hi(0xa4b0c000), %i0
    4b18:	2c 33 32 3b 	unknown
    4b1c:	65 69 72 71 	call  95a614e0 <LEON_REG+0x15a614e0>
    4b20:	3a 28 30 2c 	unknown
    4b24:	31 29 2c 33 	sethi  %hi(0xa4b0cc00), %i0
    4b28:	32 2c 33 32 	unknown
    4b2c:	3b 3b 00 73 	sethi  %hi(0xec01cc00), %i5
    4b30:	63 68 65 64 	call  8da1e0c0 <LEON_REG+0xda1e0c0>
    4b34:	75 6c 65 68 	call  d5b1e0d4 <LEON_REG+0x55b1e0d4>
    4b38:	61 6e 64 6c 	call  85b9dce8 <LEON_REG+0x5b9dce8>
    4b3c:	65 72 3a 74 	call  95c9350c <LEON_REG+0x15c9350c>
    4b40:	28 31 34 2c 	unknown
    4b44:	38 29 3d 28 	unknown
    4b48:	31 34 2c 39 	sethi  %hi(0xd0b0e400), %i0
    4b4c:	29 3d 2a 28 	sethi  %hi(0xf4a8a000), %l4
    4b50:	31 34 2c 31 	sethi  %hi(0xd0b0c400), %i0
    4b54:	30 29 3d 66 	unknown
    4b58:	28 30 2c 31 	unknown
    4b5c:	29 00 74 69 	sethi  %hi(0x1d1a400), %l4
    4b60:	63 6b 65 72 	call  8dade128 <LEON_REG+0xdade128>
    4b64:	68 61 6e 64 	call  a18604f4 <LEON_REG+0x218604f4>
    4b68:	6c 65 72 3a 	call  b1961450 <LEON_REG+0x31961450>
    4b6c:	74 28 31 34 	call  d0a1103c <LEON_REG+0x50a1103c>
    4b70:	2c 31 31 29 	unknown
    4b74:	3d 28 31 34 	sethi  %hi(0xa0c4d000), %fp
    4b78:	2c 39 29 00 	unknown
    4b7c:	70 65 6e 64 	call  c196050c <LEON_REG+0x4196050c>
    4b80:	69 6e 67 68 	call  a5b9e920 <LEON_REG+0x25b9e920>
    4b84:	61 6e 64 6c 	call  85b9dd34 <LEON_REG+0x5b9dd34>
    4b88:	65 72 3a 74 	call  95c93558 <LEON_REG+0x15c93558>
    4b8c:	28 31 34 2c 	unknown
    4b90:	31 32 29 3d 	sethi  %hi(0xc8a4f400), %i0
    4b94:	28 31 30 2c 	unknown
    4b98:	32 33 29 00 	unknown
    4b9c:	70 65 6e 64 	call  c196052c <LEON_REG+0x4196052c>
    4ba0:	69 6e 67 61 	call  a5b9e924 <LEON_REG+0x25b9e924>
    4ba4:	63 74 69 6f 	call  8dd1f160 <LEON_REG+0xdd1f160>
    4ba8:	6e 3a 54 28 	call  b8e99c48 <LEON_REG+0x38e99c48>
    4bac:	31 34 2c 31 	sethi  %hi(0xd0b0c400), %i0
    4bb0:	33 29 3d 73 	sethi  %hi(0xa4f5cc00), %i1
    4bb4:	31 36 6e 65 	sethi  %hi(0xd9b99400), %i0
    4bb8:	78 74 3a 28 	call  e1d13458 <LEON_REG+0x61d13458>
    4bbc:	31 34 2c 31 	sethi  %hi(0xd0b0c400), %i0
    4bc0:	34 29 3d 73 	unknown
    4bc4:	38 74 71 65 	unknown
    4bc8:	5f 6e 65 78 	call  7db9e1a8 <__end+0x3d69a270>
    4bcc:	74 3a 28 31 	call  d0e8ec90 <LEON_REG+0x50e8ec90>
    4bd0:	34 2c 31 35 	unknown
    4bd4:	29 3d 2a 28 	sethi  %hi(0xf4a8a000), %l4
    4bd8:	31 34 2c 31 	sethi  %hi(0xd0b0c400), %i0
    4bdc:	33 29 2c 30 	sethi  %hi(0xa4b0c000), %i1
    4be0:	2c 33 32 3b 	unknown
    4be4:	74 71 65 5f 	call  d1c5e160 <LEON_REG+0x51c5e160>
    4be8:	70 72 65 76 	call  c1c9e1c0 <LEON_REG+0x41c9e1c0>
    4bec:	3a 28 31 34 	unknown
    4bf0:	2c 31 36 29 	unknown
    4bf4:	3d 2a 28 31 	sethi  %hi(0xa8a0c400), %fp
    4bf8:	34 2c 31 35 	unknown
    4bfc:	29 2c 33 32 	sethi  %hi(0xb0ccc800), %l4
    4c00:	2c 33 32 3b 	unknown
    4c04:	3b 2c 30 2c 	sethi  %hi(0xb0c0b000), %i5
    4c08:	36 34 3b 68 	unknown
    4c0c:	61 6e 64 6c 	call  85b9ddbc <LEON_REG+0x5b9ddbc>
    4c10:	65 72 3a 28 	call  95c934b0 <LEON_REG+0x15c934b0>
    4c14:	31 34 2c 31 	sethi  %hi(0xd0b0c400), %i0
    4c18:	32 29 2c 36 	unknown
    4c1c:	34 2c 33 32 	unknown
    4c20:	3b 61 72 67 	unknown
    4c24:	3a 28 32 2c 	unknown
    4c28:	31 30 29 2c 	sethi  %hi(0xc0a4b000), %i0
    4c2c:	39 36 2c 33 	sethi  %hi(0xd8b0cc00), %i4
    4c30:	32 3b 3b 00 	unknown
    4c34:	2e 2f 2e 2e 	unknown
    4c38:	2f 2e 2e 2f 	sethi  %hi(0xb8b8bc00), %l7
    4c3c:	6e 65 77 6c 	call  b99629ec <LEON_REG+0x399629ec>
    4c40:	69 62 2f 74 	call  a5890a10 <LEON_REG+0x25890a10>
    4c44:	61 72 67 2d 	call  85c9e8f8 <LEON_REG+0x5c9e8f8>
    4c48:	69 6e 63 6c 	call  a5b9d9f8 <LEON_REG+0x25b9d9f8>
    4c4c:	75 64 65 2f 	call  d591e108 <LEON_REG+0x5591e108>
    4c50:	61 73 6d 2d 	call  85ce0104 <LEON_REG+0x5ce0104>
    4c54:	6c 65 6f 6e 	call  b1960a0c <LEON_REG+0x31960a0c>
    4c58:	2f 6a 69 66 	unknown
    4c5c:	66 69 65 73 	call  99a5e228 <LEON_REG+0x19a5e228>
    4c60:	2e 68 00 2e 	unknown
    4c64:	2f 2e 2e 2f 	sethi  %hi(0xb8b8bc00), %l7
    4c68:	2e 2e 2f 6e 	unknown
    4c6c:	65 77 6c 69 	call  95ddfe10 <LEON_REG+0x15ddfe10>
    4c70:	62 2f 74 61 	call  88be1df4 <LEON_REG+0x8be1df4>
    4c74:	72 67 2d 69 	call  c99d0218 <LEON_REG+0x499d0218>
    4c78:	6e 63 6c 75 	call  b98dfe4c <LEON_REG+0x398dfe4c>
    4c7c:	64 65 2f 61 	call  91950a00 <LEON_REG+0x11950a00>
    4c80:	73 6d 2d 6c 	call  cdb50230 <LEON_REG+0x4db50230>
    4c84:	65 6f 6e 2f 	call  95be0540 <LEON_REG+0x15be0540>
    4c88:	74 79 70 65 	call  d1e60e1c <LEON_REG+0x51e60e1c>
    4c8c:	73 2e 68 00 	call  ccb9ec8c <LEON_REG+0x4cb9ec8c>
    4c90:	75 36 34 3a 	call  d4d91d78 <LEON_REG+0x54d91d78>
    4c94:	74 28 31 37 	call  d0a11170 <LEON_REG+0x50a11170>
    4c98:	2c 31 29 3d 	unknown
    4c9c:	28 30 2c 37 	unknown
    4ca0:	29 00 6a 69 	sethi  %hi(0x1a9a400), %l4
    4ca4:	66 66 69 65 	call  9999f238 <LEON_REG+0x1999f238>
    4ca8:	73 5f 36 34 	call  cd7d2578 <LEON_REG+0x4d7d2578>
    4cac:	3a 47 28 31 	unknown
    4cb0:	37 2c 31 29 	sethi  %hi(0xb0c4a400), %i3
    4cb4:	00 78 74 69 	unknown
    4cb8:	6d 65 3a 47 	call  b59535d4 <LEON_REG+0x359535d4>
    4cbc:	28 31 2c 31 	unknown
    4cc0:	35 29 00 2f 	sethi  %hi(0xa400bc00), %i2
    4cc4:	74 6d 70 2f 	call  d1b60d80 <LEON_REG+0x51b60d80>
    4cc8:	63 63 43 43 	call  8d8d59d4 <LEON_REG+0xd8d59d4>
    4ccc:	52 33 71 53 	call  48ce1218 <__end+0x87dd2e0>
    4cd0:	2e 73 00 2e 	unknown
    4cd4:	2e 2f 2e 2e 	unknown
    4cd8:	2f 2e 2e 2f 	sethi  %hi(0xb8b8bc00), %l7
    4cdc:	2e 2e 2f 2e 	unknown
    4ce0:	2e 2f 67 63 	unknown
    4ce4:	63 2d 33 2e 	call  8cb5199c <LEON_REG+0xcb5199c>
    4ce8:	34 2e 34 2f 	unknown
    4cec:	6c 69 62 67 	call  b1a5d688 <LEON_REG+0x31a5d688>
    4cf0:	6c 6f 73 73 	call  b1be1abc <LEON_REG+0x31be1abc>
    4cf4:	2f 73 70 61 	unknown
    4cf8:	72 63 5f 6c 	call  c98dcaa8 <LEON_REG+0x498dcaa8>
    4cfc:	65 6f 6e 2f 	call  95be05b8 <LEON_REG+0x15be05b8>
    4d00:	6d 6d 75 5f 	call  b5b6227c <LEON_REG+0x35b6227c>
    4d04:	61 73 6d 2e 	call  85ce01bc <LEON_REG+0x5ce01bc>
    4d08:	53 00 2f 74 	call  4c010ad8 <__end+0xbb0cba0>
    4d0c:	6d 70 2f 63 	call  b5c10a98 <LEON_REG+0x35c10a98>
    4d10:	63 59 5a 39 	call  8d65b5f4 <LEON_REG+0xd65b5f4>
    4d14:	32 69 57 2e 	unknown
    4d18:	73 00 2e 2e 	call  cc0105d0 <LEON_REG+0x4c0105d0>
    4d1c:	2f 2e 2e 2f 	sethi  %hi(0xb8b8bc00), %l7
    4d20:	2e 2e 2f 2e 	unknown
    4d24:	2e 2f 2e 2e 	unknown
    4d28:	2f 67 63 63 	unknown
    4d2c:	2d 33 2e 34 	sethi  %hi(0xccb8d000), %l6
    4d30:	2e 34 2f 6c 	unknown
    4d34:	69 62 67 6c 	call  a589eae4 <LEON_REG+0x2589eae4>
    4d38:	6f 73 73 2f 	call  bdce19f4 <LEON_REG+0x3dce19f4>
    4d3c:	73 70 61 72 	call  cdc1d304 <LEON_REG+0x4dc1d304>
    4d40:	63 5f 6c 65 	call  8d7dfed4 <LEON_REG+0xd7dfed4>
    4d44:	6f 6e 2f 6c 	call  bdb90af4 <LEON_REG+0x3db90af4>
    4d48:	6f 63 6f 72 	call  bd8e0b10 <LEON_REG+0x3d8e0b10>
    4d4c:	65 5f 6d 76 	call  957e0324 <LEON_REG+0x157e0324>
    4d50:	74 5f 72 65 	call  d17e16e4 <LEON_REG+0x517e16e4>
    4d54:	73 65 74 2e 	call  cd961e0c <LEON_REG+0x4d961e0c>
    4d58:	53 00 2e 2e 	call  4c010610 <__end+0xbb0c6d8>
    4d5c:	2f 2e 2e 2f 	sethi  %hi(0xb8b8bc00), %l7
    4d60:	2e 2e 2f 2e 	unknown
    4d64:	2e 2f 2e 2e 	unknown
    4d68:	2f 67 63 63 	unknown
    4d6c:	2d 33 2e 34 	sethi  %hi(0xccb8d000), %l6
    4d70:	2e 34 2f 6c 	unknown
    4d74:	69 62 67 6c 	call  a589eb24 <LEON_REG+0x2589eb24>
    4d78:	6f 73 73 2f 	call  bdce1a34 <LEON_REG+0x3dce1a34>
    4d7c:	73 70 61 72 	call  cdc1d344 <LEON_REG+0x4dc1d344>
    4d80:	63 5f 6c 65 	call  8d7dff14 <LEON_REG+0xd7dff14>
    4d84:	6f 6e 2f 69 	call  bdb90b28 <LEON_REG+0x3db90b28>
    4d88:	6e 69 74 63 	call  b9a61f14 <LEON_REG+0x39a61f14>
    4d8c:	61 6c 6c 73 	call  85b1ff58 <LEON_REG+0x5b1ff58>
    4d90:	2e 63 00 4c 	unknown
    4d94:	45 4f 4e 33 	call  153d8660 <_trap_table-0x2b1279a0>
    4d98:	5f 49 72 71 	call  7d26175c <__end+0x3cd5d824>
    4d9c:	43 74 72 6c 	call  dd2174c <_trap_table-0x327de8b4>
    4da0:	5f 52 65 67 	call  7d49e33c <__end+0x3cf9a404>
    4da4:	73 5f 4d 61 	call  cd7d8328 <LEON_REG+0x4d7d8328>
    4da8:	70 3a 74 28 	call  c0ea1e48 <LEON_REG+0x40ea1e48>
    4dac:	32 2c 31 29 	unknown
    4db0:	3d 28 32 2c 	sethi  %hi(0xa0c8b000), %fp
    4db4:	32 29 3d 73 	unknown
    4db8:	31 32 38 69 	sethi  %hi(0xc8e1a400), %i0
    4dbc:	6c 65 76 65 	call  b1962750 <LEON_REG+0x31962750>
    4dc0:	6c 3a 28 30 	call  b0e8ee80 <LEON_REG+0x30e8ee80>
    4dc4:	2c 34 29 2c 	unknown
    4dc8:	30 2c 33 32 	unknown
    4dcc:	3b 69 70 65 	unknown
    4dd0:	6e 64 3a 28 	call  b9913670 <LEON_REG+0x39913670>
    4dd4:	30 2c 34 29 	unknown
    4dd8:	2c 33 32 2c 	unknown
    4ddc:	33 32 3b 69 	sethi  %hi(0xc8eda400), %i1
    4de0:	66 6f 72 63 	call  99be176c <LEON_REG+0x19be176c>
    4de4:	65 3a 28 30 	call  94e8eea4 <LEON_REG+0x14e8eea4>
    4de8:	2c 34 29 2c 	unknown
    4dec:	36 34 2c 33 	unknown
    4df0:	32 3b 69 63 	unknown
    4df4:	6c 65 61 72 	call  b195d3bc <LEON_REG+0x3195d3bc>
    4df8:	3a 28 30 2c 	unknown
    4dfc:	34 29 2c 39 	unknown
    4e00:	36 2c 33 32 	unknown
    4e04:	3b 6e 6f 74 	unknown
    4e08:	75 73 65 64 	call  d5cde398 <LEON_REG+0x55cde398>
    4e0c:	30 30 3a 28 	unknown
    4e10:	30 2c 34 29 	unknown
    4e14:	2c 31 32 38 	unknown
    4e18:	2c 33 32 3b 	unknown
    4e1c:	6e 6f 74 75 	call  b9be1ff0 <LEON_REG+0x39be1ff0>
    4e20:	73 65 64 30 	call  cd95dee0 <LEON_REG+0x4d95dee0>
    4e24:	31 3a 28 30 	sethi  %hi(0xe8a0c000), %i0
    4e28:	2c 34 29 2c 	unknown
    4e2c:	31 36 30 2c 	sethi  %hi(0xd8c0b000), %i0
    4e30:	33 32 3b 6e 	sethi  %hi(0xc8edb800), %i1
    4e34:	6f 74 75 73 	call  bdd22400 <LEON_REG+0x3dd22400>
    4e38:	65 64 30 32 	call  95910f00 <LEON_REG+0x15910f00>
    4e3c:	3a 28 30 2c 	unknown
    4e40:	34 29 2c 31 	unknown
    4e44:	39 32 2c 33 	sethi  %hi(0xc8b0cc00), %i4
    4e48:	32 3b 6e 6f 	unknown
    4e4c:	74 75 73 65 	call  d1d61be0 <LEON_REG+0x51d61be0>
    4e50:	64 30 33 3a 	call  90c11b38 <LEON_REG+0x10c11b38>
    4e54:	28 30 2c 34 	unknown
    4e58:	29 2c 32 32 	sethi  %hi(0xb0c8c800), %l4
    4e5c:	34 2c 33 32 	unknown
    4e60:	3b 6e 6f 74 	unknown
    4e64:	75 73 65 64 	call  d5cde3f4 <LEON_REG+0x55cde3f4>
    4e68:	31 30 3a 28 	sethi  %hi(0xc0e8a000), %i0
    4e6c:	30 2c 34 29 	unknown
    4e70:	2c 32 35 36 	unknown
    4e74:	2c 33 32 3b 	unknown
    4e78:	6e 6f 74 75 	call  b9be204c <LEON_REG+0x39be204c>
    4e7c:	73 65 64 31 	call  cd95df40 <LEON_REG+0x4d95df40>
    4e80:	31 3a 28 30 	sethi  %hi(0xe8a0c000), %i0
    4e84:	2c 34 29 2c 	unknown
    4e88:	32 38 38 2c 	unknown
    4e8c:	33 32 3b 6e 	sethi  %hi(0xc8edb800), %i1
    4e90:	6f 74 75 73 	call  bdd2245c <LEON_REG+0x3dd2245c>
    4e94:	65 64 31 32 	call  9591135c <LEON_REG+0x1591135c>
    4e98:	3a 28 30 2c 	unknown
    4e9c:	34 29 2c 33 	unknown
    4ea0:	32 30 2c 33 	unknown
    4ea4:	32 3b 6e 6f 	unknown
    4ea8:	74 75 73 65 	call  d1d61c3c <LEON_REG+0x51d61c3c>
    4eac:	64 31 33 3a 	call  90c51b94 <LEON_REG+0x10c51b94>
    4eb0:	28 30 2c 34 	unknown
    4eb4:	29 2c 33 35 	sethi  %hi(0xb0ccd400), %l4
    4eb8:	32 2c 33 32 	unknown
    4ebc:	3b 6e 6f 74 	unknown
    4ec0:	75 73 65 64 	call  d5cde450 <LEON_REG+0x55cde450>
    4ec4:	32 30 3a 28 	unknown
    4ec8:	30 2c 34 29 	unknown
    4ecc:	2c 33 38 34 	unknown
    4ed0:	2c 33 32 3b 	unknown
    4ed4:	6e 6f 74 75 	call  b9be20a8 <LEON_REG+0x39be20a8>
    4ed8:	73 65 64 32 	call  cd95dfa0 <LEON_REG+0x4d95dfa0>
    4edc:	31 3a 28 30 	sethi  %hi(0xe8a0c000), %i0
    4ee0:	2c 34 29 2c 	unknown
    4ee4:	34 31 36 2c 	unknown
    4ee8:	33 32 3b 6e 	sethi  %hi(0xc8edb800), %i1
    4eec:	6f 74 75 73 	call  bdd224b8 <LEON_REG+0x3dd224b8>
    4ef0:	65 64 32 32 	call  959117b8 <LEON_REG+0x159117b8>
    4ef4:	3a 28 30 2c 	unknown
    4ef8:	34 29 2c 34 	unknown
    4efc:	34 38 2c 33 	unknown
    4f00:	32 3b 6e 6f 	unknown
    4f04:	74 75 73 65 	call  d1d61c98 <LEON_REG+0x51d61c98>
    4f08:	64 32 33 3a 	call  90c91bf0 <LEON_REG+0x10c91bf0>
    4f0c:	28 30 2c 34 	unknown
    4f10:	29 2c 34 38 	sethi  %hi(0xb0d0e000), %l4
    4f14:	30 2c 33 32 	unknown
    4f18:	3b 6d 61 73 	unknown
    4f1c:	6b 3a 28 32 	call  ace8efe4 <LEON_REG+0x2ce8efe4>
    4f20:	2c 33 29 3d 	unknown
    4f24:	61 72 28 32 	call  85c8efec <LEON_REG+0x5c8efec>
    4f28:	2c 34 29 3d 	unknown
    4f2c:	72 28 32 2c 	call  c8a117dc <LEON_REG+0x48a117dc>
    4f30:	34 29 3b 30 	unknown
    4f34:	30 30 30 30 	unknown
    4f38:	30 30 30 30 	unknown
    4f3c:	30 30 30 30 	unknown
    4f40:	3b 30 30 33 	sethi  %hi(0xc0c0cc00), %i5
    4f44:	37 37 37 37 	sethi  %hi(0xdcdcdc00), %i3
    4f48:	37 37 37 37 	sethi  %hi(0xdcdcdc00), %i3
    4f4c:	37 37 3b 3b 	sethi  %hi(0xdcecec00), %i3
    4f50:	30 3b 31 35 	unknown
    4f54:	3b 28 32 2c 	sethi  %hi(0xa0c8b000), %i5
    4f58:	35 29 3d 42 	sethi  %hi(0xa4f50800), %i2
    4f5c:	28 30 2c 34 	unknown
    4f60:	29 2c 35 31 	sethi  %hi(0xb0d4c400), %l4
    4f64:	32 2c 35 31 	unknown
    4f68:	32 3b 3b 00 	unknown
    4f6c:	4c 45 4f 4e 	call  31158ca4 <_trap_table-0xf3a735c>
    4f70:	32 33 5f 41 	unknown
    4f74:	50 42 55 41 	call  4109a478 <__end+0xb96540>
    4f78:	52 54 5f 52 	call  4951ccc0 <__end+0x9018d88>
    4f7c:	65 67 73 5f 	call  959e1cf8 <LEON_REG+0x159e1cf8>
    4f80:	4d 61 70 3a 	call  35861068 <_trap_table-0xac9ef98>
    4f84:	74 28 32 2c 	call  d0a11834 <LEON_REG+0x50a11834>
    4f88:	36 29 3d 28 	unknown
    4f8c:	32 2c 37 29 	unknown
    4f90:	3d 73 31 36 	unknown
    4f94:	64 61 74 61 	call  91862118 <LEON_REG+0x11862118>
    4f98:	3a 28 30 2c 	unknown
    4f9c:	34 29 2c 30 	unknown
    4fa0:	2c 33 32 3b 	unknown
    4fa4:	73 74 61 74 	call  cdd1d574 <LEON_REG+0x4dd1d574>
    4fa8:	75 73 3a 28 	call  d5cd3848 <LEON_REG+0x55cd3848>
    4fac:	30 2c 34 29 	unknown
    4fb0:	2c 33 32 2c 	unknown
    4fb4:	33 32 3b 63 	sethi  %hi(0xc8ed8c00), %i1
    4fb8:	74 72 6c 3a 	call  d1ca00a0 <LEON_REG+0x51ca00a0>
    4fbc:	28 30 2c 34 	unknown
    4fc0:	29 2c 36 34 	sethi  %hi(0xb0d8d000), %l4
    4fc4:	2c 33 32 3b 	unknown
    4fc8:	73 63 61 6c 	call  cd8dd578 <LEON_REG+0x4d8dd578>
    4fcc:	65 72 3a 28 	call  95c9386c <LEON_REG+0x15c9386c>
    4fd0:	30 2c 34 29 	unknown
    4fd4:	2c 39 36 2c 	unknown
    4fd8:	33 32 3b 3b 	sethi  %hi(0xc8ecec00), %i1
    4fdc:	00 4c 45 4f 	unknown
    4fe0:	4e 33 5f 47 	call  38cdccfc <_trap_table-0x7823304>
    4fe4:	70 54 69 6d 	call  c151f598 <LEON_REG+0x4151f598>
    4fe8:	65 72 45 6c 	call  95c96598 <LEON_REG+0x15c96598>
    4fec:	65 6d 5f 52 	call  95b5cd34 <LEON_REG+0x15b5cd34>
    4ff0:	65 67 73 5f 	call  959e1d6c <LEON_REG+0x159e1d6c>
    4ff4:	4d 61 70 3a 	call  358610dc <_trap_table-0xac9ef24>
    4ff8:	74 28 32 2c 	call  d0a118a8 <LEON_REG+0x50a118a8>
    4ffc:	38 29 3d 28 	unknown
    5000:	32 2c 39 29 	unknown
    5004:	3d 73 31 36 	unknown
    5008:	76 61 6c 3a 	call  d98600f0 <LEON_REG+0x598600f0>
    500c:	28 30 2c 34 	unknown
    5010:	29 2c 30 2c 	sethi  %hi(0xb0c0b000), %l4
    5014:	33 32 3b 72 	sethi  %hi(0xc8edc800), %i1
    5018:	6c 64 3a 28 	call  b19138b8 <LEON_REG+0x319138b8>
    501c:	30 2c 34 29 	unknown
    5020:	2c 33 32 2c 	unknown
    5024:	33 32 3b 63 	sethi  %hi(0xc8ed8c00), %i1
    5028:	74 72 6c 3a 	call  d1ca0110 <LEON_REG+0x51ca0110>
    502c:	28 30 2c 34 	unknown
    5030:	29 2c 36 34 	sethi  %hi(0xb0d8d000), %l4
    5034:	2c 33 32 3b 	unknown
    5038:	75 6e 75 73 	call  d5ba2604 <LEON_REG+0x55ba2604>
    503c:	65 64 3a 28 	call  959138dc <LEON_REG+0x159138dc>
    5040:	30 2c 34 29 	unknown
    5044:	2c 39 36 2c 	unknown
    5048:	33 32 3b 3b 	sethi  %hi(0xc8ecec00), %i1
    504c:	00 4c 45 4f 	unknown
    5050:	4e 33 5f 47 	call  38cdcd6c <_trap_table-0x7823294>
    5054:	70 54 69 6d 	call  c151f608 <LEON_REG+0x4151f608>
    5058:	65 72 5f 52 	call  95c9cda0 <LEON_REG+0x15c9cda0>
    505c:	65 67 73 5f 	call  959e1dd8 <LEON_REG+0x159e1dd8>
    5060:	4d 61 70 3a 	call  35861148 <_trap_table-0xac9eeb8>
    5064:	74 28 32 2c 	call  d0a11914 <LEON_REG+0x50a11914>
    5068:	31 30 29 3d 	sethi  %hi(0xc0a4f400), %i0
    506c:	28 32 2c 31 	unknown
    5070:	31 29 3d 73 	sethi  %hi(0xa4f5cc00), %i0
    5074:	31 34 34 73 	sethi  %hi(0xd0d1cc00), %i0
    5078:	63 61 6c 61 	call  8d8601fc <LEON_REG+0xd8601fc>
    507c:	72 3a 28 30 	call  c8e8f13c <LEON_REG+0x48e8f13c>
    5080:	2c 34 29 2c 	unknown
    5084:	30 2c 33 32 	unknown
    5088:	3b 73 63 61 	unknown
    508c:	6c 61 72 5f 	call  b1861a08 <LEON_REG+0x31861a08>
    5090:	72 65 6c 6f 	call  c996024c <LEON_REG+0x4996024c>
    5094:	61 64 3a 28 	call  85913934 <LEON_REG+0x5913934>
    5098:	30 2c 34 29 	unknown
    509c:	2c 33 32 2c 	unknown
    50a0:	33 32 3b 63 	sethi  %hi(0xc8ed8c00), %i1
    50a4:	6f 6e 66 69 	call  bdb9ea48 <LEON_REG+0x3db9ea48>
    50a8:	67 3a 28 30 	call  9ce8f168 <LEON_REG+0x1ce8f168>
    50ac:	2c 34 29 2c 	unknown
    50b0:	36 34 2c 33 	unknown
    50b4:	32 3b 75 6e 	unknown
    50b8:	75 73 65 64 	call  d5cde648 <LEON_REG+0x55cde648>
    50bc:	3a 28 30 2c 	unknown
    50c0:	34 29 2c 39 	unknown
    50c4:	36 2c 33 32 	unknown
    50c8:	3b 65 3a 28 	unknown
    50cc:	32 2c 31 32 	unknown
    50d0:	29 3d 61 72 	sethi  %hi(0xf585c800), %l4
    50d4:	28 32 2c 34 	unknown
    50d8:	29 3b 30 3b 	sethi  %hi(0xecc0ec00), %l4
    50dc:	37 3b 28 32 	sethi  %hi(0xeca0c800), %i3
    50e0:	2c 31 33 29 	unknown
    50e4:	3d 42 28 32 	unknown
    50e8:	2c 38 29 2c 	unknown
    50ec:	31 32 38 2c 	sethi  %hi(0xc8e0b000), %i0
    50f0:	31 30 32 34 	sethi  %hi(0xc0c8d000), %i0
    50f4:	3b 3b 00 4c 	sethi  %hi(0xec013000), %i5
    50f8:	45 4f 4e 33 	call  153d89c4 <_trap_table-0x2b12763c>
    50fc:	5f 49 4f 50 	call  7d258e3c <__end+0x3cd54f04>
    5100:	4f 52 54 5f 	call  3d49a27c <_trap_table-0x3065d84>
    5104:	52 65 67 73 	call  4995eed0 <__end+0x945af98>
    5108:	5f 4d 61 70 	call  7d35d6c8 <__end+0x3ce59790>
    510c:	3a 74 28 32 	unknown
    5110:	2c 31 34 29 	unknown
    5114:	3d 28 32 2c 	sethi  %hi(0xa0c8b000), %fp
    5118:	31 35 29 3d 	sethi  %hi(0xd4a4f400), %i0
    511c:	73 32 34 69 	call  ccc922c0 <LEON_REG+0x4cc922c0>
    5120:	6f 64 61 74 	call  bd91d6f0 <LEON_REG+0x3d91d6f0>
    5124:	61 3a 28 30 	call  84e8f1e4 <LEON_REG+0x4e8f1e4>
    5128:	2c 34 29 2c 	unknown
    512c:	30 2c 33 32 	unknown
    5130:	3b 69 6f 6f 	unknown
    5134:	75 74 3a 28 	call  d5d139d4 <LEON_REG+0x55d139d4>
    5138:	30 2c 34 29 	unknown
    513c:	2c 33 32 2c 	unknown
    5140:	33 32 3b 69 	sethi  %hi(0xc8eda400), %i1
    5144:	6f 64 69 72 	call  bd91f70c <LEON_REG+0x3d91f70c>
    5148:	3a 28 30 2c 	unknown
    514c:	34 29 2c 36 	unknown
    5150:	34 2c 33 32 	unknown
    5154:	3b 69 72 71 	unknown
    5158:	6d 61 73 6b 	call  b5861f04 <LEON_REG+0x35861f04>
    515c:	3a 28 30 2c 	unknown
    5160:	34 29 2c 39 	unknown
    5164:	36 2c 33 32 	unknown
    5168:	3b 69 72 71 	unknown
    516c:	70 6f 6c 3a 	call  c1be0254 <LEON_REG+0x41be0254>
    5170:	28 30 2c 34 	unknown
    5174:	29 2c 31 32 	sethi  %hi(0xb0c4c800), %l4
    5178:	38 2c 33 32 	unknown
    517c:	3b 69 72 71 	unknown
    5180:	65 64 67 65 	call  9591ef14 <LEON_REG+0x1591ef14>
    5184:	3a 28 30 2c 	unknown
    5188:	34 29 2c 31 	unknown
    518c:	36 30 2c 33 	unknown
    5190:	32 3b 3b 00 	unknown
    5194:	61 6d 62 61 	call  85b5db18 <LEON_REG+0x5b5db18>
    5198:	5f 64 65 76 	call  7d91e770 <__end+0x3d41a838>
    519c:	69 63 65 5f 	call  a58de718 <LEON_REG+0x258de718>
    51a0:	74 61 62 6c 	call  d185db50 <LEON_REG+0x5185db50>
    51a4:	65 3a 54 28 	call  94e9a244 <LEON_REG+0x14e9a244>
    51a8:	32 2c 31 36 	unknown
    51ac:	29 3d 73 37 	sethi  %hi(0xf5ccdc00), %l4
    51b0:	32 64 65 76 	unknown
    51b4:	6e 72 3a 28 	call  b9c93a54 <LEON_REG+0x39c93a54>
    51b8:	30 2c 31 29 	unknown
    51bc:	2c 30 2c 33 	unknown
    51c0:	32 3b 61 64 	unknown
    51c4:	64 72 3a 28 	call  91c93a64 <LEON_REG+0x11c93a64>
    51c8:	32 2c 31 37 	unknown
    51cc:	29 3d 61 72 	sethi  %hi(0xf585c800), %l4
    51d0:	28 32 2c 34 	unknown
    51d4:	29 3b 30 3b 	sethi  %hi(0xecc0ec00), %l4
    51d8:	31 35 3b 28 	sethi  %hi(0xd4eca000), %i0
    51dc:	32 2c 31 38 	unknown
    51e0:	29 3d 2a 28 	sethi  %hi(0xf4a8a000), %l4
    51e4:	30 2c 34 29 	unknown
    51e8:	2c 33 32 2c 	unknown
    51ec:	35 31 32 3b 	sethi  %hi(0xc4c8ec00), %i2
    51f0:	61 6c 6c 6f 	call  85b203ac <LEON_REG+0x5b203ac>
    51f4:	63 62 69 74 	call  8d89f7c4 <LEON_REG+0xd89f7c4>
    51f8:	73 3a 28 32 	call  cce8f2c0 <LEON_REG+0x4ce8f2c0>
    51fc:	2c 31 39 29 	unknown
    5200:	3d 61 72 28 	unknown
    5204:	32 2c 34 29 	unknown
    5208:	3b 30 3b 30 	sethi  %hi(0xc0ecc000), %i5
    520c:	3b 28 30 2c 	sethi  %hi(0xa0c0b000), %i5
    5210:	34 29 2c 35 	unknown
    5214:	34 34 2c 33 	unknown
    5218:	32 3b 3b 00 	unknown
    521c:	61 6d 62 61 	call  85b5dba0 <LEON_REG+0x5b5dba0>
    5220:	5f 64 65 76 	call  7d91e7f8 <__end+0x3d41a8c0>
    5224:	69 63 65 5f 	call  a58de7a0 <LEON_REG+0x258de7a0>
    5228:	74 61 62 6c 	call  d185dbd8 <LEON_REG+0x5185dbd8>
    522c:	65 3a 74 28 	call  94ea22cc <LEON_REG+0x14ea22cc>
    5230:	32 2c 32 30 	unknown
    5234:	29 3d 28 32 	sethi  %hi(0xf4a0c800), %l4
    5238:	2c 31 36 29 	unknown
    523c:	00 61 6d 62 	unknown
    5240:	61 5f 63 6f 	call  857ddffc <LEON_REG+0x57ddffc>
    5244:	6e 66 61 72 	call  b999d80c <LEON_REG+0x3999d80c>
    5248:	65 61 5f 74 	call  9585d018 <LEON_REG+0x1585d018>
    524c:	79 70 65 3a 	call  e5c1e734 <LEON_REG+0x65c1e734>
    5250:	54 28 32 2c 	call  50a11b00 <__end+0x1050dbc8>
    5254:	32 31 29 3d 	unknown
    5258:	73 32 32 30 	call  ccc91b18 <LEON_REG+0x4cc91b18>
    525c:	61 68 62 6d 	call  85a1dc10 <LEON_REG+0x5a1dc10>
    5260:	73 74 3a 28 	call  cdd13b00 <LEON_REG+0x4dd13b00>
    5264:	32 2c 32 30 	unknown
    5268:	29 2c 30 2c 	sethi  %hi(0xb0c0b000), %l4
    526c:	35 37 36 3b 	sethi  %hi(0xdcd8ec00), %i2
    5270:	61 68 62 73 	call  85a1dc3c <LEON_REG+0x5a1dc3c>
    5274:	6c 76 3a 28 	call  b1d93b14 <LEON_REG+0x31d93b14>
    5278:	32 2c 32 30 	unknown
    527c:	29 2c 35 37 	sethi  %hi(0xb0d4dc00), %l4
    5280:	36 2c 35 37 	unknown
    5284:	36 3b 61 70 	unknown
    5288:	62 73 6c 76 	call  89ce0460 <LEON_REG+0x9ce0460>
    528c:	3a 28 32 2c 	unknown
    5290:	32 30 29 2c 	unknown
    5294:	31 31 35 32 	sethi  %hi(0xc4d4c800), %i0
    5298:	2c 35 37 36 	unknown
    529c:	3b 61 70 62 	unknown
    52a0:	6d 73 74 3a 	call  b5ce2388 <LEON_REG+0x35ce2388>
    52a4:	28 30 2c 34 	unknown
    52a8:	29 2c 31 37 	sethi  %hi(0xb0c4dc00), %l4
    52ac:	32 38 2c 33 	unknown
    52b0:	32 3b 3b 00 	unknown
    52b4:	61 6d 62 61 	call  85b5dc38 <LEON_REG+0x5b5dc38>
    52b8:	5f 63 6f 6e 	call  7d8e1070 <__end+0x3d3dd138>
    52bc:	66 61 72 65 	call  99861c50 <LEON_REG+0x19861c50>
    52c0:	61 5f 74 79 	call  857e24a4 <LEON_REG+0x57e24a4>
    52c4:	70 65 3a 74 	call  c1953c94 <LEON_REG+0x41953c94>
    52c8:	28 32 2c 32 	unknown
    52cc:	32 29 3d 28 	unknown
    52d0:	32 2c 32 31 	unknown
    52d4:	29 00 61 6d 	sethi  %hi(0x185b400), %l4
    52d8:	62 61 5f 61 	call  8985d05c <LEON_REG+0x985d05c>
    52dc:	70 62 5f 64 	call  c189d06c <LEON_REG+0x4189d06c>
    52e0:	65 76 69 63 	call  95d9f86c <LEON_REG+0x15d9f86c>
    52e4:	65 3a 54 28 	call  94e9a384 <LEON_REG+0x14e9a384>
    52e8:	32 2c 32 33 	unknown
    52ec:	29 3d 73 38 	sethi  %hi(0xf5cce000), %l4
    52f0:	73 74 61 72 	call  cdd1d8b8 <LEON_REG+0x4dd1d8b8>
    52f4:	74 3a 28 30 	call  d0e8f3b4 <LEON_REG+0x50e8f3b4>
    52f8:	2c 34 29 2c 	unknown
    52fc:	30 2c 33 32 	unknown
    5300:	3b 69 72 71 	unknown
    5304:	3a 28 30 2c 	unknown
    5308:	34 29 2c 33 	unknown
    530c:	32 2c 33 32 	unknown
    5310:	3b 3b 00 61 	sethi  %hi(0xec018400), %i5
    5314:	6d 62 61 5f 	call  b589d890 <LEON_REG+0x3589d890>
    5318:	61 70 62 5f 	call  85c1dc94 <LEON_REG+0x5c1dc94>
    531c:	64 65 76 69 	call  91962cc0 <LEON_REG+0x11962cc0>
    5320:	63 65 3a 74 	call  8d953cf0 <LEON_REG+0xd953cf0>
    5324:	28 32 2c 32 	unknown
    5328:	34 29 3d 28 	unknown
    532c:	32 2c 32 33 	unknown
    5330:	29 00 61 6d 	sethi  %hi(0x185b400), %l4
    5334:	62 61 5f 61 	call  8985d0b8 <LEON_REG+0x985d0b8>
    5338:	68 62 5f 64 	call  a189d0c8 <LEON_REG+0x2189d0c8>
    533c:	65 76 69 63 	call  95d9f8c8 <LEON_REG+0x15d9f8c8>
    5340:	65 3a 54 28 	call  94e9a3e0 <LEON_REG+0x14e9a3e0>
    5344:	32 2c 32 35 	unknown
    5348:	29 3d 73 32 	sethi  %hi(0xf5ccc800), %l4
    534c:	30 73 74 61 	unknown
    5350:	72 74 3a 28 	call  c9d13bf0 <LEON_REG+0x49d13bf0>
    5354:	32 2c 32 36 	unknown
    5358:	29 3d 61 72 	sethi  %hi(0xf585c800), %l4
    535c:	28 32 2c 34 	unknown
    5360:	29 3b 30 3b 	sethi  %hi(0xecc0ec00), %l4
    5364:	33 3b 28 30 	sethi  %hi(0xeca0c000), %i1
    5368:	2c 34 29 2c 	unknown
    536c:	30 2c 31 32 	unknown
    5370:	38 3b 69 72 	unknown
    5374:	71 3a 28 30 	call  c4e8f434 <LEON_REG+0x44e8f434>
    5378:	2c 34 29 2c 	unknown
    537c:	31 32 38 2c 	sethi  %hi(0xc8e0b000), %i0
    5380:	33 32 3b 3b 	sethi  %hi(0xc8ecec00), %i1
    5384:	00 61 6d 62 	unknown
    5388:	61 5f 61 68 	call  857dd928 <LEON_REG+0x57dd928>
    538c:	62 5f 64 65 	call  897de520 <LEON_REG+0x97de520>
    5390:	76 69 63 65 	call  d9a5e124 <LEON_REG+0x59a5e124>
    5394:	3a 74 28 32 	unknown
    5398:	2c 32 37 29 	unknown
    539c:	3d 28 32 2c 	sethi  %hi(0xa0c8b000), %fp
    53a0:	32 35 29 00 	unknown
    53a4:	70 74 68 72 	call  c1d1f56c <LEON_REG+0x41d1f56c>
    53a8:	65 61 64 5f 	call  9585e524 <LEON_REG+0x1585e524>
    53ac:	70 72 6f 74 	call  c1ca117c <LEON_REG+0x41ca117c>
    53b0:	6f 63 6f 6c 	call  bd8e1160 <LEON_REG+0x3d8e1160>
    53b4:	5f 74 3a 74 	call  7dd13d84 <__end+0x3d80fe4c>
    53b8:	28 31 30 2c 	unknown
    53bc:	31 29 3d 28 	sethi  %hi(0xa4f4a000), %i0
    53c0:	30 2c 31 29 	unknown
    53c4:	00 70 74 68 	unknown
    53c8:	72 65 61 64 	call  c995d958 <LEON_REG+0x4995d958>
    53cc:	5f 71 75 65 	call  7dc62960 <__end+0x3d75ea28>
    53d0:	75 65 3a 54 	call  d5953d20 <LEON_REG+0x55953d20>
    53d4:	28 31 30 2c 	unknown
    53d8:	32 29 3d 73 	unknown
    53dc:	31 32 74 71 	sethi  %hi(0xc9d1c400), %i0
    53e0:	68 5f 66 69 	call  a17ded84 <LEON_REG+0x217ded84>
    53e4:	72 73 74 3a 	call  c9ce24cc <LEON_REG+0x49ce24cc>
    53e8:	28 31 30 2c 	unknown
    53ec:	33 29 3d 2a 	sethi  %hi(0xa4f4a800), %i1
    53f0:	28 31 30 2c 	unknown
    53f4:	34 29 3d 78 	unknown
    53f8:	73 70 74 68 	call  cdc22598 <LEON_REG+0x4dc22598>
    53fc:	72 65 61 64 	call  c995d98c <LEON_REG+0x4995d98c>
    5400:	3a 2c 30 2c 	unknown
    5404:	33 32 3b 74 	sethi  %hi(0xc8edd000), %i1
    5408:	71 68 5f 6c 	call  c5a1d1b8 <LEON_REG+0x45a1d1b8>
    540c:	61 73 74 3a 	call  85ce24f4 <LEON_REG+0x5ce24f4>
    5410:	28 31 30 2c 	unknown
    5414:	35 29 3d 2a 	sethi  %hi(0xa4f4a800), %i2
    5418:	28 31 30 2c 	unknown
    541c:	33 29 2c 33 	sethi  %hi(0xa4b0cc00), %i1
    5420:	32 2c 33 32 	unknown
    5424:	3b 74 71 68 	unknown
    5428:	5f 6e 61 6d 	call  7db9d9dc <__end+0x3d699aa4>
    542c:	65 3a 28 31 	call  94e8f4f0 <LEON_REG+0x14e8f4f0>
    5430:	30 2c 36 29 	unknown
    5434:	3d 2a 28 30 	sethi  %hi(0xa8a0c000), %fp
    5438:	2c 32 29 2c 	unknown
    543c:	36 34 2c 33 	unknown
    5440:	32 3b 3b 00 	unknown
    5444:	70 74 68 72 	call  c1d1f60c <LEON_REG+0x41d1f60c>
    5448:	65 61 64 5f 	call  9585e5c4 <LEON_REG+0x1585e5c4>
    544c:	71 75 65 75 	call  c5d5ea20 <LEON_REG+0x45d5ea20>
    5450:	65 5f 74 3a 	call  957e2538 <LEON_REG+0x157e2538>
    5454:	74 28 31 30 	call  d0a11914 <LEON_REG+0x50a11914>
    5458:	2c 37 29 3d 	unknown
    545c:	28 31 30 2c 	unknown
    5460:	38 29 3d 2a 	unknown
    5464:	28 31 30 2c 	unknown
    5468:	32 29 00 70 	unknown
    546c:	74 68 72 65 	call  d1a21e00 <LEON_REG+0x51a21e00>
    5470:	61 64 5f 6d 	call  8591d224 <LEON_REG+0x591d224>
    5474:	75 74 65 78 	call  d5d1ea54 <LEON_REG+0x55d1ea54>
    5478:	3a 54 28 31 	unknown
    547c:	30 2c 39 29 	unknown
    5480:	3d 73 31 31 	unknown
    5484:	36 71 75 65 	unknown
    5488:	75 65 3a 28 	call  d5953d28 <LEON_REG+0x55953d28>
    548c:	31 30 2c 32 	sethi  %hi(0xc0b0c800), %i0
    5490:	29 2c 30 2c 	sethi  %hi(0xb0c0b000), %l4
    5494:	39 36 3b 6c 	sethi  %hi(0xd8edb000), %i4
    5498:	6f 63 6b 3a 	call  bd8e0180 <LEON_REG+0x3d8e0180>
    549c:	28 30 2c 32 	unknown
    54a0:	29 2c 39 36 	sethi  %hi(0xb0e4d800), %l4
    54a4:	2c 38 3b 6f 	unknown
    54a8:	77 6e 65 72 	call  ddb9ea70 <LEON_REG+0x5db9ea70>
    54ac:	3a 28 31 30 	unknown
    54b0:	2c 33 29 2c 	unknown
    54b4:	31 32 38 2c 	sethi  %hi(0xc8e0b000), %i0
    54b8:	33 32 3b 66 	sethi  %hi(0xc8ed9800), %i1
    54bc:	6c 61 67 73 	call  b185f288 <LEON_REG+0x3185f288>
    54c0:	3a 28 30 2c 	unknown
    54c4:	31 29 2c 31 	sethi  %hi(0xa4b0c400), %i0
    54c8:	36 30 2c 33 	unknown
    54cc:	32 3b 63 6f 	unknown
    54d0:	75 6e 74 3a 	call  d5ba25b8 <LEON_REG+0x55ba25b8>
    54d4:	28 30 2c 31 	unknown
    54d8:	29 2c 31 39 	sethi  %hi(0xb0c4e400), %l4
    54dc:	32 2c 33 32 	unknown
    54e0:	3b 70 72 69 	unknown
    54e4:	6f 63 65 69 	call  bd8dea88 <LEON_REG+0x3d8dea88>
    54e8:	6c 69 6e 67 	call  b1a60e84 <LEON_REG+0x31a60e84>
    54ec:	3a 28 30 2c 	unknown
    54f0:	31 29 2c 32 	sethi  %hi(0xa4b0c800), %i0
    54f4:	32 34 2c 33 	unknown
    54f8:	32 3b 70 72 	unknown
    54fc:	6f 74 6f 63 	call  bdd21288 <LEON_REG+0x3dd21288>
    5500:	6f 6c 3a 28 	call  bdb13da0 <LEON_REG+0x3db13da0>
    5504:	31 30 2c 31 	sethi  %hi(0xc0b0c400), %i0
    5508:	29 2c 32 35 	sethi  %hi(0xb0c8d400), %l4
    550c:	36 2c 33 32 	unknown
    5510:	3b 70 72 65 	unknown
    5514:	76 5f 6d 61 	call  d97e0a98 <LEON_REG+0x597e0a98>
    5518:	78 5f 63 65 	call  e17de2ac <LEON_REG+0x617de2ac>
    551c:	69 6c 69 6e 	call  a5b1fad4 <LEON_REG+0x25b1fad4>
    5520:	67 5f 70 72 	call  9d7e16e8 <LEON_REG+0x1d7e16e8>
    5524:	69 6f 3a 28 	call  a5bd3dc4 <LEON_REG+0x25bd3dc4>
    5528:	30 2c 31 29 	unknown
    552c:	2c 32 38 38 	unknown
    5530:	2c 33 32 3b 	unknown
    5534:	64 62 67 6c 	call  9189f2e4 <LEON_REG+0x1189f2e4>
    5538:	69 73 74 3a 	call  a5ce2620 <LEON_REG+0x25ce2620>
    553c:	28 31 30 2c 	unknown
    5540:	31 30 29 3d 	sethi  %hi(0xc0a4f400), %i0
    5544:	73 38 74 71 	call  cce22708 <LEON_REG+0x4ce22708>
    5548:	65 5f 6e 65 	call  957e0edc <LEON_REG+0x157e0edc>
    554c:	78 74 3a 28 	call  e1d13dec <LEON_REG+0x61d13dec>
    5550:	31 30 2c 31 	sethi  %hi(0xc0b0c400), %i0
    5554:	31 29 3d 2a 	sethi  %hi(0xa4f4a800), %i0
    5558:	28 31 30 2c 	unknown
    555c:	39 29 2c 30 	sethi  %hi(0xa4b0c000), %i4
    5560:	2c 33 32 3b 	unknown
    5564:	74 71 65 5f 	call  d1c5eae0 <LEON_REG+0x51c5eae0>
    5568:	70 72 65 76 	call  c1c9eb40 <LEON_REG+0x41c9eb40>
    556c:	3a 28 31 30 	unknown
    5570:	2c 31 32 29 	unknown
    5574:	3d 2a 28 31 	sethi  %hi(0xa8a0c400), %fp
    5578:	30 2c 31 31 	unknown
    557c:	29 2c 33 32 	sethi  %hi(0xb0ccc800), %l4
    5580:	2c 33 32 3b 	unknown
    5584:	3b 2c 33 32 	sethi  %hi(0xb0ccc800), %i5
    5588:	30 2c 36 34 	unknown
    558c:	3b 64 62 67 	unknown
    5590:	6e 61 6d 65 	call  b9860b24 <LEON_REG+0x39860b24>
    5594:	3a 28 31 30 	unknown
    5598:	2c 36 29 2c 	unknown
    559c:	33 38 34 2c 	sethi  %hi(0xe0d0b000), %i1
    55a0:	33 32 3b 5f 	sethi  %hi(0xc8ed7c00), %i1
    55a4:	66 69 74 6f 	call  99a62760 <LEON_REG+0x19a62760>
    55a8:	74 68 65 72 	call  d1a1eb70 <LEON_REG+0x51a1eb70>
    55ac:	73 3a 28 31 	call  cce8f670 <LEON_REG+0x4ce8f670>
    55b0:	30 2c 31 33 	unknown
    55b4:	29 3d 61 72 	sethi  %hi(0xf585c800), %l4
    55b8:	28 32 2c 34 	unknown
    55bc:	29 3b 30 3b 	sethi  %hi(0xecc0ec00), %l4
    55c0:	31 35 3b 28 	sethi  %hi(0xd4eca000), %i0
    55c4:	30 2c 31 29 	unknown
    55c8:	2c 34 31 36 	unknown
    55cc:	2c 35 31 32 	unknown
    55d0:	3b 3b 00 70 	sethi  %hi(0xec01c000), %i5
    55d4:	74 68 72 65 	call  d1a21f68 <LEON_REG+0x51a21f68>
    55d8:	61 64 5f 6d 	call  8591d38c <LEON_REG+0x591d38c>
    55dc:	75 74 65 78 	call  d5d1ebbc <LEON_REG+0x55d1ebbc>
    55e0:	5f 74 3a 74 	call  7dd13fb0 <__end+0x3d810078>
    55e4:	28 31 30 2c 	unknown
    55e8:	31 34 29 3d 	sethi  %hi(0xd0a4f400), %i0
    55ec:	28 31 30 2c 	unknown
    55f0:	39 29 00 70 	sethi  %hi(0xa401c000), %i4
    55f4:	74 68 72 65 	call  d1a21f88 <LEON_REG+0x51a21f88>
    55f8:	61 64 5f 6d 	call  8591d3ac <LEON_REG+0x591d3ac>
    55fc:	75 74 65 78 	call  d5d1ebdc <LEON_REG+0x55d1ebdc>
    5600:	61 74 74 72 	call  85d227c8 <LEON_REG+0x5d227c8>
    5604:	5f 74 3a 74 	call  7dd13fd4 <__end+0x3d81009c>
    5608:	28 31 30 2c 	unknown
    560c:	31 35 29 3d 	sethi  %hi(0xd4a4f400), %i0
    5610:	28 31 30 2c 	unknown
    5614:	31 36 29 3d 	sethi  %hi(0xd8a4f400), %i0
    5618:	73 31 32 66 	call  ccc51fb0 <LEON_REG+0x4cc51fb0>
    561c:	6c 61 67 73 	call  b185f3e8 <LEON_REG+0x3185f3e8>
    5620:	3a 28 30 2c 	unknown
    5624:	31 29 2c 30 	sethi  %hi(0xa4b0c000), %i0
    5628:	2c 33 32 3b 	unknown
    562c:	70 72 69 6f 	call  c1c9fbe8 <LEON_REG+0x41c9fbe8>
    5630:	63 65 69 6c 	call  8d95fbe0 <LEON_REG+0xd95fbe0>
    5634:	69 6e 67 3a 	call  a5b9f31c <LEON_REG+0x25b9f31c>
    5638:	28 30 2c 31 	unknown
    563c:	29 2c 33 32 	sethi  %hi(0xb0ccc800), %l4
    5640:	2c 33 32 3b 	unknown
    5644:	70 72 6f 74 	call  c1ca1414 <LEON_REG+0x41ca1414>
    5648:	6f 63 6f 6c 	call  bd8e13f8 <LEON_REG+0x3d8e13f8>
    564c:	3a 28 31 30 	unknown
    5650:	2c 31 29 2c 	unknown
    5654:	36 34 2c 33 	unknown
    5658:	32 3b 3b 00 	unknown
    565c:	5f 5f 6c 69 	call  7d7e0800 <__end+0x3d2dc8c8>
    5660:	62 63 5f 6c 	call  898dd410 <LEON_REG+0x98dd410>
    5664:	6f 63 6b 5f 	call  bd8e03e0 <LEON_REG+0x3d8e03e0>
    5668:	74 3a 74 28 	call  d0ea2708 <LEON_REG+0x50ea2708>
    566c:	39 2c 31 29 	sethi  %hi(0xb0c4a400), %i4
    5670:	3d 28 31 30 	sethi  %hi(0xa0c4c000), %fp
    5674:	2c 31 34 29 	unknown
    5678:	00 5f 5f 6c 	unknown
    567c:	69 62 63 5f 	call  a589e3f8 <LEON_REG+0x2589e3f8>
    5680:	6c 6f 63 6b 	call  b1bde42c <LEON_REG+0x31bde42c>
    5684:	5f 72 65 63 	call  7dc9ec10 <__end+0x3d79acd8>
    5688:	75 72 73 69 	call  d5ca242c <LEON_REG+0x55ca242c>
    568c:	76 65 5f 74 	call  d995d45c <LEON_REG+0x5995d45c>
    5690:	3a 74 28 39 	unknown
    5694:	2c 32 29 3d 	unknown
    5698:	28 31 30 2c 	unknown
    569c:	31 34 29 00 	sethi  %hi(0xd0a40000), %i0
    56a0:	5f 4c 4f 43 	call  7d3193ac <__end+0x3ce15474>
    56a4:	4b 5f 54 3a 	call  2d7da78c <_trap_table-0x12d25874>
    56a8:	74 28 39 2c 	call  d0a13b58 <LEON_REG+0x50a13b58>
    56ac:	33 29 3d 28 	sethi  %hi(0xa4f4a000), %i1
    56b0:	39 2c 31 29 	sethi  %hi(0xb0c4a400), %i4
    56b4:	00 5f 4c 4f 	unknown
    56b8:	43 4b 5f 52 	call  d2dd400 <_trap_table-0x33222c00>
    56bc:	45 43 55 52 	call  150dac04 <_trap_table-0x2b4253fc>
    56c0:	53 49 56 45 	call  4d25afd4 <__end+0xcd5709c>
    56c4:	5f 54 3a 74 	call  7d514094 <__end+0x3d01015c>
    56c8:	28 39 2c 34 	unknown
    56cc:	29 3d 28 39 	sethi  %hi(0xf4a0e400), %l4
    56d0:	2c 32 29 00 	unknown
    56d4:	5f 6f 66 66 	call  7dbdf06c <__end+0x3d6db134>
    56d8:	5f 74 3a 74 	call  7dd140a8 <__end+0x3d810170>
    56dc:	28 38 2c 31 	unknown
    56e0:	29 3d 28 30 	sethi  %hi(0xf4a0c000), %l4
    56e4:	2c 33 29 00 	unknown
    56e8:	5f 6f 66 66 	call  7dbdf080 <__end+0x3d6db148>
    56ec:	36 34 5f 74 	unknown
    56f0:	3a 74 28 38 	unknown
    56f4:	2c 32 29 3d 	unknown
    56f8:	28 30 2c 36 	unknown
    56fc:	29 00 5f 73 	sethi  %hi(0x17dcc00), %l4
    5700:	73 69 7a 65 	call  cda64094 <LEON_REG+0x4da64094>
    5704:	5f 74 3a 74 	call  7dd140d4 <__end+0x3d81019c>
    5708:	28 38 2c 33 	unknown
    570c:	29 3d 28 30 	sethi  %hi(0xf4a0c000), %l4
    5710:	2c 31 29 00 	unknown
    5714:	5f 6d 62 73 	call  7db5e0e0 <__end+0x3d65a1a8>
    5718:	74 61 74 65 	call  d18628ac <LEON_REG+0x518628ac>
    571c:	5f 74 3a 74 	call  7dd140ec <__end+0x3d8101b4>
    5720:	28 38 2c 34 	unknown
    5724:	29 3d 28 38 	sethi  %hi(0xf4a0e000), %l4
    5728:	2c 35 29 3d 	unknown
    572c:	73 38 5f 5f 	call  cce1d4a8 <LEON_REG+0x4ce1d4a8>
    5730:	63 6f 75 6e 	call  8dbe2ce8 <LEON_REG+0xdbe2ce8>
    5734:	74 3a 28 30 	call  d0e8f7f4 <LEON_REG+0x50e8f7f4>
    5738:	2c 31 29 2c 	unknown
    573c:	30 2c 33 32 	unknown
    5740:	3b 5f 5f 76 	unknown
    5744:	61 6c 75 65 	call  85b22cd8 <LEON_REG+0x5b22cd8>
    5748:	3a 28 38 2c 	unknown
    574c:	36 29 3d 75 	unknown
    5750:	34 5f 5f 77 	unknown
    5754:	63 68 3a 28 	call  8da13ff4 <LEON_REG+0xda13ff4>
    5758:	31 31 2c 31 	sethi  %hi(0xc4b0c400), %i0
    575c:	29 2c 30 2c 	sethi  %hi(0xb0c0b000), %l4
    5760:	33 32 3b 5f 	sethi  %hi(0xc8ed7c00), %i1
    5764:	5f 77 63 68 	call  7ddde504 <__end+0x3d8da5cc>
    5768:	62 3a 28 38 	call  88e8f848 <LEON_REG+0x8e8f848>
    576c:	2c 37 29 3d 	unknown
    5770:	61 72 28 32 	call  85c8f838 <LEON_REG+0x5c8f838>
    5774:	2c 34 29 3b 	unknown
    5778:	30 3b 33 3b 	unknown
    577c:	28 30 2c 31 	unknown
    5780:	31 29 2c 30 	sethi  %hi(0xa4b0c000), %i0
    5784:	2c 33 32 3b 	unknown
    5788:	3b 2c 33 32 	sethi  %hi(0xb0ccc800), %i5
    578c:	2c 33 32 3b 	unknown
    5790:	3b 00 5f 66 	sethi  %hi(0x17d9800), %i5
    5794:	6c 6f 63 6b 	call  b1bde540 <LEON_REG+0x31bde540>
    5798:	5f 74 3a 74 	call  7dd14168 <__end+0x3d810230>
    579c:	28 38 2c 38 	unknown
    57a0:	29 3d 28 39 	sethi  %hi(0xf4a0e400), %l4
    57a4:	2c 34 29 00 	unknown
    57a8:	5f 69 63 6f 	call  7da5e564 <__end+0x3d55a62c>
    57ac:	6e 76 5f 74 	call  b9d9d57c <LEON_REG+0x39d9d57c>
    57b0:	3a 74 28 38 	unknown
    57b4:	2c 39 29 3d 	unknown
    57b8:	28 38 2c 31 	unknown
    57bc:	30 29 3d 2a 	unknown
    57c0:	28 30 2c 31 	unknown
    57c4:	39 29 00 5f 	sethi  %hi(0xa4017c00), %i4
    57c8:	5f 55 4c 6f 	call  7d558984 <__end+0x3d054a4c>
    57cc:	6e 67 3a 74 	call  b99d419c <LEON_REG+0x399d419c>
    57d0:	28 37 2c 31 	unknown
    57d4:	29 3d 28 30 	sethi  %hi(0xf4a0c000), %l4
    57d8:	2c 35 29 00 	unknown
    57dc:	5f 42 69 67 	call  7d09fd78 <__end+0x3cb9be40>
    57e0:	69 6e 74 3a 	call  a5ba28c8 <LEON_REG+0x25ba28c8>
    57e4:	54 28 37 2c 	call  50a13494 <__end+0x1050f55c>
    57e8:	32 29 3d 73 	unknown
    57ec:	32 34 5f 6e 	unknown
    57f0:	65 78 74 3a 	call  95e228d8 <LEON_REG+0x15e228d8>
    57f4:	28 37 2c 33 	unknown
    57f8:	29 3d 2a 28 	sethi  %hi(0xf4a8a000), %l4
    57fc:	37 2c 32 29 	sethi  %hi(0xb0c8a400), %i3
    5800:	2c 30 2c 33 	unknown
    5804:	32 3b 5f 6b 	unknown
    5808:	3a 28 30 2c 	unknown
    580c:	31 29 2c 33 	sethi  %hi(0xa4b0cc00), %i0
    5810:	32 2c 33 32 	unknown
    5814:	3b 5f 6d 61 	unknown
    5818:	78 77 64 73 	call  e1dde9e4 <LEON_REG+0x61dde9e4>
    581c:	3a 28 30 2c 	unknown
    5820:	31 29 2c 36 	sethi  %hi(0xa4b0d800), %i0
    5824:	34 2c 33 32 	unknown
    5828:	3b 5f 73 69 	unknown
    582c:	67 6e 3a 28 	call  9db940cc <LEON_REG+0x1db940cc>
    5830:	30 2c 31 29 	unknown
    5834:	2c 39 36 2c 	unknown
    5838:	33 32 3b 5f 	sethi  %hi(0xc8ed7c00), %i1
    583c:	77 64 73 3a 	call  dd922524 <LEON_REG+0x5d922524>
    5840:	28 30 2c 31 	unknown
    5844:	29 2c 31 32 	sethi  %hi(0xb0c4c800), %l4
    5848:	38 2c 33 32 	unknown
    584c:	3b 5f 78 3a 	unknown
    5850:	28 37 2c 34 	unknown
    5854:	29 3d 61 72 	sethi  %hi(0xf585c800), %l4
    5858:	28 32 2c 34 	unknown
    585c:	29 3b 30 3b 	sethi  %hi(0xecc0ec00), %l4
    5860:	30 3b 28 37 	unknown
    5864:	2c 31 29 2c 	unknown
    5868:	31 36 30 2c 	sethi  %hi(0xd8c0b000), %i0
    586c:	33 32 3b 3b 	sethi  %hi(0xc8ecec00), %i1
    5870:	00 5f 5f 74 	unknown
    5874:	6d 3a 54 28 	call  b4e9a914 <LEON_REG+0x34e9a914>
    5878:	37 2c 35 29 	sethi  %hi(0xb0d4a400), %i3
    587c:	3d 73 33 36 	unknown
    5880:	5f 5f 74 6d 	call  7d7e2a34 <__end+0x3d2deafc>
    5884:	5f 73 65 63 	call  7dcdee10 <__end+0x3d7daed8>
    5888:	3a 28 30 2c 	unknown
    588c:	31 29 2c 30 	sethi  %hi(0xa4b0c000), %i0
    5890:	2c 33 32 3b 	unknown
    5894:	5f 5f 74 6d 	call  7d7e2a48 <__end+0x3d2deb10>
    5898:	5f 6d 69 6e 	call  7db5fe50 <__end+0x3d65bf18>
    589c:	3a 28 30 2c 	unknown
    58a0:	31 29 2c 33 	sethi  %hi(0xa4b0cc00), %i0
    58a4:	32 2c 33 32 	unknown
    58a8:	3b 5f 5f 74 	unknown
    58ac:	6d 5f 68 6f 	call  b57dfa68 <LEON_REG+0x357dfa68>
    58b0:	75 72 3a 28 	call  d5c94150 <LEON_REG+0x55c94150>
    58b4:	30 2c 31 29 	unknown
    58b8:	2c 36 34 2c 	unknown
    58bc:	33 32 3b 5f 	sethi  %hi(0xc8ed7c00), %i1
    58c0:	5f 74 6d 5f 	call  7dd20e3c <__end+0x3d81cf04>
    58c4:	6d 64 61 79 	call  b591dea8 <LEON_REG+0x3591dea8>
    58c8:	3a 28 30 2c 	unknown
    58cc:	31 29 2c 39 	sethi  %hi(0xa4b0e400), %i0
    58d0:	36 2c 33 32 	unknown
    58d4:	3b 5f 5f 74 	unknown
    58d8:	6d 5f 6d 6f 	call  b57e0e94 <LEON_REG+0x357e0e94>
    58dc:	6e 3a 28 30 	call  b8e8f99c <LEON_REG+0x38e8f99c>
    58e0:	2c 31 29 2c 	unknown
    58e4:	31 32 38 2c 	sethi  %hi(0xc8e0b000), %i0
    58e8:	33 32 3b 5f 	sethi  %hi(0xc8ed7c00), %i1
    58ec:	5f 74 6d 5f 	call  7dd20e68 <__end+0x3d81cf30>
    58f0:	79 65 61 72 	call  e595deb8 <LEON_REG+0x6595deb8>
    58f4:	3a 28 30 2c 	unknown
    58f8:	31 29 2c 31 	sethi  %hi(0xa4b0c400), %i0
    58fc:	36 30 2c 33 	unknown
    5900:	32 3b 5f 5f 	unknown
    5904:	74 6d 5f 77 	call  d1b5d6e0 <LEON_REG+0x51b5d6e0>
    5908:	64 61 79 3a 	call  91863df0 <LEON_REG+0x11863df0>
    590c:	28 30 2c 31 	unknown
    5910:	29 2c 31 39 	sethi  %hi(0xb0c4e400), %l4
    5914:	32 2c 33 32 	unknown
    5918:	3b 5f 5f 74 	unknown
    591c:	6d 5f 79 64 	call  b57e3eac <LEON_REG+0x357e3eac>
    5920:	61 79 3a 28 	call  85e541c0 <LEON_REG+0x5e541c0>
    5924:	30 2c 31 29 	unknown
    5928:	2c 32 32 34 	unknown
    592c:	2c 33 32 3b 	unknown
    5930:	5f 5f 74 6d 	call  7d7e2ae4 <__end+0x3d2debac>
    5934:	5f 69 73 64 	call  7da626c4 <__end+0x3d55e78c>
    5938:	73 74 3a 28 	call  cdd141d8 <LEON_REG+0x4dd141d8>
    593c:	30 2c 31 29 	unknown
    5940:	2c 32 35 36 	unknown
    5944:	2c 33 32 3b 	unknown
    5948:	3b 00 5f 6f 	sethi  %hi(0x17dbc00), %i5
    594c:	6e 5f 65 78 	call  b97def2c <LEON_REG+0x397def2c>
    5950:	69 74 5f 61 	call  a5d1d6d4 <LEON_REG+0x25d1d6d4>
    5954:	72 67 73 3a 	call  c99e263c <LEON_REG+0x499e263c>
    5958:	54 28 37 2c 	call  50a13608 <__end+0x1050f6d0>
    595c:	36 29 3d 73 	unknown
    5960:	32 36 34 5f 	unknown
    5964:	66 6e 61 72 	call  99b9df2c <LEON_REG+0x19b9df2c>
    5968:	67 73 3a 28 	call  9dcd4208 <LEON_REG+0x1dcd4208>
    596c:	37 2c 37 29 	sethi  %hi(0xb0dca400), %i3
    5970:	3d 61 72 28 	unknown
    5974:	32 2c 34 29 	unknown
    5978:	3b 30 3b 33 	sethi  %hi(0xc0eccc00), %i5
    597c:	31 3b 28 38 	sethi  %hi(0xeca0e000), %i0
    5980:	2c 31 30 29 	unknown
    5984:	2c 30 2c 31 	unknown
    5988:	30 32 34 3b 	unknown
    598c:	5f 64 73 6f 	call  7d922748 <__end+0x3d41e810>
    5990:	5f 68 61 6e 	call  7da1df48 <__end+0x3d51a010>
    5994:	64 6c 65 3a 	call  91b1ee7c <LEON_REG+0x11b1ee7c>
    5998:	28 37 2c 37 	unknown
    599c:	29 2c 31 30 	sethi  %hi(0xb0c4c000), %l4
    59a0:	32 34 2c 31 	unknown
    59a4:	30 32 34 3b 	unknown
    59a8:	5f 66 6e 74 	call  7d9a1378 <__end+0x3d49d440>
    59ac:	79 70 65 73 	call  e5c1ef78 <LEON_REG+0x65c1ef78>
    59b0:	3a 28 37 2c 	unknown
    59b4:	31 29 2c 32 	sethi  %hi(0xa4b0c800), %i0
    59b8:	30 34 38 2c 	unknown
    59bc:	33 32 3b 5f 	sethi  %hi(0xc8ed7c00), %i1
    59c0:	69 73 5f 63 	call  a5cdd74c <LEON_REG+0x25cdd74c>
    59c4:	78 61 3a 28 	call  e1854264 <LEON_REG+0x61854264>
    59c8:	37 2c 31 29 	sethi  %hi(0xb0c4a400), %i3
    59cc:	2c 32 30 38 	unknown
    59d0:	30 2c 33 32 	unknown
    59d4:	3b 3b 00 5f 	sethi  %hi(0xec017c00), %i5
    59d8:	61 74 65 78 	call  85d1efb8 <LEON_REG+0x5d1efb8>
    59dc:	69 74 3a 54 	call  a5d1432c <LEON_REG+0x25d1432c>
    59e0:	28 37 2c 38 	unknown
    59e4:	29 3d 73 34 	sethi  %hi(0xf5ccd000), %l4
    59e8:	30 30 5f 6e 	unknown
    59ec:	65 78 74 3a 	call  95e22ad4 <LEON_REG+0x15e22ad4>
    59f0:	28 37 2c 39 	unknown
    59f4:	29 3d 2a 28 	sethi  %hi(0xf4a8a000), %l4
    59f8:	37 2c 38 29 	sethi  %hi(0xb0e0a400), %i3
    59fc:	2c 30 2c 33 	unknown
    5a00:	32 3b 5f 69 	unknown
    5a04:	6e 64 3a 28 	call  b99142a4 <LEON_REG+0x399142a4>
    5a08:	30 2c 31 29 	unknown
    5a0c:	2c 33 32 2c 	unknown
    5a10:	33 32 3b 5f 	sethi  %hi(0xc8ed7c00), %i1
    5a14:	66 6e 73 3a 	call  99ba26fc <LEON_REG+0x19ba26fc>
    5a18:	28 37 2c 31 	unknown
    5a1c:	30 29 3d 61 	unknown
    5a20:	72 28 32 2c 	call  c8a122d0 <LEON_REG+0x48a122d0>
    5a24:	34 29 3b 30 	unknown
    5a28:	3b 33 31 3b 	sethi  %hi(0xccc4ec00), %i5
    5a2c:	28 37 2c 31 	unknown
    5a30:	31 29 3d 2a 	sethi  %hi(0xa4f4a800), %i0
    5a34:	28 37 2c 31 	unknown
    5a38:	32 29 3d 66 	unknown
    5a3c:	28 30 2c 31 	unknown
    5a40:	39 29 2c 36 	sethi  %hi(0xa4b0d800), %i4
    5a44:	34 2c 31 30 	unknown
    5a48:	32 34 3b 5f 	unknown
    5a4c:	6f 6e 5f 65 	call  bdb9d7e0 <LEON_REG+0x3db9d7e0>
    5a50:	78 69 74 5f 	call  e1a62bcc <LEON_REG+0x61a62bcc>
    5a54:	61 72 67 73 	call  85c9f820 <LEON_REG+0x5c9f820>
    5a58:	3a 28 37 2c 	unknown
    5a5c:	36 29 2c 31 	unknown
    5a60:	30 38 38 2c 	unknown
    5a64:	32 31 31 32 	unknown
    5a68:	3b 3b 00 5f 	sethi  %hi(0xec017c00), %i5
    5a6c:	5f 73 62 75 	call  7dcde440 <__end+0x3d7da508>
    5a70:	66 3a 54 28 	call  98e9ab10 <LEON_REG+0x18e9ab10>
    5a74:	37 2c 31 33 	sethi  %hi(0xb0c4cc00), %i3
    5a78:	29 3d 73 38 	sethi  %hi(0xf5cce000), %l4
    5a7c:	5f 62 61 73 	call  7d89e048 <__end+0x3d39a110>
    5a80:	65 3a 28 37 	call  94e8fb5c <LEON_REG+0x14e8fb5c>
    5a84:	2c 31 34 29 	unknown
    5a88:	3d 2a 28 30 	sethi  %hi(0xa8a0c000), %fp
    5a8c:	2c 31 31 29 	unknown
    5a90:	2c 30 2c 33 	unknown
    5a94:	32 3b 5f 73 	unknown
    5a98:	69 7a 65 3a 	call  a5e9ef80 <LEON_REG+0x25e9ef80>
    5a9c:	28 30 2c 31 	unknown
    5aa0:	29 2c 33 32 	sethi  %hi(0xb0ccc800), %l4
    5aa4:	2c 33 32 3b 	unknown
    5aa8:	3b 00 5f 66 	sethi  %hi(0x17d9800), %i5
    5aac:	70 6f 73 5f 	call  c1be2828 <LEON_REG+0x41be2828>
    5ab0:	74 3a 74 28 	call  d0ea2b50 <LEON_REG+0x50ea2b50>
    5ab4:	37 2c 31 35 	sethi  %hi(0xb0c4d400), %i3
    5ab8:	29 3d 28 30 	sethi  %hi(0xf4a0c000), %l4
    5abc:	2c 33 29 00 	unknown
    5ac0:	5f 5f 73 46 	call  7d7e27d8 <__end+0x3d2de8a0>
    5ac4:	49 4c 45 3a 	call  25316fac <_trap_table-0x1b1e9054>
    5ac8:	54 28 37 2c 	call  50a13778 <__end+0x1050f840>
    5acc:	31 36 29 3d 	sethi  %hi(0xd8a4f400), %i0
    5ad0:	73 32 30 34 	call  ccc91ba0 <LEON_REG+0x4cc91ba0>
    5ad4:	5f 70 3a 28 	call  7dc14374 <__end+0x3d71043c>
    5ad8:	37 2c 31 34 	sethi  %hi(0xb0c4d000), %i3
    5adc:	29 2c 30 2c 	sethi  %hi(0xb0c0b000), %l4
    5ae0:	33 32 3b 5f 	sethi  %hi(0xc8ed7c00), %i1
    5ae4:	72 3a 28 30 	call  c8e8fba4 <LEON_REG+0x48e8fba4>
    5ae8:	2c 31 29 2c 	unknown
    5aec:	33 32 2c 33 	sethi  %hi(0xc8b0cc00), %i1
    5af0:	32 3b 5f 77 	unknown
    5af4:	3a 28 30 2c 	unknown
    5af8:	31 29 2c 36 	sethi  %hi(0xa4b0d800), %i0
    5afc:	34 2c 33 32 	unknown
    5b00:	3b 5f 66 6c 	unknown
    5b04:	61 67 73 3a 	call  859e27ec <LEON_REG+0x59e27ec>
    5b08:	28 30 2c 38 	unknown
    5b0c:	29 2c 39 36 	sethi  %hi(0xb0e4d800), %l4
    5b10:	2c 31 36 3b 	unknown
    5b14:	5f 66 69 6c 	call  7d9a00c4 <__end+0x3d49c18c>
    5b18:	65 3a 28 30 	call  94e8fbd8 <LEON_REG+0x14e8fbd8>
    5b1c:	2c 38 29 2c 	unknown
    5b20:	31 31 32 2c 	sethi  %hi(0xc4c8b000), %i0
    5b24:	31 36 3b 5f 	sethi  %hi(0xd8ed7c00), %i0
    5b28:	62 66 3a 28 	call  899943c8 <LEON_REG+0x99943c8>
    5b2c:	37 2c 31 33 	sethi  %hi(0xb0c4cc00), %i3
    5b30:	29 2c 31 32 	sethi  %hi(0xb0c4c800), %l4
    5b34:	38 2c 36 34 	unknown
    5b38:	3b 5f 6c 62 	unknown
    5b3c:	66 73 69 7a 	call  99ce0124 <LEON_REG+0x19ce0124>
    5b40:	65 3a 28 30 	call  94e8fc00 <LEON_REG+0x14e8fc00>
    5b44:	2c 31 29 2c 	unknown
    5b48:	31 39 32 2c 	sethi  %hi(0xe4c8b000), %i0
    5b4c:	33 32 3b 5f 	sethi  %hi(0xc8ed7c00), %i1
    5b50:	63 6f 6f 6b 	call  8dbe18fc <LEON_REG+0xdbe18fc>
    5b54:	69 65 3a 28 	call  a59543f4 <LEON_REG+0x259543f4>
    5b58:	38 2c 31 30 	unknown
    5b5c:	29 2c 32 32 	sethi  %hi(0xb0c8c800), %l4
    5b60:	34 2c 33 32 	unknown
    5b64:	3b 5f 72 65 	unknown
    5b68:	61 64 3a 28 	call  85914408 <LEON_REG+0x5914408>
    5b6c:	37 2c 31 37 	sethi  %hi(0xb0c4dc00), %i3
    5b70:	29 3d 2a 28 	sethi  %hi(0xf4a8a000), %l4
    5b74:	37 2c 31 38 	sethi  %hi(0xb0c4e000), %i3
    5b78:	29 3d 66 28 	sethi  %hi(0xf598a000), %l4
    5b7c:	30 2c 31 29 	unknown
    5b80:	2c 32 35 36 	unknown
    5b84:	2c 33 32 3b 	unknown
    5b88:	5f 77 72 69 	call  7dde252c <__end+0x3d8de5f4>
    5b8c:	74 65 3a 28 	call  d195442c <LEON_REG+0x5195442c>
    5b90:	37 2c 31 39 	sethi  %hi(0xb0c4e400), %i3
    5b94:	29 3d 2a 28 	sethi  %hi(0xf4a8a000), %l4
    5b98:	37 2c 32 30 	sethi  %hi(0xb0c8c000), %i3
    5b9c:	29 3d 66 28 	sethi  %hi(0xf598a000), %l4
    5ba0:	30 2c 31 29 	unknown
    5ba4:	2c 32 38 38 	unknown
    5ba8:	2c 33 32 3b 	unknown
    5bac:	5f 73 65 65 	call  7dcdf140 <__end+0x3d7db208>
    5bb0:	6b 3a 28 37 	call  ace8fc8c <LEON_REG+0x2ce8fc8c>
    5bb4:	2c 32 31 29 	unknown
    5bb8:	3d 2a 28 37 	sethi  %hi(0xa8a0dc00), %fp
    5bbc:	2c 32 32 29 	unknown
    5bc0:	3d 66 28 37 	unknown
    5bc4:	2c 31 35 29 	unknown
    5bc8:	2c 33 32 30 	unknown
    5bcc:	2c 33 32 3b 	unknown
    5bd0:	5f 63 6c 6f 	call  7d8e0d8c <__end+0x3d3dce54>
    5bd4:	73 65 3a 28 	call  cd954474 <LEON_REG+0x4d954474>
    5bd8:	37 2c 32 33 	sethi  %hi(0xb0c8cc00), %i3
    5bdc:	29 3d 2a 28 	sethi  %hi(0xf4a8a000), %l4
    5be0:	37 2c 32 34 	sethi  %hi(0xb0c8d000), %i3
    5be4:	29 3d 66 28 	sethi  %hi(0xf598a000), %l4
    5be8:	30 2c 31 29 	unknown
    5bec:	2c 33 35 32 	unknown
    5bf0:	2c 33 32 3b 	unknown
    5bf4:	5f 75 62 3a 	call  7dd5e4dc <__end+0x3d85a5a4>
    5bf8:	28 37 2c 31 	unknown
    5bfc:	33 29 2c 33 	sethi  %hi(0xa4b0cc00), %i1
    5c00:	38 34 2c 36 	unknown
    5c04:	34 3b 5f 75 	unknown
    5c08:	70 3a 28 37 	call  c0e8fce4 <LEON_REG+0x40e8fce4>
    5c0c:	2c 31 34 29 	unknown
    5c10:	2c 34 34 38 	unknown
    5c14:	2c 33 32 3b 	unknown
    5c18:	5f 75 72 3a 	call  7dd62500 <__end+0x3d85e5c8>
    5c1c:	28 30 2c 31 	unknown
    5c20:	29 2c 34 38 	sethi  %hi(0xb0d0e000), %l4
    5c24:	30 2c 33 32 	unknown
    5c28:	3b 5f 75 62 	unknown
    5c2c:	75 66 3a 28 	call  d59944cc <LEON_REG+0x559944cc>
    5c30:	37 2c 32 35 	sethi  %hi(0xb0c8d400), %i3
    5c34:	29 3d 61 72 	sethi  %hi(0xf585c800), %l4
    5c38:	28 32 2c 34 	unknown
    5c3c:	29 3b 30 3b 	sethi  %hi(0xecc0ec00), %l4
    5c40:	32 3b 28 30 	unknown
    5c44:	2c 31 31 29 	unknown
    5c48:	2c 35 31 32 	unknown
    5c4c:	2c 32 34 3b 	unknown
    5c50:	5f 6e 62 75 	call  7db9e624 <__end+0x3d69a6ec>
    5c54:	66 3a 28 37 	call  98e8fd30 <LEON_REG+0x18e8fd30>
    5c58:	2c 32 36 29 	unknown
    5c5c:	3d 61 72 28 	unknown
    5c60:	32 2c 34 29 	unknown
    5c64:	3b 30 3b 30 	sethi  %hi(0xc0ecc000), %i5
    5c68:	3b 28 30 2c 	sethi  %hi(0xa0c0b000), %i5
    5c6c:	31 31 29 2c 	sethi  %hi(0xc4a4b000), %i0
    5c70:	35 33 36 2c 	sethi  %hi(0xccd8b000), %i2
    5c74:	38 3b 5f 6c 	unknown
    5c78:	62 3a 28 37 	call  88e8fd54 <LEON_REG+0x8e8fd54>
    5c7c:	2c 31 33 29 	unknown
    5c80:	2c 35 34 34 	unknown
    5c84:	2c 36 34 3b 	unknown
    5c88:	5f 62 6c 6b 	call  7d8a0e34 <__end+0x3d39cefc>
    5c8c:	73 69 7a 65 	call  cda64620 <LEON_REG+0x4da64620>
    5c90:	3a 28 30 2c 	unknown
    5c94:	31 29 2c 36 	sethi  %hi(0xa4b0d800), %i0
    5c98:	30 38 2c 33 	unknown
    5c9c:	32 3b 5f 6f 	unknown
    5ca0:	66 66 73 65 	call  999a2a34 <LEON_REG+0x199a2a34>
    5ca4:	74 3a 28 30 	call  d0e8fd64 <LEON_REG+0x50e8fd64>
    5ca8:	2c 31 29 2c 	unknown
    5cac:	36 34 30 2c 	unknown
    5cb0:	33 32 3b 5f 	sethi  %hi(0xc8ed7c00), %i1
    5cb4:	64 61 74 61 	call  91862e38 <LEON_REG+0x11862e38>
    5cb8:	3a 28 37 2c 	unknown
    5cbc:	32 37 29 3d 	unknown
    5cc0:	2a 28 37 2c 	unknown
    5cc4:	32 38 29 3d 	unknown
    5cc8:	78 73 5f 72 	call  e1cdda90 <LEON_REG+0x61cdda90>
    5ccc:	65 65 6e 74 	call  9596169c <LEON_REG+0x1596169c>
    5cd0:	3a 2c 36 37 	unknown
    5cd4:	32 2c 33 32 	unknown
    5cd8:	3b 5f 6c 6f 	unknown
    5cdc:	63 6b 3a 28 	call  8dad457c <LEON_REG+0xdad457c>
    5ce0:	38 2c 38 29 	unknown
    5ce4:	2c 37 30 34 	unknown
    5ce8:	2c 39 32 38 	unknown
    5cec:	3b 3b 00 5f 	sethi  %hi(0xec017c00), %i5
    5cf0:	5f 46 49 4c 	call  7d198220 <__end+0x3cc942e8>
    5cf4:	45 3a 74 28 	call  14ea2d94 <_trap_table-0x2b65d26c>
    5cf8:	37 2c 32 39 	sethi  %hi(0xb0c8e400), %i3
    5cfc:	29 3d 28 37 	sethi  %hi(0xf4a0dc00), %l4
    5d00:	2c 31 36 29 	unknown
    5d04:	00 5f 67 6c 	unknown
    5d08:	75 65 3a 54 	call  d5954658 <LEON_REG+0x55954658>
    5d0c:	28 37 2c 33 	unknown
    5d10:	30 29 3d 73 	unknown
    5d14:	31 32 5f 6e 	sethi  %hi(0xc97db800), %i0
    5d18:	65 78 74 3a 	call  95e22e00 <LEON_REG+0x15e22e00>
    5d1c:	28 37 2c 33 	unknown
    5d20:	31 29 3d 2a 	sethi  %hi(0xa4f4a800), %i0
    5d24:	28 37 2c 33 	unknown
    5d28:	30 29 2c 30 	unknown
    5d2c:	2c 33 32 3b 	unknown
    5d30:	5f 6e 69 6f 	call  7dba02ec <__end+0x3d69c3b4>
    5d34:	62 73 3a 28 	call  89cd45d4 <LEON_REG+0x9cd45d4>
    5d38:	30 2c 31 29 	unknown
    5d3c:	2c 33 32 2c 	unknown
    5d40:	33 32 3b 5f 	sethi  %hi(0xc8ed7c00), %i1
    5d44:	69 6f 62 73 	call  a5bde710 <LEON_REG+0x25bde710>
    5d48:	3a 28 37 2c 	unknown
    5d4c:	33 32 29 3d 	sethi  %hi(0xc8a4f400), %i1
    5d50:	2a 28 37 2c 	unknown
    5d54:	32 39 29 2c 	unknown
    5d58:	36 34 2c 33 	unknown
    5d5c:	32 3b 3b 00 	unknown
    5d60:	5f 72 61 6e 	call  7dc9e318 <__end+0x3d79a3e0>
    5d64:	64 34 38 3a 	call  90d13e4c <LEON_REG+0x10d13e4c>
    5d68:	54 28 37 2c 	call  50a13a18 <__end+0x1050fae0>
    5d6c:	33 33 29 3d 	sethi  %hi(0xcca4f400), %i1
    5d70:	73 31 34 5f 	call  ccc52eec <LEON_REG+0x4cc52eec>
    5d74:	73 65 65 64 	call  cd95f304 <LEON_REG+0x4d95f304>
    5d78:	3a 28 37 2c 	unknown
    5d7c:	33 34 29 3d 	sethi  %hi(0xd0a4f400), %i1
    5d80:	61 72 28 32 	call  85c8fe48 <LEON_REG+0x5c8fe48>
    5d84:	2c 34 29 3b 	unknown
    5d88:	30 3b 32 3b 	unknown
    5d8c:	28 30 2c 39 	unknown
    5d90:	29 2c 30 2c 	sethi  %hi(0xb0c0b000), %l4
    5d94:	34 38 3b 5f 	unknown
    5d98:	6d 75 6c 74 	call  b5d60f68 <LEON_REG+0x35d60f68>
    5d9c:	3a 28 37 2c 	unknown
    5da0:	33 34 29 2c 	sethi  %hi(0xd0a4b000), %i1
    5da4:	34 38 2c 34 	unknown
    5da8:	38 3b 5f 61 	unknown
    5dac:	64 64 3a 28 	call  9191464c <LEON_REG+0x1191464c>
    5db0:	30 2c 39 29 	unknown
    5db4:	2c 39 36 2c 	unknown
    5db8:	31 36 3b 3b 	sethi  %hi(0xd8ecec00), %i0
    5dbc:	00 5f 72 65 	unknown
    5dc0:	65 6e 74 3a 	call  95ba2ea8 <LEON_REG+0x15ba2ea8>
    5dc4:	54 28 37 2c 	call  50a13a74 <__end+0x1050fb3c>
    5dc8:	32 38 29 3d 	unknown
    5dcc:	73 31 33 36 	call  ccc52aa4 <LEON_REG+0x4cc52aa4>
    5dd0:	30 5f 65 72 	unknown
    5dd4:	72 6e 6f 3a 	call  c9ba1abc <LEON_REG+0x49ba1abc>
    5dd8:	28 30 2c 31 	unknown
    5ddc:	29 2c 30 2c 	sethi  %hi(0xb0c0b000), %l4
    5de0:	33 32 3b 5f 	sethi  %hi(0xc8ed7c00), %i1
    5de4:	73 74 64 69 	call  cdd1ef88 <LEON_REG+0x4dd1ef88>
    5de8:	6e 3a 28 37 	call  b8e8fec4 <LEON_REG+0x38e8fec4>
    5dec:	2c 33 32 29 	unknown
    5df0:	2c 33 32 2c 	unknown
    5df4:	33 32 3b 5f 	sethi  %hi(0xc8ed7c00), %i1
    5df8:	73 74 64 6f 	call  cdd1efb4 <LEON_REG+0x4dd1efb4>
    5dfc:	75 74 3a 28 	call  d5d1469c <LEON_REG+0x55d1469c>
    5e00:	37 2c 33 32 	sethi  %hi(0xb0ccc800), %i3
    5e04:	29 2c 36 34 	sethi  %hi(0xb0d8d000), %l4
    5e08:	2c 33 32 3b 	unknown
    5e0c:	5f 73 74 64 	call  7dce2f9c <__end+0x3d7df064>
    5e10:	65 72 72 3a 	call  95ca26f8 <LEON_REG+0x15ca26f8>
    5e14:	28 37 2c 33 	unknown
    5e18:	32 29 2c 39 	unknown
    5e1c:	36 2c 33 32 	unknown
    5e20:	3b 5f 69 6e 	unknown
    5e24:	63 3a 28 30 	call  8ce8fee4 <LEON_REG+0xce8fee4>
    5e28:	2c 31 29 2c 	unknown
    5e2c:	31 32 38 2c 	sethi  %hi(0xc8e0b000), %i0
    5e30:	33 32 3b 5f 	sethi  %hi(0xc8ed7c00), %i1
    5e34:	65 6d 65 72 	call  95b5f3fc <LEON_REG+0x15b5f3fc>
    5e38:	67 65 6e 63 	call  9d9617c4 <LEON_REG+0x1d9617c4>
    5e3c:	79 3a 28 37 	call  e4e8ff18 <LEON_REG+0x64e8ff18>
    5e40:	2c 33 35 29 	unknown
    5e44:	3d 61 72 28 	unknown
    5e48:	32 2c 34 29 	unknown
    5e4c:	3b 30 3b 32 	sethi  %hi(0xc0ecc800), %i5
    5e50:	34 3b 28 30 	unknown
    5e54:	2c 32 29 2c 	unknown
    5e58:	31 36 30 2c 	sethi  %hi(0xd8c0b000), %i0
    5e5c:	32 30 30 3b 	unknown
    5e60:	5f 63 75 72 	call  7d8e3428 <__end+0x3d3df4f0>
    5e64:	72 65 6e 74 	call  c9961834 <LEON_REG+0x49961834>
    5e68:	5f 63 61 74 	call  7d8de438 <__end+0x3d3da500>
    5e6c:	65 67 6f 72 	call  959e1c34 <LEON_REG+0x159e1c34>
    5e70:	79 3a 28 30 	call  e4e8ff30 <LEON_REG+0x64e8ff30>
    5e74:	2c 31 29 2c 	unknown
    5e78:	33 38 34 2c 	sethi  %hi(0xe0d0b000), %i1
    5e7c:	33 32 3b 5f 	sethi  %hi(0xc8ed7c00), %i1
    5e80:	63 75 72 72 	call  8dd62848 <LEON_REG+0xdd62848>
    5e84:	65 6e 74 5f 	call  95ba3000 <LEON_REG+0x15ba3000>
    5e88:	6c 6f 63 61 	call  b1bdec0c <LEON_REG+0x31bdec0c>
    5e8c:	6c 65 3a 28 	call  b195472c <LEON_REG+0x3195472c>
    5e90:	37 2c 33 36 	sethi  %hi(0xb0ccd800), %i3
    5e94:	29 3d 2a 28 	sethi  %hi(0xf4a8a000), %l4
    5e98:	37 2c 33 37 	sethi  %hi(0xb0ccdc00), %i3
    5e9c:	29 3d 6b 28 	sethi  %hi(0xf5aca000), %l4
    5ea0:	30 2c 32 29 	unknown
    5ea4:	2c 34 31 36 	unknown
    5ea8:	2c 33 32 3b 	unknown
    5eac:	5f 5f 73 64 	call  7d7e2c3c <__end+0x3d2ded04>
    5eb0:	69 64 69 6e 	call  a5920468 <LEON_REG+0x25920468>
    5eb4:	69 74 3a 28 	call  a5d14754 <LEON_REG+0x25d14754>
    5eb8:	30 2c 31 29 	unknown
    5ebc:	2c 34 34 38 	unknown
    5ec0:	2c 33 32 3b 	unknown
    5ec4:	5f 5f 63 6c 	call  7d7dec74 <__end+0x3d2dad3c>
    5ec8:	65 61 6e 75 	call  9586189c <LEON_REG+0x1586189c>
    5ecc:	70 3a 28 37 	call  c0e8ffa8 <LEON_REG+0x40e8ffa8>
    5ed0:	2c 33 38 29 	unknown
    5ed4:	3d 2a 28 37 	sethi  %hi(0xa8a0dc00), %fp
    5ed8:	2c 33 39 29 	unknown
    5edc:	3d 66 28 30 	unknown
    5ee0:	2c 31 39 29 	unknown
    5ee4:	2c 34 38 30 	unknown
    5ee8:	2c 33 32 3b 	unknown
    5eec:	5f 72 65 73 	call  7dc9f4b8 <__end+0x3d79b580>
    5ef0:	75 6c 74 3a 	call  d5b22fd8 <LEON_REG+0x55b22fd8>
    5ef4:	28 37 2c 33 	unknown
    5ef8:	29 2c 35 31 	sethi  %hi(0xb0d4c400), %l4
    5efc:	32 2c 33 32 	unknown
    5f00:	3b 5f 72 65 	unknown
    5f04:	73 75 6c 74 	call  cdd610d4 <LEON_REG+0x4dd610d4>
    5f08:	5f 6b 3a 28 	call  7dad47a8 <__end+0x3d5d0870>
    5f0c:	30 2c 31 29 	unknown
    5f10:	2c 35 34 34 	unknown
    5f14:	2c 33 32 3b 	unknown
    5f18:	5f 70 35 73 	call  7dc134e4 <__end+0x3d70f5ac>
    5f1c:	3a 28 37 2c 	unknown
    5f20:	33 29 2c 35 	sethi  %hi(0xa4b0d400), %i1
    5f24:	37 36 2c 33 	sethi  %hi(0xd8b0cc00), %i3
    5f28:	32 3b 5f 66 	unknown
    5f2c:	72 65 65 6c 	call  c995f4dc <LEON_REG+0x4995f4dc>
    5f30:	69 73 74 3a 	call  a5ce3018 <LEON_REG+0x25ce3018>
    5f34:	28 37 2c 34 	unknown
    5f38:	30 29 3d 2a 	unknown
    5f3c:	28 37 2c 33 	unknown
    5f40:	29 2c 36 30 	sethi  %hi(0xb0d8c000), %l4
    5f44:	38 2c 33 32 	unknown
    5f48:	3b 5f 63 76 	unknown
    5f4c:	74 6c 65 6e 	call  d1b1f504 <LEON_REG+0x51b1f504>
    5f50:	3a 28 30 2c 	unknown
    5f54:	31 29 2c 36 	sethi  %hi(0xa4b0d800), %i0
    5f58:	34 30 2c 33 	unknown
    5f5c:	32 3b 5f 63 	unknown
    5f60:	76 74 62 75 	call  d9d1e934 <LEON_REG+0x59d1e934>
    5f64:	66 3a 28 31 	call  98e90028 <LEON_REG+0x18e90028>
    5f68:	30 2c 36 29 	unknown
    5f6c:	2c 36 37 32 	unknown
    5f70:	2c 33 32 3b 	unknown
    5f74:	5f 6e 65 77 	call  7db9f550 <__end+0x3d69b618>
    5f78:	3a 28 37 2c 	unknown
    5f7c:	34 31 29 3d 	unknown
    5f80:	75 32 34 30 	call  d4c93040 <LEON_REG+0x54c93040>
    5f84:	5f 72 65 65 	call  7dc9f518 <__end+0x3d79b5e0>
    5f88:	6e 74 3a 28 	call  b9d14828 <LEON_REG+0x39d14828>
    5f8c:	37 2c 34 32 	sethi  %hi(0xb0d0c800), %i3
    5f90:	29 3d 73 32 	sethi  %hi(0xf5ccc800), %l4
    5f94:	30 38 5f 75 	unknown
    5f98:	6e 75 73 65 	call  b9d62d2c <LEON_REG+0x39d62d2c>
    5f9c:	64 5f 72 61 	call  917e2920 <LEON_REG+0x117e2920>
    5fa0:	6e 64 3a 28 	call  b9914840 <LEON_REG+0x39914840>
    5fa4:	30 2c 34 29 	unknown
    5fa8:	2c 30 2c 33 	unknown
    5fac:	32 3b 5f 73 	unknown
    5fb0:	74 72 74 6f 	call  d1ca316c <LEON_REG+0x51ca316c>
    5fb4:	6b 5f 6c 61 	call  ad7e1138 <LEON_REG+0x2d7e1138>
    5fb8:	73 74 3a 28 	call  cdd14858 <LEON_REG+0x4dd14858>
    5fbc:	31 30 2c 36 	sethi  %hi(0xc0b0d800), %i0
    5fc0:	29 2c 33 32 	sethi  %hi(0xb0ccc800), %l4
    5fc4:	2c 33 32 3b 	unknown
    5fc8:	5f 61 73 63 	call  7d862d54 <__end+0x3d35ee1c>
    5fcc:	74 69 6d 65 	call  d1a61560 <LEON_REG+0x51a61560>
    5fd0:	5f 62 75 66 	call  7d8a3568 <__end+0x3d39f630>
    5fd4:	3a 28 37 2c 	unknown
    5fd8:	34 33 29 3d 	unknown
    5fdc:	61 72 28 32 	call  85c900a4 <LEON_REG+0x5c900a4>
    5fe0:	2c 34 29 3b 	unknown
    5fe4:	30 3b 32 35 	unknown
    5fe8:	3b 28 30 2c 	sethi  %hi(0xa0c0b000), %i5
    5fec:	32 29 2c 36 	unknown
    5ff0:	34 2c 32 30 	unknown
    5ff4:	38 3b 5f 6c 	unknown
    5ff8:	6f 63 61 6c 	call  bd8de5a8 <LEON_REG+0x3d8de5a8>
    5ffc:	74 69 6d 65 	call  d1a61590 <LEON_REG+0x51a61590>
    6000:	5f 62 75 66 	call  7d8a3598 <__end+0x3d39f660>
    6004:	3a 28 37 2c 	unknown
    6008:	35 29 2c 32 	sethi  %hi(0xa4b0c800), %i2
    600c:	38 38 2c 32 	unknown
    6010:	38 38 3b 5f 	unknown
    6014:	67 61 6d 6d 	call  9d8615c8 <LEON_REG+0x1d8615c8>
    6018:	61 5f 73 69 	call  857e2dbc <LEON_REG+0x57e2dbc>
    601c:	67 6e 67 61 	call  9db9fda0 <LEON_REG+0x1db9fda0>
    6020:	6d 3a 28 30 	call  b4e900e0 <LEON_REG+0x34e900e0>
    6024:	2c 31 29 2c 	unknown
    6028:	35 37 36 2c 	sethi  %hi(0xdcd8b000), %i2
    602c:	33 32 3b 5f 	sethi  %hi(0xc8ed7c00), %i1
    6030:	72 61 6e 64 	call  c98619c0 <LEON_REG+0x498619c0>
    6034:	5f 6e 65 78 	call  7db9f614 <__end+0x3d69b6dc>
    6038:	74 3a 28 30 	call  d0e900f8 <LEON_REG+0x50e900f8>
    603c:	2c 37 29 2c 	unknown
    6040:	36 34 30 2c 	unknown
    6044:	36 34 3b 5f 	unknown
    6048:	72 34 38 3a 	call  c8d14130 <LEON_REG+0x48d14130>
    604c:	28 37 2c 33 	unknown
    6050:	33 29 2c 37 	sethi  %hi(0xa4b0dc00), %i1
    6054:	30 34 2c 31 	unknown
    6058:	31 32 3b 5f 	sethi  %hi(0xc8ed7c00), %i0
    605c:	6d 62 6c 65 	call  b58a11f0 <LEON_REG+0x358a11f0>
    6060:	6e 5f 73 74 	call  b97e2e30 <LEON_REG+0x397e2e30>
    6064:	61 74 65 3a 	call  85d1f54c <LEON_REG+0x5d1f54c>
    6068:	28 38 2c 34 	unknown
    606c:	29 2c 38 33 	sethi  %hi(0xb0e0cc00), %l4
    6070:	32 2c 36 34 	unknown
    6074:	3b 5f 6d 62 	unknown
    6078:	74 6f 77 63 	call  d1be3e04 <LEON_REG+0x51be3e04>
    607c:	5f 73 74 61 	call  7dce3200 <__end+0x3d7df2c8>
    6080:	74 65 3a 28 	call  d1954920 <LEON_REG+0x51954920>
    6084:	38 2c 34 29 	unknown
    6088:	2c 38 39 36 	unknown
    608c:	2c 36 34 3b 	unknown
    6090:	5f 77 63 74 	call  7dddee60 <__end+0x3d8daf28>
    6094:	6f 6d 62 5f 	call  bdb5ea10 <LEON_REG+0x3db5ea10>
    6098:	73 74 61 74 	call  cdd1e668 <LEON_REG+0x4dd1e668>
    609c:	65 3a 28 38 	call  94e9017c <LEON_REG+0x14e9017c>
    60a0:	2c 34 29 2c 	unknown
    60a4:	39 36 30 2c 	sethi  %hi(0xd8c0b000), %i4
    60a8:	36 34 3b 5f 	unknown
    60ac:	6c 36 34 61 	call  b0d93230 <LEON_REG+0x30d93230>
    60b0:	5f 62 75 66 	call  7d8a3648 <__end+0x3d39f710>
    60b4:	3a 28 37 2c 	unknown
    60b8:	34 34 29 3d 	unknown
    60bc:	61 72 28 32 	call  85c90184 <LEON_REG+0x5c90184>
    60c0:	2c 34 29 3b 	unknown
    60c4:	30 3b 37 3b 	unknown
    60c8:	28 30 2c 32 	unknown
    60cc:	29 2c 31 30 	sethi  %hi(0xb0c4c000), %l4
    60d0:	32 34 2c 36 	unknown
    60d4:	34 3b 5f 73 	unknown
    60d8:	69 67 6e 61 	call  a59e1a5c <LEON_REG+0x259e1a5c>
    60dc:	6c 5f 62 75 	call  b17deab0 <LEON_REG+0x317deab0>
    60e0:	66 3a 28 37 	call  98e901bc <LEON_REG+0x18e901bc>
    60e4:	2c 34 35 29 	unknown
    60e8:	3d 61 72 28 	unknown
    60ec:	32 2c 34 29 	unknown
    60f0:	3b 30 3b 32 	sethi  %hi(0xc0ecc800), %i5
    60f4:	33 3b 28 30 	sethi  %hi(0xeca0c000), %i1
    60f8:	2c 32 29 2c 	unknown
    60fc:	31 30 38 38 	sethi  %hi(0xc0e0e000), %i0
    6100:	2c 31 39 32 	unknown
    6104:	3b 5f 67 65 	unknown
    6108:	74 64 61 74 	call  d191e6d8 <LEON_REG+0x5191e6d8>
    610c:	65 5f 65 72 	call  957df6d4 <LEON_REG+0x157df6d4>
    6110:	72 3a 28 30 	call  c8e901d0 <LEON_REG+0x48e901d0>
    6114:	2c 31 29 2c 	unknown
    6118:	31 32 38 30 	sethi  %hi(0xc8e0c000), %i0
    611c:	2c 33 32 3b 	unknown
    6120:	5f 6d 62 72 	call  7db5eae8 <__end+0x3d65abb0>
    6124:	6c 65 6e 5f 	call  b1961aa0 <LEON_REG+0x31961aa0>
    6128:	73 74 61 74 	call  cdd1e6f8 <LEON_REG+0x4dd1e6f8>
    612c:	65 3a 28 38 	call  94e9020c <LEON_REG+0x14e9020c>
    6130:	2c 34 29 2c 	unknown
    6134:	31 33 31 32 	sethi  %hi(0xccc4c800), %i0
    6138:	2c 36 34 3b 	unknown
    613c:	5f 6d 62 72 	call  7db5eb04 <__end+0x3d65abcc>
    6140:	74 6f 77 63 	call  d1be3ecc <LEON_REG+0x51be3ecc>
    6144:	5f 73 74 61 	call  7dce32c8 <__end+0x3d7df390>
    6148:	74 65 3a 28 	call  d19549e8 <LEON_REG+0x519549e8>
    614c:	38 2c 34 29 	unknown
    6150:	2c 31 33 37 	unknown
    6154:	36 2c 36 34 	unknown
    6158:	3b 5c 00 5f 	unknown
    615c:	6d 62 73 72 	call  b58a2f24 <LEON_REG+0x358a2f24>
    6160:	74 6f 77 63 	call  d1be3eec <LEON_REG+0x51be3eec>
    6164:	73 5f 73 74 	call  cd7e2f34 <LEON_REG+0x4d7e2f34>
    6168:	61 74 65 3a 	call  85d1f650 <LEON_REG+0x5d1f650>
    616c:	28 38 2c 34 	unknown
    6170:	29 2c 31 34 	sethi  %hi(0xb0c4d000), %l4
    6174:	34 30 2c 36 	unknown
    6178:	34 3b 5f 77 	unknown
    617c:	63 72 74 6f 	call  8dca3338 <LEON_REG+0xdca3338>
    6180:	6d 62 5f 73 	call  b589df4c <LEON_REG+0x3589df4c>
    6184:	74 61 74 65 	call  d1863318 <LEON_REG+0x51863318>
    6188:	3a 28 38 2c 	unknown
    618c:	34 29 2c 31 	unknown
    6190:	35 30 34 2c 	sethi  %hi(0xc0d0b000), %i2
    6194:	36 34 3b 5f 	unknown
    6198:	77 63 73 72 	call  dd8e2f60 <LEON_REG+0x5d8e2f60>
    619c:	74 6f 6d 62 	call  d1be1724 <LEON_REG+0x51be1724>
    61a0:	73 5f 73 74 	call  cd7e2f70 <LEON_REG+0x4d7e2f70>
    61a4:	61 74 65 3a 	call  85d1f68c <LEON_REG+0x5d1f68c>
    61a8:	28 38 2c 34 	unknown
    61ac:	29 2c 31 35 	sethi  %hi(0xb0c4d400), %l4
    61b0:	36 38 2c 36 	unknown
    61b4:	34 3b 3b 2c 	unknown
    61b8:	30 2c 31 36 	unknown
    61bc:	36 34 3b 5f 	unknown
    61c0:	75 6e 75 73 	call  d5ba378c <LEON_REG+0x55ba378c>
    61c4:	65 64 3a 28 	call  95914a64 <LEON_REG+0x15914a64>
    61c8:	37 2c 34 36 	sethi  %hi(0xb0d0d800), %i3
    61cc:	29 3d 73 32 	sethi  %hi(0xf5ccc800), %l4
    61d0:	34 30 5f 6e 	unknown
    61d4:	65 78 74 66 	call  95e2336c <LEON_REG+0x15e2336c>
    61d8:	3a 28 37 2c 	unknown
    61dc:	34 37 29 3d 	unknown
    61e0:	61 72 28 32 	call  85c902a8 <LEON_REG+0x5c902a8>
    61e4:	2c 34 29 3b 	unknown
    61e8:	30 3b 32 39 	unknown
    61ec:	3b 28 37 2c 	sethi  %hi(0xa0dcb000), %i5
    61f0:	31 34 29 2c 	sethi  %hi(0xd0a4b000), %i0
    61f4:	30 2c 39 36 	unknown
    61f8:	30 3b 5f 6e 	unknown
    61fc:	6d 61 6c 6c 	call  b58613ac <LEON_REG+0x358613ac>
    6200:	6f 63 3a 28 	call  bd8d4aa0 <LEON_REG+0x3d8d4aa0>
    6204:	37 2c 34 38 	sethi  %hi(0xb0d0e000), %i3
    6208:	29 3d 61 72 	sethi  %hi(0xf585c800), %l4
    620c:	28 32 2c 34 	unknown
    6210:	29 3b 30 3b 	sethi  %hi(0xecc0ec00), %l4
    6214:	32 39 3b 28 	unknown
    6218:	30 2c 34 29 	unknown
    621c:	2c 39 36 30 	unknown
    6220:	2c 39 36 30 	unknown
    6224:	3b 3b 2c 30 	sethi  %hi(0xecb0c000), %i5
    6228:	2c 31 39 32 	unknown
    622c:	30 3b 3b 2c 	unknown
    6230:	37 30 34 2c 	sethi  %hi(0xc0d0b000), %i3
    6234:	31 39 32 30 	sethi  %hi(0xe4c8c000), %i0
    6238:	3b 5f 61 74 	unknown
    623c:	65 78 69 74 	call  95e2080c <LEON_REG+0x15e2080c>
    6240:	3a 28 37 2c 	unknown
    6244:	39 29 2c 32 	sethi  %hi(0xa4b0c800), %i4
    6248:	36 32 34 2c 	unknown
    624c:	33 32 3b 5f 	sethi  %hi(0xc8ed7c00), %i1
    6250:	61 74 65 78 	call  85d1f830 <LEON_REG+0x5d1f830>
    6254:	69 74 30 3a 	call  a5d1233c <LEON_REG+0x25d1233c>
    6258:	28 37 2c 38 	unknown
    625c:	29 2c 32 36 	sethi  %hi(0xb0c8d800), %l4
    6260:	35 36 2c 33 	sethi  %hi(0xd8b0cc00), %i2
    6264:	32 30 30 3b 	unknown
    6268:	5f 73 69 67 	call  7dce0804 <__end+0x3d7dc8cc>
    626c:	5f 66 75 6e 	call  7d9a3824 <__end+0x3d49f8ec>
    6270:	63 3a 28 37 	call  8ce9034c <LEON_REG+0xce9034c>
    6274:	2c 34 39 29 	unknown
    6278:	3d 2a 28 37 	sethi  %hi(0xa8a0dc00), %fp
    627c:	2c 35 30 29 	unknown
    6280:	3d 2a 28 37 	sethi  %hi(0xa8a0dc00), %fp
    6284:	2c 35 31 29 	unknown
    6288:	3d 66 28 30 	unknown
    628c:	2c 31 39 29 	unknown
    6290:	2c 35 38 35 	unknown
    6294:	36 2c 33 32 	unknown
    6298:	3b 5f 5f 73 	unknown
    629c:	67 6c 75 65 	call  9db23830 <LEON_REG+0x1db23830>
    62a0:	3a 28 37 2c 	unknown
    62a4:	33 30 29 2c 	sethi  %hi(0xc0a4b000), %i1
    62a8:	35 38 38 38 	sethi  %hi(0xe0e0e000), %i2
    62ac:	2c 39 36 3b 	unknown
    62b0:	5f 5f 73 66 	call  7d7e3048 <__end+0x3d2df110>
    62b4:	3a 28 37 2c 	unknown
    62b8:	35 32 29 3d 	sethi  %hi(0xc8a4f400), %i2
    62bc:	61 72 28 32 	call  85c90384 <LEON_REG+0x5c90384>
    62c0:	2c 34 29 3b 	unknown
    62c4:	30 3b 32 3b 	unknown
    62c8:	28 37 2c 32 	unknown
    62cc:	39 29 2c 35 	sethi  %hi(0xa4b0d400), %i4
    62d0:	39 38 34 2c 	sethi  %hi(0xe0d0b000), %i4
    62d4:	34 38 39 36 	unknown
    62d8:	3b 3b 00 5f 	sethi  %hi(0xec017c00), %i5
    62dc:	5f 69 6e 74 	call  7da61cac <__end+0x3d55dd74>
    62e0:	31 36 5f 74 	sethi  %hi(0xd97dd000), %i0
    62e4:	3a 74 28 31 	unknown
    62e8:	32 2c 31 29 	unknown
    62ec:	3d 28 30 2c 	sethi  %hi(0xa0c0b000), %fp
    62f0:	38 29 00 5f 	unknown
    62f4:	5f 75 69 6e 	call  7dd608ac <__end+0x3d85c974>
    62f8:	74 31 36 5f 	call  d0c53c74 <LEON_REG+0x50c53c74>
    62fc:	74 3a 74 28 	call  d0ea339c <LEON_REG+0x50ea339c>
    6300:	31 32 2c 32 	sethi  %hi(0xc8b0c800), %i0
    6304:	29 3d 28 30 	sethi  %hi(0xf4a0c000), %l4
    6308:	2c 39 29 00 	unknown
    630c:	5f 5f 69 6e 	call  7d7e08c4 <__end+0x3d2dc98c>
    6310:	74 33 32 5f 	call  d0cd2c8c <LEON_REG+0x50cd2c8c>
    6314:	74 3a 74 28 	call  d0ea33b4 <LEON_REG+0x50ea33b4>
    6318:	31 32 2c 33 	sethi  %hi(0xc8b0cc00), %i0
    631c:	29 3d 28 30 	sethi  %hi(0xf4a0c000), %l4
    6320:	2c 31 29 00 	unknown
    6324:	5f 5f 75 69 	call  7d7e38c8 <__end+0x3d2df990>
    6328:	6e 74 33 32 	call  b9d12ff0 <LEON_REG+0x39d12ff0>
    632c:	5f 74 3a 74 	call  7dd14cfc <__end+0x3d810dc4>
    6330:	28 31 32 2c 	unknown
    6334:	34 29 3d 28 	unknown
    6338:	30 2c 34 29 	unknown
    633c:	00 5f 5f 69 	unknown
    6340:	6e 74 36 34 	call  b9d13c10 <LEON_REG+0x39d13c10>
    6344:	5f 74 3a 74 	call  7dd14d14 <__end+0x3d810ddc>
    6348:	28 31 32 2c 	unknown
    634c:	35 29 3d 28 	sethi  %hi(0xa4f4a000), %i2
    6350:	30 2c 36 29 	unknown
    6354:	00 5f 5f 75 	unknown
    6358:	69 6e 74 36 	call  a5ba3430 <LEON_REG+0x25ba3430>
    635c:	34 5f 74 3a 	unknown
    6360:	74 28 31 32 	call  d0a12828 <LEON_REG+0x50a12828>
    6364:	2c 36 29 3d 	unknown
    6368:	28 30 2c 37 	unknown
    636c:	29 00 70 74 	sethi  %hi(0x1c1d000), %l4
    6370:	72 64 69 66 	call  c9920908 <LEON_REG+0x49920908>
    6374:	66 5f 74 3a 	call  997e345c <LEON_REG+0x197e345c>
    6378:	74 28 31 33 	call  d0a12844 <LEON_REG+0x50a12844>
    637c:	2c 31 29 3d 	unknown
    6380:	28 30 2c 31 	unknown
    6384:	29 00 77 63 	sethi  %hi(0x1dd8c00), %l4
    6388:	68 61 72 5f 	call  a1862d04 <LEON_REG+0x21862d04>
    638c:	74 3a 74 28 	call  d0ea342c <LEON_REG+0x50ea342c>
    6390:	31 33 2c 32 	sethi  %hi(0xccb0c800), %i0
    6394:	29 3d 28 30 	sethi  %hi(0xf4a0c000), %l4
    6398:	2c 33 29 00 	unknown
    639c:	75 5f 63 68 	call  d57df13c <LEON_REG+0x557df13c>
    63a0:	61 72 3a 74 	call  85c94d70 <LEON_REG+0x5c94d70>
    63a4:	28 31 32 2c 	unknown
    63a8:	37 29 3d 28 	sethi  %hi(0xa4f4a000), %i3
    63ac:	30 2c 31 31 	unknown
    63b0:	29 00 75 5f 	sethi  %hi(0x1d57c00), %l4
    63b4:	73 68 6f 72 	call  cda2217c <LEON_REG+0x4da2217c>
    63b8:	74 3a 74 28 	call  d0ea3458 <LEON_REG+0x50ea3458>
    63bc:	31 32 2c 38 	sethi  %hi(0xc8b0e000), %i0
    63c0:	29 3d 28 30 	sethi  %hi(0xf4a0c000), %l4
    63c4:	2c 39 29 00 	unknown
    63c8:	75 5f 69 6e 	call  d57e0980 <LEON_REG+0x557e0980>
    63cc:	74 3a 74 28 	call  d0ea346c <LEON_REG+0x50ea346c>
    63d0:	31 32 2c 39 	sethi  %hi(0xc8b0e400), %i0
    63d4:	29 3d 28 30 	sethi  %hi(0xf4a0c000), %l4
    63d8:	2c 34 29 00 	unknown
    63dc:	75 5f 6c 6f 	call  d57e1598 <LEON_REG+0x557e1598>
    63e0:	6e 67 3a 74 	call  b99d4db0 <LEON_REG+0x399d4db0>
    63e4:	28 31 32 2c 	unknown
    63e8:	31 30 29 3d 	sethi  %hi(0xc0a4f400), %i0
    63ec:	28 30 2c 35 	unknown
    63f0:	29 00 75 73 	sethi  %hi(0x1d5cc00), %l4
    63f4:	68 6f 72 74 	call  a1be2dc4 <LEON_REG+0x21be2dc4>
    63f8:	3a 74 28 31 	unknown
    63fc:	32 2c 31 31 	unknown
    6400:	29 3d 28 30 	sethi  %hi(0xf4a0c000), %l4
    6404:	2c 39 29 00 	unknown
    6408:	75 69 6e 74 	call  d5a61dd8 <LEON_REG+0x55a61dd8>
    640c:	3a 74 28 31 	unknown
    6410:	32 2c 31 32 	unknown
    6414:	29 3d 28 30 	sethi  %hi(0xf4a0c000), %l4
    6418:	2c 34 29 00 	unknown
    641c:	63 6c 6f 63 	call  8db221a8 <LEON_REG+0xdb221a8>
    6420:	6b 5f 74 3a 	call  ad7e3508 <LEON_REG+0x2d7e3508>
    6424:	74 28 31 32 	call  d0a128ec <LEON_REG+0x50a128ec>
    6428:	2c 31 33 29 	unknown
    642c:	3d 28 30 2c 	sethi  %hi(0xa0c0b000), %fp
    6430:	35 29 00 74 	sethi  %hi(0xa401d000), %i2
    6434:	69 6d 65 5f 	call  a5b5f9b0 <LEON_REG+0x25b5f9b0>
    6438:	74 3a 74 28 	call  d0ea34d8 <LEON_REG+0x50ea34d8>
    643c:	31 32 2c 31 	sethi  %hi(0xc8b0c400), %i0
    6440:	34 29 3d 28 	unknown
    6444:	30 2c 33 29 	unknown
    6448:	00 74 69 6d 	unknown
    644c:	65 73 70 65 	call  95ce25e0 <LEON_REG+0x15ce25e0>
    6450:	63 3a 54 28 	call  8ce9b4f0 <LEON_REG+0xce9b4f0>
    6454:	31 32 2c 31 	sethi  %hi(0xc8b0c400), %i0
    6458:	35 29 3d 73 	sethi  %hi(0xa4f5cc00), %i2
    645c:	38 74 76 5f 	unknown
    6460:	73 65 63 3a 	call  cd95f148 <LEON_REG+0x4d95f148>
    6464:	28 31 32 2c 	unknown
    6468:	31 34 29 2c 	sethi  %hi(0xd0a4b000), %i0
    646c:	30 2c 33 32 	unknown
    6470:	3b 74 76 5f 	unknown
    6474:	6e 73 65 63 	call  b9cdfa00 <LEON_REG+0x39cdfa00>
    6478:	3a 28 30 2c 	unknown
    647c:	33 29 2c 33 	sethi  %hi(0xa4b0cc00), %i1
    6480:	32 2c 33 32 	unknown
    6484:	3b 3b 00 69 	sethi  %hi(0xec01a400), %i5
    6488:	74 69 6d 65 	call  d1a61a1c <LEON_REG+0x51a61a1c>
    648c:	72 73 70 65 	call  c9ce2620 <LEON_REG+0x49ce2620>
    6490:	63 3a 54 28 	call  8ce9b530 <LEON_REG+0xce9b530>
    6494:	31 32 2c 31 	sethi  %hi(0xc8b0c400), %i0
    6498:	36 29 3d 73 	unknown
    649c:	31 36 69 74 	sethi  %hi(0xd9a5d000), %i0
    64a0:	5f 69 6e 74 	call  7da61e70 <__end+0x3d55df38>
    64a4:	65 72 76 61 	call  95ca3e28 <LEON_REG+0x15ca3e28>
    64a8:	6c 3a 28 31 	call  b0e9056c <LEON_REG+0x30e9056c>
    64ac:	32 2c 31 35 	unknown
    64b0:	29 2c 30 2c 	sethi  %hi(0xb0c0b000), %l4
    64b4:	36 34 3b 69 	unknown
    64b8:	74 5f 76 61 	call  d17e3e3c <LEON_REG+0x517e3e3c>
    64bc:	6c 75 65 3a 	call  b1d5f9a4 <LEON_REG+0x31d5f9a4>
    64c0:	28 31 32 2c 	unknown
    64c4:	31 35 29 2c 	sethi  %hi(0xd4a4b000), %i0
    64c8:	36 34 2c 36 	unknown
    64cc:	34 3b 3b 00 	unknown
    64d0:	64 61 64 64 	call  9185f660 <LEON_REG+0x1185f660>
    64d4:	72 5f 74 3a 	call  c97e35bc <LEON_REG+0x497e35bc>
    64d8:	74 28 31 32 	call  d0a129a0 <LEON_REG+0x50a129a0>
    64dc:	2c 31 37 29 	unknown
    64e0:	3d 28 30 2c 	sethi  %hi(0xa0c0b000), %fp
    64e4:	33 29 00 63 	sethi  %hi(0xa4018c00), %i1
    64e8:	61 64 64 72 	call  8591f6b0 <LEON_REG+0x591f6b0>
    64ec:	5f 74 3a 74 	call  7dd14ebc <__end+0x3d810f84>
    64f0:	28 31 32 2c 	unknown
    64f4:	31 38 29 3d 	sethi  %hi(0xe0a4f400), %i0
    64f8:	28 31 30 2c 	unknown
    64fc:	36 29 00 69 	unknown
    6500:	6e 6f 5f 74 	call  b9bde2d0 <LEON_REG+0x39bde2d0>
    6504:	3a 74 28 31 	unknown
    6508:	32 2c 31 39 	unknown
    650c:	29 3d 28 30 	sethi  %hi(0xf4a0c000), %l4
    6510:	2c 35 29 00 	unknown
    6514:	64 65 76 5f 	call  91963e90 <LEON_REG+0x11963e90>
    6518:	74 3a 74 28 	call  d0ea35b8 <LEON_REG+0x50ea35b8>
    651c:	31 32 2c 32 	sethi  %hi(0xc8b0c800), %i0
    6520:	30 29 3d 28 	unknown
    6524:	30 2c 38 29 	unknown
    6528:	00 6f 66 66 	unknown
    652c:	5f 74 3a 74 	call  7dd14efc <__end+0x3d810fc4>
    6530:	28 31 32 2c 	unknown
    6534:	32 31 29 3d 	unknown
    6538:	28 30 2c 33 	unknown
    653c:	29 00 75 69 	sethi  %hi(0x1d5a400), %l4
    6540:	64 5f 74 3a 	call  917e3628 <LEON_REG+0x117e3628>
    6544:	74 28 31 32 	call  d0a12a0c <LEON_REG+0x50a12a0c>
    6548:	2c 32 32 29 	unknown
    654c:	3d 28 30 2c 	sethi  %hi(0xa0c0b000), %fp
    6550:	39 29 00 67 	sethi  %hi(0xa4019c00), %i4
    6554:	69 64 5f 74 	call  a591e324 <LEON_REG+0x2591e324>
    6558:	3a 74 28 31 	unknown
    655c:	32 2c 32 33 	unknown
    6560:	29 3d 28 30 	sethi  %hi(0xf4a0c000), %l4
    6564:	2c 39 29 00 	unknown
    6568:	70 69 64 5f 	call  c1a5f6e4 <LEON_REG+0x41a5f6e4>
    656c:	74 3a 74 28 	call  d0ea360c <LEON_REG+0x50ea360c>
    6570:	31 32 2c 32 	sethi  %hi(0xc8b0c800), %i0
    6574:	34 29 3d 28 	unknown
    6578:	30 2c 31 29 	unknown
    657c:	00 6b 65 79 	unknown
    6580:	5f 74 3a 74 	call  7dd14f50 <__end+0x3d811018>
    6584:	28 31 32 2c 	unknown
    6588:	32 35 29 3d 	unknown
    658c:	28 30 2c 33 	unknown
    6590:	29 00 73 73 	sethi  %hi(0x1cdcc00), %l4
    6594:	69 7a 65 5f 	call  a5e9fb10 <LEON_REG+0x25e9fb10>
    6598:	74 3a 74 28 	call  d0ea3638 <LEON_REG+0x50ea3638>
    659c:	31 32 2c 32 	sethi  %hi(0xc8b0c800), %i0
    65a0:	36 29 3d 28 	unknown
    65a4:	38 2c 33 29 	unknown
    65a8:	00 6d 6f 64 	unknown
    65ac:	65 5f 74 3a 	call  957e3694 <LEON_REG+0x157e3694>
    65b0:	74 28 31 32 	call  d0a12a78 <LEON_REG+0x50a12a78>
    65b4:	2c 32 37 29 	unknown
    65b8:	3d 28 30 2c 	sethi  %hi(0xa0c0b000), %fp
    65bc:	39 29 00 6e 	sethi  %hi(0xa401b800), %i4
    65c0:	6c 69 6e 6b 	call  b1a61f6c <LEON_REG+0x31a61f6c>
    65c4:	5f 74 3a 74 	call  7dd14f94 <__end+0x3d81105c>
    65c8:	28 31 32 2c 	unknown
    65cc:	32 38 29 3d 	unknown
    65d0:	28 30 2c 39 	unknown
    65d4:	29 00 66 64 	sethi  %hi(0x1999000), %l4
    65d8:	5f 6d 61 73 	call  7db5eba4 <__end+0x3d65ac6c>
    65dc:	6b 3a 74 28 	call  acea367c <LEON_REG+0x2cea367c>
    65e0:	31 32 2c 32 	sethi  %hi(0xc8b0c800), %i0
    65e4:	39 29 3d 28 	sethi  %hi(0xa4f4a000), %i4
    65e8:	30 2c 33 29 	unknown
    65ec:	00 5f 74 79 	unknown
    65f0:	70 65 73 5f 	call  c196336c <LEON_REG+0x4196336c>
    65f4:	66 64 5f 73 	call  9991e3c0 <LEON_REG+0x1991e3c0>
    65f8:	65 74 3a 54 	call  95d14f48 <LEON_REG+0x15d14f48>
    65fc:	28 31 32 2c 	unknown
    6600:	33 30 29 3d 	sethi  %hi(0xc0a4f400), %i1
    6604:	73 38 66 64 	call  cce1ff94 <LEON_REG+0x4ce1ff94>
    6608:	73 5f 62 69 	call  cd7defac <LEON_REG+0x4d7defac>
    660c:	74 73 3a 28 	call  d1cd4eac <LEON_REG+0x51cd4eac>
    6610:	31 32 2c 33 	sethi  %hi(0xc8b0cc00), %i0
    6614:	31 29 3d 61 	sethi  %hi(0xa4f58400), %i0
    6618:	72 28 32 2c 	call  c8a12ec8 <LEON_REG+0x48a12ec8>
    661c:	34 29 3b 30 	unknown
    6620:	3b 31 3b 28 	sethi  %hi(0xc4eca000), %i5
    6624:	31 32 2c 32 	sethi  %hi(0xc8b0c800), %i0
    6628:	39 29 2c 30 	sethi  %hi(0xa4b0c000), %i4
    662c:	2c 36 34 3b 	unknown
    6630:	3b 00 5f 74 	sethi  %hi(0x17dd000), %i5
    6634:	79 70 65 73 	call  e5c1fc00 <LEON_REG+0x65c1fc00>
    6638:	5f 66 64 5f 	call  7d99f7b4 <__end+0x3d49b87c>
    663c:	73 65 74 3a 	call  cd963724 <LEON_REG+0x4d963724>
    6640:	74 28 31 32 	call  d0a12b08 <LEON_REG+0x50a12b08>
    6644:	2c 33 32 29 	unknown
    6648:	3d 28 31 32 	sethi  %hi(0xa0c4c800), %fp
    664c:	2c 33 30 29 	unknown
    6650:	00 5f 63 61 	unknown
    6654:	6c 6c 5f 69 	call  b1b1e3f8 <LEON_REG+0x31b1e3f8>
    6658:	6e 69 74 63 	call  b9a637e4 <LEON_REG+0x39a637e4>
    665c:	61 6c 6c 73 	call  85b21828 <LEON_REG+0x5b21828>
    6660:	3a 46 28 30 	unknown
    6664:	2c 31 39 29 	unknown
    6668:	00 70 3a 72 	unknown
    666c:	28 30 2c 32 	unknown
    6670:	32 29 3d 2a 	unknown
    6674:	28 33 2c 31 	unknown
    6678:	29 00 2f 74 	sethi  %hi(0xbdd000), %l4
    667c:	6d 70 2f 63 	call  b5c12408 <LEON_REG+0x35c12408>
    6680:	63 39 35 4d 	call  8ce53bb4 <LEON_REG+0xce53bb4>
    6684:	30 78 65 2e 	unknown
    6688:	73 00 2e 2e 	call  cc011f40 <LEON_REG+0x4c011f40>
    668c:	2f 2e 2e 2f 	sethi  %hi(0xb8b8bc00), %l7
    6690:	2e 2e 2f 2e 	unknown
    6694:	2e 2f 2e 2e 	unknown
    6698:	2f 67 63 63 	unknown
    669c:	2d 33 2e 34 	sethi  %hi(0xccb8d000), %l6
    66a0:	2e 34 2f 6c 	unknown
    66a4:	69 62 67 6c 	call  a58a0454 <LEON_REG+0x258a0454>
    66a8:	6f 73 73 2f 	call  bdce3364 <LEON_REG+0x3dce3364>
    66ac:	73 70 61 72 	call  cdc1ec74 <LEON_REG+0x4dc1ec74>
    66b0:	63 5f 6c 65 	call  8d7e1844 <LEON_REG+0xd7e1844>
    66b4:	6f 6e 2f 65 	call  bdb92448 <LEON_REG+0x3db92448>
    66b8:	74 72 61 70 	call  d1c9ec78 <LEON_REG+0x51c9ec78>
    66bc:	2e 53 00 2f 	unknown
    66c0:	74 6d 70 2f 	call  d1b6277c <LEON_REG+0x51b6277c>
    66c4:	63 63 62 35 	call  8d8def98 <LEON_REG+0xd8def98>
    66c8:	32 53 78 67 	unknown
    66cc:	2e 73 00 2e 	unknown
    66d0:	2e 2f 2e 2e 	unknown
    66d4:	2f 2e 2e 2f 	sethi  %hi(0xb8b8bc00), %l7
    66d8:	2e 2e 2f 2e 	unknown
    66dc:	2e 2f 67 63 	unknown
    66e0:	63 2d 33 2e 	call  8cb53398 <LEON_REG+0xcb53398>
    66e4:	34 2e 34 2f 	unknown
    66e8:	6c 69 62 67 	call  b1a5f084 <LEON_REG+0x31a5f084>
    66ec:	6c 6f 73 73 	call  b1be34b8 <LEON_REG+0x31be34b8>
    66f0:	2f 73 70 61 	unknown
    66f4:	72 63 5f 6c 	call  c98de4a4 <LEON_REG+0x498de4a4>
    66f8:	65 6f 6e 2f 	call  95be1fb4 <LEON_REG+0x15be1fb4>
    66fc:	72 74 72 61 	call  c9d23080 <LEON_REG+0x49d23080>
    6700:	70 2e 53 00 	call  c0b9b300 <LEON_REG+0x40b9b300>
    6704:	2f 74 6d 70 	unknown
    6708:	2f 63 63 54 	unknown
    670c:	6e 38 33 77 	call  b8e134e8 <LEON_REG+0x38e134e8>
    6710:	69 2e 73 00 	call  a4ba3310 <LEON_REG+0x24ba3310>
    6714:	2e 2e 2f 2e 	unknown
    6718:	2e 2f 2e 2e 	unknown
    671c:	2f 2e 2e 2f 	sethi  %hi(0xb8b8bc00), %l7
    6720:	2e 2e 2f 67 	unknown
    6724:	63 63 2d 33 	call  8d8d1bf0 <LEON_REG+0xd8d1bf0>
    6728:	2e 34 2e 34 	unknown
    672c:	2f 6c 69 62 	unknown
    6730:	67 6c 6f 73 	call  9db224fc <LEON_REG+0x1db224fc>
    6734:	73 2f 73 70 	call  ccbe34f4 <LEON_REG+0x4cbe34f4>
    6738:	61 72 63 5f 	call  85c9f4b4 <LEON_REG+0x5c9f4b4>
    673c:	6c 65 6f 6e 	call  b19624f4 <LEON_REG+0x319624f4>
    6740:	2f 65 74 72 	unknown
    6744:	61 70 5f 66 	call  85c1e4dc <LEON_REG+0x5c1e4dc>
    6748:	61 73 74 2e 	call  85ce3800 <LEON_REG+0x5ce3800>
    674c:	53 00 2f 74 	call  4c01251c <__end+0xbb0e5e4>
    6750:	6d 70 2f 63 	call  b5c124dc <LEON_REG+0x35c124dc>
    6754:	63 72 55 37 	call  8dc9bc30 <LEON_REG+0xdc9bc30>
    6758:	6f 4e 6b 2e 	call  bd3a1410 <LEON_REG+0x3d3a1410>
    675c:	73 00 2e 2e 	call  cc012014 <LEON_REG+0x4c012014>
    6760:	2f 2e 2e 2f 	sethi  %hi(0xb8b8bc00), %l7
    6764:	2e 2e 2f 2e 	unknown
    6768:	2e 2f 2e 2e 	unknown
    676c:	2f 67 63 63 	unknown
    6770:	2d 33 2e 34 	sethi  %hi(0xccb8d000), %l6
    6774:	2e 34 2f 6c 	unknown
    6778:	69 62 67 6c 	call  a58a0528 <LEON_REG+0x258a0528>
    677c:	6f 73 73 2f 	call  bdce3438 <LEON_REG+0x3dce3438>
    6780:	73 70 61 72 	call  cdc1ed48 <LEON_REG+0x4dc1ed48>
    6784:	63 5f 6c 65 	call  8d7e1918 <LEON_REG+0xd7e1918>
    6788:	6f 6e 2f 72 	call  bdb92550 <LEON_REG+0x3db92550>
    678c:	74 72 61 70 	call  d1c9ed4c <LEON_REG+0x51c9ed4c>
    6790:	5f 66 61 73 	call  7d99ed5c <__end+0x3d49ae24>
    6794:	74 2e 53 00 	call  d0b9b394 <LEON_REG+0x50b9b394>
    6798:	2f 74 6d 70 	unknown
    679c:	2f 63 63 73 	unknown
    67a0:	6b 4b 4b 71 	call  ad2d9564 <LEON_REG+0x2d2d9564>
    67a4:	7a 2e 73 00 	call  e8ba33a4 <LEON_REG+0x68ba33a4>
    67a8:	2e 2e 2f 2e 	unknown
    67ac:	2e 2f 2e 2e 	unknown
    67b0:	2f 2e 2e 2f 	sethi  %hi(0xb8b8bc00), %l7
    67b4:	2e 2e 2f 67 	unknown
    67b8:	63 63 2d 33 	call  8d8d1c84 <LEON_REG+0xd8d1c84>
    67bc:	2e 34 2e 34 	unknown
    67c0:	2f 6c 69 62 	unknown
    67c4:	67 6c 6f 73 	call  9db22590 <LEON_REG+0x1db22590>
    67c8:	73 2f 73 70 	call  ccbe3588 <LEON_REG+0x4cbe3588>
    67cc:	61 72 63 5f 	call  85c9f548 <LEON_REG+0x5c9f548>
    67d0:	6c 65 6f 6e 	call  b1962588 <LEON_REG+0x31962588>
    67d4:	2f 62 75 73 	unknown
    67d8:	73 63 61 6e 	call  cd8ded90 <LEON_REG+0x4d8ded90>
    67dc:	2e 53 00 2e 	unknown
    67e0:	2e 2f 2e 2e 	unknown
    67e4:	2f 2e 2e 2f 	sethi  %hi(0xb8b8bc00), %l7
    67e8:	2e 2e 2f 2e 	unknown
    67ec:	2e 2f 67 63 	unknown
    67f0:	63 2d 33 2e 	call  8cb534a8 <LEON_REG+0xcb534a8>
    67f4:	34 2e 34 2f 	unknown
    67f8:	6c 69 62 67 	call  b1a5f194 <LEON_REG+0x31a5f194>
    67fc:	6c 6f 73 73 	call  b1be35c8 <LEON_REG+0x31be35c8>
    6800:	2f 73 70 61 	unknown
    6804:	72 63 5f 6c 	call  c98de5b4 <LEON_REG+0x498de5b4>
    6808:	65 6f 6e 2f 	call  95be20c4 <LEON_REG+0x15be20c4>
    680c:	72 74 63 2e 	call  c9d1f4c4 <LEON_REG+0x49d1f4c4>
    6810:	63 00 72 74 	call  8c0231e0 <LEON_REG+0xc0231e0>
    6814:	63 3a 47 28 	call  8ce984b4 <LEON_REG+0xce984b4>
    6818:	30 2c 32 32 	unknown
    681c:	29 3d 2a 28 	sethi  %hi(0xf4a8a000), %l4
    6820:	30 2c 31 29 	unknown
	...
Disassembly of section .comment:

00000000 <.comment>:
   0:	00 47 43 43 	unknown
   4:	3a 20 28 47 	unknown
   8:	4e 55 29 20 	call  3954a488 <_trap_table-0x6fb5b78>
   c:	33 2e 34 2e 	sethi  %hi(0xb8d0b800), %i1
  10:	34 00 00 47 	unknown
  14:	43 43 3a 20 	call  d0ce894 <_trap_table-0x3343176c>
  18:	28 47 4e 55 	unknown
  1c:	29 20 33 2e 	sethi  %hi(0x80ccb800), %l4
  20:	34 2e 34 00 	unknown
  24:	00 47 43 43 	unknown
  28:	3a 20 28 47 	unknown
  2c:	4e 55 29 20 	call  3954a4ac <_trap_table-0x6fb5b54>
  30:	33 2e 34 2e 	sethi  %hi(0xb8d0b800), %i1
  34:	34 00 00 47 	unknown
  38:	43 43 3a 20 	call  d0ce8b8 <_trap_table-0x33431748>
  3c:	28 47 4e 55 	unknown
  40:	29 20 33 2e 	sethi  %hi(0x80ccb800), %l4
  44:	34 2e 34 00 	unknown
  48:	00 47 43 43 	unknown
  4c:	3a 20 28 47 	unknown
  50:	4e 55 29 20 	call  3954a4d0 <_trap_table-0x6fb5b30>
  54:	33 2e 34 2e 	sethi  %hi(0xb8d0b800), %i1
  58:	34 00 00 47 	unknown
  5c:	43 43 3a 20 	call  d0ce8dc <_trap_table-0x33431724>
  60:	28 47 4e 55 	unknown
  64:	29 20 33 2e 	sethi  %hi(0x80ccb800), %l4
  68:	34 2e 34 00 	unknown
  6c:	00 47 43 43 	unknown
  70:	3a 20 28 47 	unknown
  74:	4e 55 29 20 	call  3954a4f4 <_trap_table-0x6fb5b0c>
  78:	33 2e 34 2e 	sethi  %hi(0xb8d0b800), %i1
  7c:	34 00 00 47 	unknown
  80:	43 43 3a 20 	call  d0ce900 <_trap_table-0x33431700>
  84:	28 47 4e 55 	unknown
  88:	29 20 33 2e 	sethi  %hi(0x80ccb800), %l4
  8c:	34 2e 34 00 	unknown
  90:	00 47 43 43 	unknown
  94:	3a 20 28 47 	unknown
  98:	4e 55 29 20 	call  3954a518 <_trap_table-0x6fb5ae8>
  9c:	33 2e 34 2e 	sethi  %hi(0xb8d0b800), %i1
  a0:	34 00 00 47 	unknown
  a4:	43 43 3a 20 	call  d0ce924 <_trap_table-0x334316dc>
  a8:	28 47 4e 55 	unknown
  ac:	29 20 33 2e 	sethi  %hi(0x80ccb800), %l4
  b0:	34 2e 34 00 	unknown
  b4:	00 47 43 43 	unknown
  b8:	3a 20 28 47 	unknown
  bc:	4e 55 29 20 	call  3954a53c <_trap_table-0x6fb5ac4>
  c0:	33 2e 34 2e 	sethi  %hi(0xb8d0b800), %i1
  c4:	34 00 00 47 	unknown
  c8:	43 43 3a 20 	call  d0ce948 <_trap_table-0x334316b8>
  cc:	28 47 4e 55 	unknown
  d0:	29 20 33 2e 	sethi  %hi(0x80ccb800), %l4
  d4:	34 2e 34 00 	unknown
  d8:	00 47 43 43 	unknown
  dc:	3a 20 28 47 	unknown
  e0:	4e 55 29 20 	call  3954a560 <_trap_table-0x6fb5aa0>
  e4:	33 2e 34 2e 	sethi  %hi(0xb8d0b800), %i1
  e8:	34 00 00 47 	unknown
  ec:	43 43 3a 20 	call  d0ce96c <_trap_table-0x33431694>
  f0:	28 47 4e 55 	unknown
  f4:	29 20 33 2e 	sethi  %hi(0x80ccb800), %l4
  f8:	34 2e 34 00 	unknown
  fc:	00 47 43 43 	unknown
 100:	3a 20 28 47 	unknown
 104:	4e 55 29 20 	call  3954a584 <_trap_table-0x6fb5a7c>
 108:	33 2e 34 2e 	sethi  %hi(0xb8d0b800), %i1
 10c:	34 00 00 47 	unknown
 110:	43 43 3a 20 	call  d0ce990 <_trap_table-0x33431670>
 114:	28 47 4e 55 	unknown
 118:	29 20 33 2e 	sethi  %hi(0x80ccb800), %l4
 11c:	34 2e 34 00 	unknown
 120:	00 47 43 43 	unknown
 124:	3a 20 28 47 	unknown
 128:	4e 55 29 20 	call  3954a5a8 <_trap_table-0x6fb5a58>
 12c:	33 2e 34 2e 	sethi  %hi(0xb8d0b800), %i1
 130:	34 00 00 47 	unknown
 134:	43 43 3a 20 	call  d0ce9b4 <_trap_table-0x3343164c>
 138:	28 47 4e 55 	unknown
 13c:	29 20 33 2e 	sethi  %hi(0x80ccb800), %l4
 140:	34 2e 34 00 	unknown
 144:	00 47 43 43 	unknown
 148:	3a 20 28 47 	unknown
 14c:	4e 55 29 20 	call  3954a5cc <_trap_table-0x6fb5a34>
 150:	33 2e 34 2e 	sethi  %hi(0xb8d0b800), %i1
 154:	34 00 00 47 	unknown
 158:	43 43 3a 20 	call  d0ce9d8 <_trap_table-0x33431628>
 15c:	28 47 4e 55 	unknown
 160:	29 20 33 2e 	sethi  %hi(0x80ccb800), %l4
 164:	34 2e 34 00 	unknown
